
/Users/jim/work/cppfort/micro-tests/results/stdlib/std001-test/std001-test_O0.out:	file format mach-o arm64

Disassembly of section __TEXT,__text:

00000001000004e8 <_main>:
1000004e8: d10183ff    	sub	sp, sp, #0x60
1000004ec: a9057bfd    	stp	x29, x30, [sp, #0x50]
1000004f0: 910143fd    	add	x29, sp, #0x50
1000004f4: 90000028    	adrp	x8, 0x100004000 <___stack_chk_guard+0x100004000>
1000004f8: f9400508    	ldr	x8, [x8, #0x8]
1000004fc: f9400108    	ldr	x8, [x8]
100000500: f81f83a8    	stur	x8, [x29, #-0x8]
100000504: b81e83bf    	stur	wzr, [x29, #-0x18]
100000508: d10053a8    	sub	x8, x29, #0x14
10000050c: 52800029    	mov	w9, #0x1                ; =1
100000510: b81ec3a9    	stur	w9, [x29, #-0x14]
100000514: 5280004a    	mov	w10, #0x2               ; =2
100000518: b81f03aa    	stur	w10, [x29, #-0x10]
10000051c: b81f43a9    	stur	w9, [x29, #-0xc]
100000520: f9000be8    	str	x8, [sp, #0x10]
100000524: d2800068    	mov	x8, #0x3                ; =3
100000528: f9000fe8    	str	x8, [sp, #0x18]
10000052c: f9400be1    	ldr	x1, [sp, #0x10]
100000530: f9400fe2    	ldr	x2, [sp, #0x18]
100000534: 910083e0    	add	x0, sp, #0x20
100000538: f90003e0    	str	x0, [sp]
10000053c: 94000017    	bl	0x100000598 <__ZNSt3__16vectorIiNS_9allocatorIiEEEC1B8ne200100ESt16initializer_listIiE>
100000540: f94003e0    	ldr	x0, [sp]
100000544: d2800041    	mov	x1, #0x2                ; =2
100000548: 94000023    	bl	0x1000005d4 <__ZNSt3__16vectorIiNS_9allocatorIiEEEixB8ne200100Em>
10000054c: aa0003e8    	mov	x8, x0
100000550: f94003e0    	ldr	x0, [sp]
100000554: b9400108    	ldr	w8, [x8]
100000558: b81e83a8    	stur	w8, [x29, #-0x18]
10000055c: 94000027    	bl	0x1000005f8 <__ZNSt3__16vectorIiNS_9allocatorIiEEED1B8ne200100Ev>
100000560: b85e83a8    	ldur	w8, [x29, #-0x18]
100000564: b9000fe8    	str	w8, [sp, #0xc]
100000568: f85f83a9    	ldur	x9, [x29, #-0x8]
10000056c: 90000028    	adrp	x8, 0x100004000 <___stack_chk_guard+0x100004000>
100000570: f9400508    	ldr	x8, [x8, #0x8]
100000574: f9400108    	ldr	x8, [x8]
100000578: eb090108    	subs	x8, x8, x9
10000057c: 54000060    	b.eq	0x100000588 <_main+0xa0>
100000580: 14000001    	b	0x100000584 <_main+0x9c>
100000584: 94000565    	bl	0x100001b18 <___stack_chk_guard+0x100001b18>
100000588: b9400fe0    	ldr	w0, [sp, #0xc]
10000058c: a9457bfd    	ldp	x29, x30, [sp, #0x50]
100000590: 910183ff    	add	sp, sp, #0x60
100000594: d65f03c0    	ret

0000000100000598 <__ZNSt3__16vectorIiNS_9allocatorIiEEEC1B8ne200100ESt16initializer_listIiE>:
100000598: d100c3ff    	sub	sp, sp, #0x30
10000059c: a9027bfd    	stp	x29, x30, [sp, #0x20]
1000005a0: 910083fd    	add	x29, sp, #0x20
1000005a4: f9000be1    	str	x1, [sp, #0x10]
1000005a8: f9000fe2    	str	x2, [sp, #0x18]
1000005ac: f90007e0    	str	x0, [sp, #0x8]
1000005b0: f94007e0    	ldr	x0, [sp, #0x8]
1000005b4: f90003e0    	str	x0, [sp]
1000005b8: f9400be1    	ldr	x1, [sp, #0x10]
1000005bc: f9400fe2    	ldr	x2, [sp, #0x18]
1000005c0: 94000019    	bl	0x100000624 <__ZNSt3__16vectorIiNS_9allocatorIiEEEC2B8ne200100ESt16initializer_listIiE>
1000005c4: f94003e0    	ldr	x0, [sp]
1000005c8: a9427bfd    	ldp	x29, x30, [sp, #0x20]
1000005cc: 9100c3ff    	add	sp, sp, #0x30
1000005d0: d65f03c0    	ret

00000001000005d4 <__ZNSt3__16vectorIiNS_9allocatorIiEEEixB8ne200100Em>:
1000005d4: d10043ff    	sub	sp, sp, #0x10
1000005d8: f90007e0    	str	x0, [sp, #0x8]
1000005dc: f90003e1    	str	x1, [sp]
1000005e0: f94007e8    	ldr	x8, [sp, #0x8]
1000005e4: f9400108    	ldr	x8, [x8]
1000005e8: f94003e9    	ldr	x9, [sp]
1000005ec: 8b090900    	add	x0, x8, x9, lsl #2
1000005f0: 910043ff    	add	sp, sp, #0x10
1000005f4: d65f03c0    	ret

00000001000005f8 <__ZNSt3__16vectorIiNS_9allocatorIiEEED1B8ne200100Ev>:
1000005f8: d10083ff    	sub	sp, sp, #0x20
1000005fc: a9017bfd    	stp	x29, x30, [sp, #0x10]
100000600: 910043fd    	add	x29, sp, #0x10
100000604: f90007e0    	str	x0, [sp, #0x8]
100000608: f94007e0    	ldr	x0, [sp, #0x8]
10000060c: f90003e0    	str	x0, [sp]
100000610: 94000532    	bl	0x100001ad8 <__ZNSt3__16vectorIiNS_9allocatorIiEEED2B8ne200100Ev>
100000614: f94003e0    	ldr	x0, [sp]
100000618: a9417bfd    	ldp	x29, x30, [sp, #0x10]
10000061c: 910083ff    	add	sp, sp, #0x20
100000620: d65f03c0    	ret

0000000100000624 <__ZNSt3__16vectorIiNS_9allocatorIiEEEC2B8ne200100ESt16initializer_listIiE>:
100000624: d10143ff    	sub	sp, sp, #0x50
100000628: a9047bfd    	stp	x29, x30, [sp, #0x40]
10000062c: 910103fd    	add	x29, sp, #0x40
100000630: d10043a8    	sub	x8, x29, #0x10
100000634: f90007e8    	str	x8, [sp, #0x8]
100000638: f81f03a1    	stur	x1, [x29, #-0x10]
10000063c: f81f83a2    	stur	x2, [x29, #-0x8]
100000640: f81e83a0    	stur	x0, [x29, #-0x18]
100000644: f85e83a0    	ldur	x0, [x29, #-0x18]
100000648: f90013e0    	str	x0, [sp, #0x20]
10000064c: f900001f    	str	xzr, [x0]
100000650: f900041f    	str	xzr, [x0, #0x8]
100000654: f900081f    	str	xzr, [x0, #0x10]
100000658: 94000014    	bl	0x1000006a8 <__ZNSt3__19allocatorIiEC1B8ne200100Ev>
10000065c: f94007e0    	ldr	x0, [sp, #0x8]
100000660: 9400004a    	bl	0x100000788 <__ZNKSt16initializer_listIiE5beginB8ne200100Ev>
100000664: aa0003e1    	mov	x1, x0
100000668: f94007e0    	ldr	x0, [sp, #0x8]
10000066c: f9000be1    	str	x1, [sp, #0x10]
100000670: 9400004c    	bl	0x1000007a0 <__ZNKSt16initializer_listIiE3endB8ne200100Ev>
100000674: aa0003e1    	mov	x1, x0
100000678: f94007e0    	ldr	x0, [sp, #0x8]
10000067c: f9000fe1    	str	x1, [sp, #0x18]
100000680: 94000050    	bl	0x1000007c0 <__ZNKSt16initializer_listIiE4sizeB8ne200100Ev>
100000684: f9400be1    	ldr	x1, [sp, #0x10]
100000688: f9400fe2    	ldr	x2, [sp, #0x18]
10000068c: aa0003e3    	mov	x3, x0
100000690: f94013e0    	ldr	x0, [sp, #0x20]
100000694: 94000524    	bl	0x100001b24 <___stack_chk_guard+0x100001b24>
100000698: f94013e0    	ldr	x0, [sp, #0x20]
10000069c: a9447bfd    	ldp	x29, x30, [sp, #0x40]
1000006a0: 910143ff    	add	sp, sp, #0x50
1000006a4: d65f03c0    	ret

00000001000006a8 <__ZNSt3__19allocatorIiEC1B8ne200100Ev>:
1000006a8: d10083ff    	sub	sp, sp, #0x20
1000006ac: a9017bfd    	stp	x29, x30, [sp, #0x10]
1000006b0: 910043fd    	add	x29, sp, #0x10
1000006b4: f90007e0    	str	x0, [sp, #0x8]
1000006b8: f94007e0    	ldr	x0, [sp, #0x8]
1000006bc: f90003e0    	str	x0, [sp]
1000006c0: 94000046    	bl	0x1000007d8 <__ZNSt3__19allocatorIiEC2B8ne200100Ev>
1000006c4: f94003e0    	ldr	x0, [sp]
1000006c8: a9417bfd    	ldp	x29, x30, [sp, #0x10]
1000006cc: 910083ff    	add	sp, sp, #0x20
1000006d0: d65f03c0    	ret

00000001000006d4 <__ZNSt3__16vectorIiNS_9allocatorIiEEE16__init_with_sizeB8ne200100IPKiS6_EEvT_T0_m>:
1000006d4: d101c3ff    	sub	sp, sp, #0x70
1000006d8: a9067bfd    	stp	x29, x30, [sp, #0x60]
1000006dc: 910183fd    	add	x29, sp, #0x60
1000006e0: f81f83a0    	stur	x0, [x29, #-0x8]
1000006e4: f81f03a1    	stur	x1, [x29, #-0x10]
1000006e8: f81e83a2    	stur	x2, [x29, #-0x18]
1000006ec: f81e03a3    	stur	x3, [x29, #-0x20]
1000006f0: f85f83a1    	ldur	x1, [x29, #-0x8]
1000006f4: f9000be1    	str	x1, [sp, #0x10]
1000006f8: 9100a3e0    	add	x0, sp, #0x28
1000006fc: 94000057    	bl	0x100000858 <__ZNSt3__16vectorIiNS_9allocatorIiEEE16__destroy_vectorC1B8ne200100ERS3_>
100000700: f94017e0    	ldr	x0, [sp, #0x28]
100000704: 9100c3e8    	add	x8, sp, #0x30
100000708: 94000044    	bl	0x100000818 <__ZNSt3__122__make_exception_guardB8ne200100INS_6vectorIiNS_9allocatorIiEEE16__destroy_vectorEEENS_28__exception_guard_exceptionsIT_EES7_>
10000070c: f85e03a8    	ldur	x8, [x29, #-0x20]
100000710: f1000108    	subs	x8, x8, #0x0
100000714: 54000269    	b.ls	0x100000760 <__ZNSt3__16vectorIiNS_9allocatorIiEEE16__init_with_sizeB8ne200100IPKiS6_EEvT_T0_m+0x8c>
100000718: 14000001    	b	0x10000071c <__ZNSt3__16vectorIiNS_9allocatorIiEEE16__init_with_sizeB8ne200100IPKiS6_EEvT_T0_m+0x48>
10000071c: f9400be0    	ldr	x0, [sp, #0x10]
100000720: f85e03a1    	ldur	x1, [x29, #-0x20]
100000724: 9400005a    	bl	0x10000088c <__ZNSt3__16vectorIiNS_9allocatorIiEEE11__vallocateB8ne200100Em>
100000728: 14000001    	b	0x10000072c <__ZNSt3__16vectorIiNS_9allocatorIiEEE16__init_with_sizeB8ne200100IPKiS6_EEvT_T0_m+0x58>
10000072c: f9400be0    	ldr	x0, [sp, #0x10]
100000730: f85f03a1    	ldur	x1, [x29, #-0x10]
100000734: f85e83a2    	ldur	x2, [x29, #-0x18]
100000738: f85e03a3    	ldur	x3, [x29, #-0x20]
10000073c: 940004fd    	bl	0x100001b30 <___stack_chk_guard+0x100001b30>
100000740: 14000001    	b	0x100000744 <__ZNSt3__16vectorIiNS_9allocatorIiEEE16__init_with_sizeB8ne200100IPKiS6_EEvT_T0_m+0x70>
100000744: 14000007    	b	0x100000760 <__ZNSt3__16vectorIiNS_9allocatorIiEEE16__init_with_sizeB8ne200100IPKiS6_EEvT_T0_m+0x8c>
100000748: f90013e0    	str	x0, [sp, #0x20]
10000074c: aa0103e8    	mov	x8, x1
100000750: b9001fe8    	str	w8, [sp, #0x1c]
100000754: 9100c3e0    	add	x0, sp, #0x30
100000758: 94000099    	bl	0x1000009bc <__ZNSt3__128__exception_guard_exceptionsINS_6vectorIiNS_9allocatorIiEEE16__destroy_vectorEED1B8ne200100Ev>
10000075c: 14000009    	b	0x100000780 <__ZNSt3__16vectorIiNS_9allocatorIiEEE16__init_with_sizeB8ne200100IPKiS6_EEvT_T0_m+0xac>
100000760: 9100c3e0    	add	x0, sp, #0x30
100000764: f90007e0    	str	x0, [sp, #0x8]
100000768: 9400008e    	bl	0x1000009a0 <__ZNSt3__128__exception_guard_exceptionsINS_6vectorIiNS_9allocatorIiEEE16__destroy_vectorEE10__completeB8ne200100Ev>
10000076c: f94007e0    	ldr	x0, [sp, #0x8]
100000770: 94000093    	bl	0x1000009bc <__ZNSt3__128__exception_guard_exceptionsINS_6vectorIiNS_9allocatorIiEEE16__destroy_vectorEED1B8ne200100Ev>
100000774: a9467bfd    	ldp	x29, x30, [sp, #0x60]
100000778: 9101c3ff    	add	sp, sp, #0x70
10000077c: d65f03c0    	ret
100000780: f94013e0    	ldr	x0, [sp, #0x20]
100000784: 940004ee    	bl	0x100001b3c <___stack_chk_guard+0x100001b3c>

0000000100000788 <__ZNKSt16initializer_listIiE5beginB8ne200100Ev>:
100000788: d10043ff    	sub	sp, sp, #0x10
10000078c: f90007e0    	str	x0, [sp, #0x8]
100000790: f94007e8    	ldr	x8, [sp, #0x8]
100000794: f9400100    	ldr	x0, [x8]
100000798: 910043ff    	add	sp, sp, #0x10
10000079c: d65f03c0    	ret

00000001000007a0 <__ZNKSt16initializer_listIiE3endB8ne200100Ev>:
1000007a0: d10043ff    	sub	sp, sp, #0x10
1000007a4: f90007e0    	str	x0, [sp, #0x8]
1000007a8: f94007e9    	ldr	x9, [sp, #0x8]
1000007ac: f9400128    	ldr	x8, [x9]
1000007b0: f9400529    	ldr	x9, [x9, #0x8]
1000007b4: 8b090900    	add	x0, x8, x9, lsl #2
1000007b8: 910043ff    	add	sp, sp, #0x10
1000007bc: d65f03c0    	ret

00000001000007c0 <__ZNKSt16initializer_listIiE4sizeB8ne200100Ev>:
1000007c0: d10043ff    	sub	sp, sp, #0x10
1000007c4: f90007e0    	str	x0, [sp, #0x8]
1000007c8: f94007e8    	ldr	x8, [sp, #0x8]
1000007cc: f9400500    	ldr	x0, [x8, #0x8]
1000007d0: 910043ff    	add	sp, sp, #0x10
1000007d4: d65f03c0    	ret

00000001000007d8 <__ZNSt3__19allocatorIiEC2B8ne200100Ev>:
1000007d8: d10083ff    	sub	sp, sp, #0x20
1000007dc: a9017bfd    	stp	x29, x30, [sp, #0x10]
1000007e0: 910043fd    	add	x29, sp, #0x10
1000007e4: f90007e0    	str	x0, [sp, #0x8]
1000007e8: f94007e0    	ldr	x0, [sp, #0x8]
1000007ec: f90003e0    	str	x0, [sp]
1000007f0: 94000005    	bl	0x100000804 <__ZNSt3__116__non_trivial_ifILb1ENS_9allocatorIiEEEC2B8ne200100Ev>
1000007f4: f94003e0    	ldr	x0, [sp]
1000007f8: a9417bfd    	ldp	x29, x30, [sp, #0x10]
1000007fc: 910083ff    	add	sp, sp, #0x20
100000800: d65f03c0    	ret

0000000100000804 <__ZNSt3__116__non_trivial_ifILb1ENS_9allocatorIiEEEC2B8ne200100Ev>:
100000804: d10043ff    	sub	sp, sp, #0x10
100000808: f90007e0    	str	x0, [sp, #0x8]
10000080c: f94007e0    	ldr	x0, [sp, #0x8]
100000810: 910043ff    	add	sp, sp, #0x10
100000814: d65f03c0    	ret

0000000100000818 <__ZNSt3__122__make_exception_guardB8ne200100INS_6vectorIiNS_9allocatorIiEEE16__destroy_vectorEEENS_28__exception_guard_exceptionsIT_EES7_>:
100000818: d100c3ff    	sub	sp, sp, #0x30
10000081c: a9027bfd    	stp	x29, x30, [sp, #0x20]
100000820: 910083fd    	add	x29, sp, #0x20
100000824: f90003e8    	str	x8, [sp]
100000828: aa0003e8    	mov	x8, x0
10000082c: f94003e0    	ldr	x0, [sp]
100000830: aa0003e9    	mov	x9, x0
100000834: f81f83a9    	stur	x9, [x29, #-0x8]
100000838: f9000be8    	str	x8, [sp, #0x10]
10000083c: f9400be8    	ldr	x8, [sp, #0x10]
100000840: f90007e8    	str	x8, [sp, #0x8]
100000844: f94007e1    	ldr	x1, [sp, #0x8]
100000848: 94000068    	bl	0x1000009e8 <__ZNSt3__128__exception_guard_exceptionsINS_6vectorIiNS_9allocatorIiEEE16__destroy_vectorEEC1B8ne200100ES5_>
10000084c: a9427bfd    	ldp	x29, x30, [sp, #0x20]
100000850: 9100c3ff    	add	sp, sp, #0x30
100000854: d65f03c0    	ret

0000000100000858 <__ZNSt3__16vectorIiNS_9allocatorIiEEE16__destroy_vectorC1B8ne200100ERS3_>:
100000858: d100c3ff    	sub	sp, sp, #0x30
10000085c: a9027bfd    	stp	x29, x30, [sp, #0x20]
100000860: 910083fd    	add	x29, sp, #0x20
100000864: f81f83a0    	stur	x0, [x29, #-0x8]
100000868: f9000be1    	str	x1, [sp, #0x10]
10000086c: f85f83a0    	ldur	x0, [x29, #-0x8]
100000870: f90007e0    	str	x0, [sp, #0x8]
100000874: f9400be1    	ldr	x1, [sp, #0x10]
100000878: 94000072    	bl	0x100000a40 <__ZNSt3__16vectorIiNS_9allocatorIiEEE16__destroy_vectorC2B8ne200100ERS3_>
10000087c: f94007e0    	ldr	x0, [sp, #0x8]
100000880: a9427bfd    	ldp	x29, x30, [sp, #0x20]
100000884: 9100c3ff    	add	sp, sp, #0x30
100000888: d65f03c0    	ret

000000010000088c <__ZNSt3__16vectorIiNS_9allocatorIiEEE11__vallocateB8ne200100Em>:
10000088c: d10103ff    	sub	sp, sp, #0x40
100000890: a9037bfd    	stp	x29, x30, [sp, #0x30]
100000894: 9100c3fd    	add	x29, sp, #0x30
100000898: f81f83a0    	stur	x0, [x29, #-0x8]
10000089c: f81f03a1    	stur	x1, [x29, #-0x10]
1000008a0: f85f83a0    	ldur	x0, [x29, #-0x8]
1000008a4: f90003e0    	str	x0, [sp]
1000008a8: f85f03a8    	ldur	x8, [x29, #-0x10]
1000008ac: f90007e8    	str	x8, [sp, #0x8]
1000008b0: 9400006c    	bl	0x100000a60 <__ZNKSt3__16vectorIiNS_9allocatorIiEEE8max_sizeB8ne200100Ev>
1000008b4: f94007e8    	ldr	x8, [sp, #0x8]
1000008b8: eb000108    	subs	x8, x8, x0
1000008bc: 54000069    	b.ls	0x1000008c8 <__ZNSt3__16vectorIiNS_9allocatorIiEEE11__vallocateB8ne200100Em+0x3c>
1000008c0: 14000001    	b	0x1000008c4 <__ZNSt3__16vectorIiNS_9allocatorIiEEE11__vallocateB8ne200100Em+0x38>
1000008c4: 9400007e    	bl	0x100000abc <__ZNSt3__16vectorIiNS_9allocatorIiEEE20__throw_length_errorB8ne200100Ev>
1000008c8: f94003e0    	ldr	x0, [sp]
1000008cc: f85f03a1    	ldur	x1, [x29, #-0x10]
1000008d0: 94000080    	bl	0x100000ad0 <__ZNSt3__119__allocate_at_leastB8ne200100INS_9allocatorIiEEEENS_19__allocation_resultINS_16allocator_traitsIT_E7pointerEEERS5_m>
1000008d4: aa0003e8    	mov	x8, x0
1000008d8: f94003e0    	ldr	x0, [sp]
1000008dc: f9000be8    	str	x8, [sp, #0x10]
1000008e0: f9000fe1    	str	x1, [sp, #0x18]
1000008e4: f9400be8    	ldr	x8, [sp, #0x10]
1000008e8: f9000008    	str	x8, [x0]
1000008ec: f9400be8    	ldr	x8, [sp, #0x10]
1000008f0: f9000408    	str	x8, [x0, #0x8]
1000008f4: f9400008    	ldr	x8, [x0]
1000008f8: f9400fe9    	ldr	x9, [sp, #0x18]
1000008fc: 8b090908    	add	x8, x8, x9, lsl #2
100000900: f9000808    	str	x8, [x0, #0x10]
100000904: d2800001    	mov	x1, #0x0                ; =0
100000908: 94000082    	bl	0x100000b10 <__ZNKSt3__16vectorIiNS_9allocatorIiEEE14__annotate_newB8ne200100Em>
10000090c: a9437bfd    	ldp	x29, x30, [sp, #0x30]
100000910: 910103ff    	add	sp, sp, #0x40
100000914: d65f03c0    	ret

0000000100000918 <__ZNSt3__16vectorIiNS_9allocatorIiEEE18__construct_at_endIPKiS6_EEvT_T0_m>:
100000918: d101c3ff    	sub	sp, sp, #0x70
10000091c: a9067bfd    	stp	x29, x30, [sp, #0x60]
100000920: 910183fd    	add	x29, sp, #0x60
100000924: f81f83a0    	stur	x0, [x29, #-0x8]
100000928: f81f03a1    	stur	x1, [x29, #-0x10]
10000092c: f81e83a2    	stur	x2, [x29, #-0x18]
100000930: f81e03a3    	stur	x3, [x29, #-0x20]
100000934: f85f83a1    	ldur	x1, [x29, #-0x8]
100000938: f90007e1    	str	x1, [sp, #0x8]
10000093c: f85e03a2    	ldur	x2, [x29, #-0x20]
100000940: 9100a3e0    	add	x0, sp, #0x28
100000944: 9400014e    	bl	0x100000e7c <__ZNSt3__16vectorIiNS_9allocatorIiEEE21_ConstructTransactionC1B8ne200100ERS3_m>
100000948: f94007e0    	ldr	x0, [sp, #0x8]
10000094c: f85f03a1    	ldur	x1, [x29, #-0x10]
100000950: f85e83a2    	ldur	x2, [x29, #-0x18]
100000954: f9401be3    	ldr	x3, [sp, #0x30]
100000958: 94000158    	bl	0x100000eb8 <__ZNSt3__130__uninitialized_allocator_copyB8ne200100INS_9allocatorIiEEPKiS4_PiEET2_RT_T0_T1_S6_>
10000095c: f9000be0    	str	x0, [sp, #0x10]
100000960: 14000001    	b	0x100000964 <__ZNSt3__16vectorIiNS_9allocatorIiEEE18__construct_at_endIPKiS6_EEvT_T0_m+0x4c>
100000964: f9400be8    	ldr	x8, [sp, #0x10]
100000968: 9100a3e0    	add	x0, sp, #0x28
10000096c: f9001be8    	str	x8, [sp, #0x30]
100000970: 94000172    	bl	0x100000f38 <__ZNSt3__16vectorIiNS_9allocatorIiEEE21_ConstructTransactionD1B8ne200100Ev>
100000974: a9467bfd    	ldp	x29, x30, [sp, #0x60]
100000978: 9101c3ff    	add	sp, sp, #0x70
10000097c: d65f03c0    	ret
100000980: f90013e0    	str	x0, [sp, #0x20]
100000984: aa0103e8    	mov	x8, x1
100000988: b9001fe8    	str	w8, [sp, #0x1c]
10000098c: 9100a3e0    	add	x0, sp, #0x28
100000990: 9400016a    	bl	0x100000f38 <__ZNSt3__16vectorIiNS_9allocatorIiEEE21_ConstructTransactionD1B8ne200100Ev>
100000994: 14000001    	b	0x100000998 <__ZNSt3__16vectorIiNS_9allocatorIiEEE18__construct_at_endIPKiS6_EEvT_T0_m+0x80>
100000998: f94013e0    	ldr	x0, [sp, #0x20]
10000099c: 94000468    	bl	0x100001b3c <___stack_chk_guard+0x100001b3c>

00000001000009a0 <__ZNSt3__128__exception_guard_exceptionsINS_6vectorIiNS_9allocatorIiEEE16__destroy_vectorEE10__completeB8ne200100Ev>:
1000009a0: d10043ff    	sub	sp, sp, #0x10
1000009a4: f90007e0    	str	x0, [sp, #0x8]
1000009a8: f94007e9    	ldr	x9, [sp, #0x8]
1000009ac: 52800028    	mov	w8, #0x1                ; =1
1000009b0: 39002128    	strb	w8, [x9, #0x8]
1000009b4: 910043ff    	add	sp, sp, #0x10
1000009b8: d65f03c0    	ret

00000001000009bc <__ZNSt3__128__exception_guard_exceptionsINS_6vectorIiNS_9allocatorIiEEE16__destroy_vectorEED1B8ne200100Ev>:
1000009bc: d10083ff    	sub	sp, sp, #0x20
1000009c0: a9017bfd    	stp	x29, x30, [sp, #0x10]
1000009c4: 910043fd    	add	x29, sp, #0x10
1000009c8: f90007e0    	str	x0, [sp, #0x8]
1000009cc: f94007e0    	ldr	x0, [sp, #0x8]
1000009d0: f90003e0    	str	x0, [sp]
1000009d4: 94000378    	bl	0x1000017b4 <__ZNSt3__128__exception_guard_exceptionsINS_6vectorIiNS_9allocatorIiEEE16__destroy_vectorEED2B8ne200100Ev>
1000009d8: f94003e0    	ldr	x0, [sp]
1000009dc: a9417bfd    	ldp	x29, x30, [sp, #0x10]
1000009e0: 910083ff    	add	sp, sp, #0x20
1000009e4: d65f03c0    	ret

00000001000009e8 <__ZNSt3__128__exception_guard_exceptionsINS_6vectorIiNS_9allocatorIiEEE16__destroy_vectorEEC1B8ne200100ES5_>:
1000009e8: d100c3ff    	sub	sp, sp, #0x30
1000009ec: a9027bfd    	stp	x29, x30, [sp, #0x20]
1000009f0: 910083fd    	add	x29, sp, #0x20
1000009f4: f81f83a1    	stur	x1, [x29, #-0x8]
1000009f8: f9000be0    	str	x0, [sp, #0x10]
1000009fc: f9400be0    	ldr	x0, [sp, #0x10]
100000a00: f90007e0    	str	x0, [sp, #0x8]
100000a04: f85f83a1    	ldur	x1, [x29, #-0x8]
100000a08: 94000005    	bl	0x100000a1c <__ZNSt3__128__exception_guard_exceptionsINS_6vectorIiNS_9allocatorIiEEE16__destroy_vectorEEC2B8ne200100ES5_>
100000a0c: f94007e0    	ldr	x0, [sp, #0x8]
100000a10: a9427bfd    	ldp	x29, x30, [sp, #0x20]
100000a14: 9100c3ff    	add	sp, sp, #0x30
100000a18: d65f03c0    	ret

0000000100000a1c <__ZNSt3__128__exception_guard_exceptionsINS_6vectorIiNS_9allocatorIiEEE16__destroy_vectorEEC2B8ne200100ES5_>:
100000a1c: d10043ff    	sub	sp, sp, #0x10
100000a20: f90007e1    	str	x1, [sp, #0x8]
100000a24: f90003e0    	str	x0, [sp]
100000a28: f94003e0    	ldr	x0, [sp]
100000a2c: f94007e8    	ldr	x8, [sp, #0x8]
100000a30: f9000008    	str	x8, [x0]
100000a34: 3900201f    	strb	wzr, [x0, #0x8]
100000a38: 910043ff    	add	sp, sp, #0x10
100000a3c: d65f03c0    	ret

0000000100000a40 <__ZNSt3__16vectorIiNS_9allocatorIiEEE16__destroy_vectorC2B8ne200100ERS3_>:
100000a40: d10043ff    	sub	sp, sp, #0x10
100000a44: f90007e0    	str	x0, [sp, #0x8]
100000a48: f90003e1    	str	x1, [sp]
100000a4c: f94007e0    	ldr	x0, [sp, #0x8]
100000a50: f94003e8    	ldr	x8, [sp]
100000a54: f9000008    	str	x8, [x0]
100000a58: 910043ff    	add	sp, sp, #0x10
100000a5c: d65f03c0    	ret

0000000100000a60 <__ZNKSt3__16vectorIiNS_9allocatorIiEEE8max_sizeB8ne200100Ev>:
100000a60: d10103ff    	sub	sp, sp, #0x40
100000a64: a9037bfd    	stp	x29, x30, [sp, #0x30]
100000a68: 9100c3fd    	add	x29, sp, #0x30
100000a6c: f81f83a0    	stur	x0, [x29, #-0x8]
100000a70: f85f83a0    	ldur	x0, [x29, #-0x8]
100000a74: 94000435    	bl	0x100001b48 <___stack_chk_guard+0x100001b48>
100000a78: d10043a8    	sub	x8, x29, #0x10
100000a7c: f90007e8    	str	x8, [sp, #0x8]
100000a80: f81f03a0    	stur	x0, [x29, #-0x10]
100000a84: 9400003d    	bl	0x100000b78 <__ZNSt3__114numeric_limitsIlE3maxB8ne200100Ev>
100000a88: aa0003e8    	mov	x8, x0
100000a8c: f94007e0    	ldr	x0, [sp, #0x8]
100000a90: 910063e1    	add	x1, sp, #0x18
100000a94: f9000fe8    	str	x8, [sp, #0x18]
100000a98: 94000023    	bl	0x100000b24 <__ZNSt3__13minB8ne200100ImEERKT_S3_S3_>
100000a9c: f9000be0    	str	x0, [sp, #0x10]
100000aa0: 14000001    	b	0x100000aa4 <__ZNKSt3__16vectorIiNS_9allocatorIiEEE8max_sizeB8ne200100Ev+0x44>
100000aa4: f9400be8    	ldr	x8, [sp, #0x10]
100000aa8: f9400100    	ldr	x0, [x8]
100000aac: a9437bfd    	ldp	x29, x30, [sp, #0x30]
100000ab0: 910103ff    	add	sp, sp, #0x40
100000ab4: d65f03c0    	ret
100000ab8: 94000035    	bl	0x100000b8c <___clang_call_terminate>

0000000100000abc <__ZNSt3__16vectorIiNS_9allocatorIiEEE20__throw_length_errorB8ne200100Ev>:
100000abc: a9bf7bfd    	stp	x29, x30, [sp, #-0x10]!
100000ac0: 910003fd    	mov	x29, sp
100000ac4: b0000000    	adrp	x0, 0x100001000 <__ZNSt3__135__uninitialized_allocator_copy_implB8ne200100INS_9allocatorIiEEPKiS4_PiEET2_RT_T0_T1_S6_+0x1c>
100000ac8: 91329000    	add	x0, x0, #0xca4
100000acc: 9400005e    	bl	0x100000c44 <__ZNSt3__120__throw_length_errorB8ne200100EPKc>

0000000100000ad0 <__ZNSt3__119__allocate_at_leastB8ne200100INS_9allocatorIiEEEENS_19__allocation_resultINS_16allocator_traitsIT_E7pointerEEERS5_m>:
100000ad0: d100c3ff    	sub	sp, sp, #0x30
100000ad4: a9027bfd    	stp	x29, x30, [sp, #0x20]
100000ad8: 910083fd    	add	x29, sp, #0x20
100000adc: f90007e0    	str	x0, [sp, #0x8]
100000ae0: f90003e1    	str	x1, [sp]
100000ae4: f94007e0    	ldr	x0, [sp, #0x8]
100000ae8: f94003e1    	ldr	x1, [sp]
100000aec: 9400008d    	bl	0x100000d20 <__ZNSt3__19allocatorIiE8allocateB8ne200100Em>
100000af0: f9000be0    	str	x0, [sp, #0x10]
100000af4: f94003e8    	ldr	x8, [sp]
100000af8: f9000fe8    	str	x8, [sp, #0x18]
100000afc: f9400be0    	ldr	x0, [sp, #0x10]
100000b00: f9400fe1    	ldr	x1, [sp, #0x18]
100000b04: a9427bfd    	ldp	x29, x30, [sp, #0x20]
100000b08: 9100c3ff    	add	sp, sp, #0x30
100000b0c: d65f03c0    	ret

0000000100000b10 <__ZNKSt3__16vectorIiNS_9allocatorIiEEE14__annotate_newB8ne200100Em>:
100000b10: d10043ff    	sub	sp, sp, #0x10
100000b14: f90007e0    	str	x0, [sp, #0x8]
100000b18: f90003e1    	str	x1, [sp]
100000b1c: 910043ff    	add	sp, sp, #0x10
100000b20: d65f03c0    	ret

0000000100000b24 <__ZNSt3__13minB8ne200100ImEERKT_S3_S3_>:
100000b24: d100c3ff    	sub	sp, sp, #0x30
100000b28: a9027bfd    	stp	x29, x30, [sp, #0x20]
100000b2c: 910083fd    	add	x29, sp, #0x20
100000b30: f81f83a0    	stur	x0, [x29, #-0x8]
100000b34: f9000be1    	str	x1, [sp, #0x10]
100000b38: f85f83a0    	ldur	x0, [x29, #-0x8]
100000b3c: f9400be1    	ldr	x1, [sp, #0x10]
100000b40: 94000017    	bl	0x100000b9c <__ZNSt3__13minB8ne200100ImNS_6__lessIvvEEEERKT_S5_S5_T0_>
100000b44: a9427bfd    	ldp	x29, x30, [sp, #0x20]
100000b48: 9100c3ff    	add	sp, sp, #0x30
100000b4c: d65f03c0    	ret

0000000100000b50 <__ZNSt3__116allocator_traitsINS_9allocatorIiEEE8max_sizeB8ne200100IS2_vLi0EEEmRKS2_>:
100000b50: d10083ff    	sub	sp, sp, #0x20
100000b54: a9017bfd    	stp	x29, x30, [sp, #0x10]
100000b58: 910043fd    	add	x29, sp, #0x10
100000b5c: f90007e0    	str	x0, [sp, #0x8]
100000b60: 94000030    	bl	0x100000c20 <__ZNSt3__114numeric_limitsImE3maxB8ne200100Ev>
100000b64: d2800088    	mov	x8, #0x4                ; =4
100000b68: 9ac80800    	udiv	x0, x0, x8
100000b6c: a9417bfd    	ldp	x29, x30, [sp, #0x10]
100000b70: 910083ff    	add	sp, sp, #0x20
100000b74: d65f03c0    	ret

0000000100000b78 <__ZNSt3__114numeric_limitsIlE3maxB8ne200100Ev>:
100000b78: a9bf7bfd    	stp	x29, x30, [sp, #-0x10]!
100000b7c: 910003fd    	mov	x29, sp
100000b80: 9400002f    	bl	0x100000c3c <__ZNSt3__123__libcpp_numeric_limitsIlLb1EE3maxB8ne200100Ev>
100000b84: a8c17bfd    	ldp	x29, x30, [sp], #0x10
100000b88: d65f03c0    	ret

0000000100000b8c <___clang_call_terminate>:
100000b8c: a9bf7bfd    	stp	x29, x30, [sp, #-0x10]!
100000b90: 910003fd    	mov	x29, sp
100000b94: 940003f0    	bl	0x100001b54 <___stack_chk_guard+0x100001b54>
100000b98: 940003f2    	bl	0x100001b60 <___stack_chk_guard+0x100001b60>

0000000100000b9c <__ZNSt3__13minB8ne200100ImNS_6__lessIvvEEEERKT_S5_S5_T0_>:
100000b9c: d100c3ff    	sub	sp, sp, #0x30
100000ba0: a9027bfd    	stp	x29, x30, [sp, #0x20]
100000ba4: 910083fd    	add	x29, sp, #0x20
100000ba8: f9000be0    	str	x0, [sp, #0x10]
100000bac: f90007e1    	str	x1, [sp, #0x8]
100000bb0: f94007e1    	ldr	x1, [sp, #0x8]
100000bb4: f9400be2    	ldr	x2, [sp, #0x10]
100000bb8: d10007a0    	sub	x0, x29, #0x1
100000bbc: 9400000d    	bl	0x100000bf0 <__ZNKSt3__16__lessIvvEclB8ne200100ImmEEbRKT_RKT0_>
100000bc0: 360000a0    	tbz	w0, #0x0, 0x100000bd4 <__ZNSt3__13minB8ne200100ImNS_6__lessIvvEEEERKT_S5_S5_T0_+0x38>
100000bc4: 14000001    	b	0x100000bc8 <__ZNSt3__13minB8ne200100ImNS_6__lessIvvEEEERKT_S5_S5_T0_+0x2c>
100000bc8: f94007e8    	ldr	x8, [sp, #0x8]
100000bcc: f90003e8    	str	x8, [sp]
100000bd0: 14000004    	b	0x100000be0 <__ZNSt3__13minB8ne200100ImNS_6__lessIvvEEEERKT_S5_S5_T0_+0x44>
100000bd4: f9400be8    	ldr	x8, [sp, #0x10]
100000bd8: f90003e8    	str	x8, [sp]
100000bdc: 14000001    	b	0x100000be0 <__ZNSt3__13minB8ne200100ImNS_6__lessIvvEEEERKT_S5_S5_T0_+0x44>
100000be0: f94003e0    	ldr	x0, [sp]
100000be4: a9427bfd    	ldp	x29, x30, [sp, #0x20]
100000be8: 9100c3ff    	add	sp, sp, #0x30
100000bec: d65f03c0    	ret

0000000100000bf0 <__ZNKSt3__16__lessIvvEclB8ne200100ImmEEbRKT_RKT0_>:
100000bf0: d10083ff    	sub	sp, sp, #0x20
100000bf4: f9000fe0    	str	x0, [sp, #0x18]
100000bf8: f9000be1    	str	x1, [sp, #0x10]
100000bfc: f90007e2    	str	x2, [sp, #0x8]
100000c00: f9400be8    	ldr	x8, [sp, #0x10]
100000c04: f9400108    	ldr	x8, [x8]
100000c08: f94007e9    	ldr	x9, [sp, #0x8]
100000c0c: f9400129    	ldr	x9, [x9]
100000c10: eb090108    	subs	x8, x8, x9
100000c14: 1a9f27e0    	cset	w0, lo
100000c18: 910083ff    	add	sp, sp, #0x20
100000c1c: d65f03c0    	ret

0000000100000c20 <__ZNSt3__114numeric_limitsImE3maxB8ne200100Ev>:
100000c20: a9bf7bfd    	stp	x29, x30, [sp, #-0x10]!
100000c24: 910003fd    	mov	x29, sp
100000c28: 94000003    	bl	0x100000c34 <__ZNSt3__123__libcpp_numeric_limitsImLb1EE3maxB8ne200100Ev>
100000c2c: a8c17bfd    	ldp	x29, x30, [sp], #0x10
100000c30: d65f03c0    	ret

0000000100000c34 <__ZNSt3__123__libcpp_numeric_limitsImLb1EE3maxB8ne200100Ev>:
100000c34: 92800000    	mov	x0, #-0x1               ; =-1
100000c38: d65f03c0    	ret

0000000100000c3c <__ZNSt3__123__libcpp_numeric_limitsIlLb1EE3maxB8ne200100Ev>:
100000c3c: 92f00000    	mov	x0, #0x7fffffffffffffff ; =9223372036854775807
100000c40: d65f03c0    	ret

0000000100000c44 <__ZNSt3__120__throw_length_errorB8ne200100EPKc>:
100000c44: d100c3ff    	sub	sp, sp, #0x30
100000c48: a9027bfd    	stp	x29, x30, [sp, #0x20]
100000c4c: 910083fd    	add	x29, sp, #0x20
100000c50: f81f83a0    	stur	x0, [x29, #-0x8]
100000c54: d2800200    	mov	x0, #0x10               ; =16
100000c58: 940003c5    	bl	0x100001b6c <___stack_chk_guard+0x100001b6c>
100000c5c: f90003e0    	str	x0, [sp]
100000c60: f85f83a1    	ldur	x1, [x29, #-0x8]
100000c64: 94000011    	bl	0x100000ca8 <__ZNSt12length_errorC1B8ne200100EPKc>
100000c68: 14000001    	b	0x100000c6c <__ZNSt3__120__throw_length_errorB8ne200100EPKc+0x28>
100000c6c: f94003e0    	ldr	x0, [sp]
100000c70: 90000021    	adrp	x1, 0x100004000 <___stack_chk_guard+0x100004000>
100000c74: f9402821    	ldr	x1, [x1, #0x50]
100000c78: 90000022    	adrp	x2, 0x100004000 <___stack_chk_guard+0x100004000>
100000c7c: f9402c42    	ldr	x2, [x2, #0x58]
100000c80: 940003be    	bl	0x100001b78 <___stack_chk_guard+0x100001b78>
100000c84: aa0003e8    	mov	x8, x0
100000c88: f94003e0    	ldr	x0, [sp]
100000c8c: f9000be8    	str	x8, [sp, #0x10]
100000c90: aa0103e8    	mov	x8, x1
100000c94: b9000fe8    	str	w8, [sp, #0xc]
100000c98: 940003bb    	bl	0x100001b84 <___stack_chk_guard+0x100001b84>
100000c9c: 14000001    	b	0x100000ca0 <__ZNSt3__120__throw_length_errorB8ne200100EPKc+0x5c>
100000ca0: f9400be0    	ldr	x0, [sp, #0x10]
100000ca4: 940003a6    	bl	0x100001b3c <___stack_chk_guard+0x100001b3c>

0000000100000ca8 <__ZNSt12length_errorC1B8ne200100EPKc>:
100000ca8: d100c3ff    	sub	sp, sp, #0x30
100000cac: a9027bfd    	stp	x29, x30, [sp, #0x20]
100000cb0: 910083fd    	add	x29, sp, #0x20
100000cb4: f81f83a0    	stur	x0, [x29, #-0x8]
100000cb8: f9000be1    	str	x1, [sp, #0x10]
100000cbc: f85f83a0    	ldur	x0, [x29, #-0x8]
100000cc0: f90007e0    	str	x0, [sp, #0x8]
100000cc4: f9400be1    	ldr	x1, [sp, #0x10]
100000cc8: 94000005    	bl	0x100000cdc <__ZNSt12length_errorC2B8ne200100EPKc>
100000ccc: f94007e0    	ldr	x0, [sp, #0x8]
100000cd0: a9427bfd    	ldp	x29, x30, [sp, #0x20]
100000cd4: 9100c3ff    	add	sp, sp, #0x30
100000cd8: d65f03c0    	ret

0000000100000cdc <__ZNSt12length_errorC2B8ne200100EPKc>:
100000cdc: d100c3ff    	sub	sp, sp, #0x30
100000ce0: a9027bfd    	stp	x29, x30, [sp, #0x20]
100000ce4: 910083fd    	add	x29, sp, #0x20
100000ce8: f81f83a0    	stur	x0, [x29, #-0x8]
100000cec: f9000be1    	str	x1, [sp, #0x10]
100000cf0: f85f83a0    	ldur	x0, [x29, #-0x8]
100000cf4: f90007e0    	str	x0, [sp, #0x8]
100000cf8: f9400be1    	ldr	x1, [sp, #0x10]
100000cfc: 940003a5    	bl	0x100001b90 <___stack_chk_guard+0x100001b90>
100000d00: f94007e0    	ldr	x0, [sp, #0x8]
100000d04: 90000028    	adrp	x8, 0x100004000 <___stack_chk_guard+0x100004000>
100000d08: f9403d08    	ldr	x8, [x8, #0x78]
100000d0c: 91004108    	add	x8, x8, #0x10
100000d10: f9000008    	str	x8, [x0]
100000d14: a9427bfd    	ldp	x29, x30, [sp, #0x20]
100000d18: 9100c3ff    	add	sp, sp, #0x30
100000d1c: d65f03c0    	ret

0000000100000d20 <__ZNSt3__19allocatorIiE8allocateB8ne200100Em>:
100000d20: d100c3ff    	sub	sp, sp, #0x30
100000d24: a9027bfd    	stp	x29, x30, [sp, #0x20]
100000d28: 910083fd    	add	x29, sp, #0x20
100000d2c: f81f83a0    	stur	x0, [x29, #-0x8]
100000d30: f9000be1    	str	x1, [sp, #0x10]
100000d34: f85f83a0    	ldur	x0, [x29, #-0x8]
100000d38: f9400be8    	ldr	x8, [sp, #0x10]
100000d3c: f90007e8    	str	x8, [sp, #0x8]
100000d40: 94000382    	bl	0x100001b48 <___stack_chk_guard+0x100001b48>
100000d44: f94007e8    	ldr	x8, [sp, #0x8]
100000d48: eb000108    	subs	x8, x8, x0
100000d4c: 54000069    	b.ls	0x100000d58 <__ZNSt3__19allocatorIiE8allocateB8ne200100Em+0x38>
100000d50: 14000001    	b	0x100000d54 <__ZNSt3__19allocatorIiE8allocateB8ne200100Em+0x34>
100000d54: 94000007    	bl	0x100000d70 <__ZSt28__throw_bad_array_new_lengthB8ne200100v>
100000d58: f9400be0    	ldr	x0, [sp, #0x10]
100000d5c: d2800081    	mov	x1, #0x4                ; =4
100000d60: 94000011    	bl	0x100000da4 <__ZNSt3__117__libcpp_allocateB8ne200100IiEEPT_NS_15__element_countEm>
100000d64: a9427bfd    	ldp	x29, x30, [sp, #0x20]
100000d68: 9100c3ff    	add	sp, sp, #0x30
100000d6c: d65f03c0    	ret

0000000100000d70 <__ZSt28__throw_bad_array_new_lengthB8ne200100v>:
100000d70: d10083ff    	sub	sp, sp, #0x20
100000d74: a9017bfd    	stp	x29, x30, [sp, #0x10]
100000d78: 910043fd    	add	x29, sp, #0x10
100000d7c: d2800100    	mov	x0, #0x8                ; =8
100000d80: 9400037b    	bl	0x100001b6c <___stack_chk_guard+0x100001b6c>
100000d84: f90007e0    	str	x0, [sp, #0x8]
100000d88: 94000385    	bl	0x100001b9c <___stack_chk_guard+0x100001b9c>
100000d8c: f94007e0    	ldr	x0, [sp, #0x8]
100000d90: 90000021    	adrp	x1, 0x100004000 <___stack_chk_guard+0x100004000>
100000d94: f9404421    	ldr	x1, [x1, #0x88]
100000d98: 90000022    	adrp	x2, 0x100004000 <___stack_chk_guard+0x100004000>
100000d9c: f9404842    	ldr	x2, [x2, #0x90]
100000da0: 94000376    	bl	0x100001b78 <___stack_chk_guard+0x100001b78>

0000000100000da4 <__ZNSt3__117__libcpp_allocateB8ne200100IiEEPT_NS_15__element_countEm>:
100000da4: d10103ff    	sub	sp, sp, #0x40
100000da8: a9037bfd    	stp	x29, x30, [sp, #0x30]
100000dac: 9100c3fd    	add	x29, sp, #0x30
100000db0: f81f03a0    	stur	x0, [x29, #-0x10]
100000db4: f9000fe1    	str	x1, [sp, #0x18]
100000db8: f85f03a8    	ldur	x8, [x29, #-0x10]
100000dbc: d37ef508    	lsl	x8, x8, #2
100000dc0: f9000be8    	str	x8, [sp, #0x10]
100000dc4: f9400fe0    	ldr	x0, [sp, #0x18]
100000dc8: 94000012    	bl	0x100000e10 <__ZNSt3__124__is_overaligned_for_newB8ne200100Em>
100000dcc: 36000120    	tbz	w0, #0x0, 0x100000df0 <__ZNSt3__117__libcpp_allocateB8ne200100IiEEPT_NS_15__element_countEm+0x4c>
100000dd0: 14000001    	b	0x100000dd4 <__ZNSt3__117__libcpp_allocateB8ne200100IiEEPT_NS_15__element_countEm+0x30>
100000dd4: f9400fe8    	ldr	x8, [sp, #0x18]
100000dd8: f90007e8    	str	x8, [sp, #0x8]
100000ddc: f9400be0    	ldr	x0, [sp, #0x10]
100000de0: f94007e1    	ldr	x1, [sp, #0x8]
100000de4: 94000012    	bl	0x100000e2c <__ZNSt3__121__libcpp_operator_newB8ne200100IiJmSt11align_val_tEEEPvDpT0_>
100000de8: f81f83a0    	stur	x0, [x29, #-0x8]
100000dec: 14000005    	b	0x100000e00 <__ZNSt3__117__libcpp_allocateB8ne200100IiEEPT_NS_15__element_countEm+0x5c>
100000df0: f9400be0    	ldr	x0, [sp, #0x10]
100000df4: 94000019    	bl	0x100000e58 <__ZNSt3__121__libcpp_operator_newB8ne200100IiEEPvm>
100000df8: f81f83a0    	stur	x0, [x29, #-0x8]
100000dfc: 14000001    	b	0x100000e00 <__ZNSt3__117__libcpp_allocateB8ne200100IiEEPT_NS_15__element_countEm+0x5c>
100000e00: f85f83a0    	ldur	x0, [x29, #-0x8]
100000e04: a9437bfd    	ldp	x29, x30, [sp, #0x30]
100000e08: 910103ff    	add	sp, sp, #0x40
100000e0c: d65f03c0    	ret

0000000100000e10 <__ZNSt3__124__is_overaligned_for_newB8ne200100Em>:
100000e10: d10043ff    	sub	sp, sp, #0x10
100000e14: f90007e0    	str	x0, [sp, #0x8]
100000e18: f94007e8    	ldr	x8, [sp, #0x8]
100000e1c: f1004108    	subs	x8, x8, #0x10
100000e20: 1a9f97e0    	cset	w0, hi
100000e24: 910043ff    	add	sp, sp, #0x10
100000e28: d65f03c0    	ret

0000000100000e2c <__ZNSt3__121__libcpp_operator_newB8ne200100IiJmSt11align_val_tEEEPvDpT0_>:
100000e2c: d10083ff    	sub	sp, sp, #0x20
100000e30: a9017bfd    	stp	x29, x30, [sp, #0x10]
100000e34: 910043fd    	add	x29, sp, #0x10
100000e38: f90007e0    	str	x0, [sp, #0x8]
100000e3c: f90003e1    	str	x1, [sp]
100000e40: f94007e0    	ldr	x0, [sp, #0x8]
100000e44: f94003e1    	ldr	x1, [sp]
100000e48: 94000358    	bl	0x100001ba8 <___stack_chk_guard+0x100001ba8>
100000e4c: a9417bfd    	ldp	x29, x30, [sp, #0x10]
100000e50: 910083ff    	add	sp, sp, #0x20
100000e54: d65f03c0    	ret

0000000100000e58 <__ZNSt3__121__libcpp_operator_newB8ne200100IiEEPvm>:
100000e58: d10083ff    	sub	sp, sp, #0x20
100000e5c: a9017bfd    	stp	x29, x30, [sp, #0x10]
100000e60: 910043fd    	add	x29, sp, #0x10
100000e64: f90007e0    	str	x0, [sp, #0x8]
100000e68: f94007e0    	ldr	x0, [sp, #0x8]
100000e6c: 94000352    	bl	0x100001bb4 <___stack_chk_guard+0x100001bb4>
100000e70: a9417bfd    	ldp	x29, x30, [sp, #0x10]
100000e74: 910083ff    	add	sp, sp, #0x20
100000e78: d65f03c0    	ret

0000000100000e7c <__ZNSt3__16vectorIiNS_9allocatorIiEEE21_ConstructTransactionC1B8ne200100ERS3_m>:
100000e7c: d100c3ff    	sub	sp, sp, #0x30
100000e80: a9027bfd    	stp	x29, x30, [sp, #0x20]
100000e84: 910083fd    	add	x29, sp, #0x20
100000e88: f81f83a0    	stur	x0, [x29, #-0x8]
100000e8c: f9000be1    	str	x1, [sp, #0x10]
100000e90: f90007e2    	str	x2, [sp, #0x8]
100000e94: f85f83a0    	ldur	x0, [x29, #-0x8]
100000e98: f90003e0    	str	x0, [sp]
100000e9c: f9400be1    	ldr	x1, [sp, #0x10]
100000ea0: f94007e2    	ldr	x2, [sp, #0x8]
100000ea4: 94000030    	bl	0x100000f64 <__ZNSt3__16vectorIiNS_9allocatorIiEEE21_ConstructTransactionC2B8ne200100ERS3_m>
100000ea8: f94003e0    	ldr	x0, [sp]
100000eac: a9427bfd    	ldp	x29, x30, [sp, #0x20]
100000eb0: 9100c3ff    	add	sp, sp, #0x30
100000eb4: d65f03c0    	ret

0000000100000eb8 <__ZNSt3__130__uninitialized_allocator_copyB8ne200100INS_9allocatorIiEEPKiS4_PiEET2_RT_T0_T1_S6_>:
100000eb8: d10183ff    	sub	sp, sp, #0x60
100000ebc: a9057bfd    	stp	x29, x30, [sp, #0x50]
100000ec0: 910143fd    	add	x29, sp, #0x50
100000ec4: f81f83a0    	stur	x0, [x29, #-0x8]
100000ec8: f81f03a1    	stur	x1, [x29, #-0x10]
100000ecc: f81e83a2    	stur	x2, [x29, #-0x18]
100000ed0: f81e03a3    	stur	x3, [x29, #-0x20]
100000ed4: f85f03a0    	ldur	x0, [x29, #-0x10]
100000ed8: f85e83a1    	ldur	x1, [x29, #-0x18]
100000edc: 94000033    	bl	0x100000fa8 <__ZNSt3__114__unwrap_rangeB8ne200100IPKiS2_EEDaT_T0_>
100000ee0: f90013e0    	str	x0, [sp, #0x20]
100000ee4: f90017e1    	str	x1, [sp, #0x28]
100000ee8: f85f83a8    	ldur	x8, [x29, #-0x8]
100000eec: f9000be8    	str	x8, [sp, #0x10]
100000ef0: f94013e8    	ldr	x8, [sp, #0x20]
100000ef4: f90003e8    	str	x8, [sp]
100000ef8: f94017e8    	ldr	x8, [sp, #0x28]
100000efc: f90007e8    	str	x8, [sp, #0x8]
100000f00: f85e03a0    	ldur	x0, [x29, #-0x20]
100000f04: 94000074    	bl	0x1000010d4 <__ZNSt3__113__unwrap_iterB8ne200100IPiNS_18__unwrap_iter_implIS1_Lb1EEELi0EEEDTclsrT0_8__unwrapclsr3stdE7declvalIT_EEEES5_>
100000f08: f94003e1    	ldr	x1, [sp]
100000f0c: f94007e2    	ldr	x2, [sp, #0x8]
100000f10: aa0003e3    	mov	x3, x0
100000f14: f9400be0    	ldr	x0, [sp, #0x10]
100000f18: 94000033    	bl	0x100000fe4 <__ZNSt3__135__uninitialized_allocator_copy_implB8ne200100INS_9allocatorIiEEPKiS4_PiEET2_RT_T0_T1_S6_>
100000f1c: f9000fe0    	str	x0, [sp, #0x18]
100000f20: f85e03a0    	ldur	x0, [x29, #-0x20]
100000f24: f9400fe1    	ldr	x1, [sp, #0x18]
100000f28: 94000074    	bl	0x1000010f8 <__ZNSt3__113__rewrap_iterB8ne200100IPiS1_NS_18__unwrap_iter_implIS1_Lb1EEEEET_S4_T0_>
100000f2c: a9457bfd    	ldp	x29, x30, [sp, #0x50]
100000f30: 910183ff    	add	sp, sp, #0x60
100000f34: d65f03c0    	ret

0000000100000f38 <__ZNSt3__16vectorIiNS_9allocatorIiEEE21_ConstructTransactionD1B8ne200100Ev>:
100000f38: d10083ff    	sub	sp, sp, #0x20
100000f3c: a9017bfd    	stp	x29, x30, [sp, #0x10]
100000f40: 910043fd    	add	x29, sp, #0x10
100000f44: f90007e0    	str	x0, [sp, #0x8]
100000f48: f94007e0    	ldr	x0, [sp, #0x8]
100000f4c: f90003e0    	str	x0, [sp]
100000f50: 94000211    	bl	0x100001794 <__ZNSt3__16vectorIiNS_9allocatorIiEEE21_ConstructTransactionD2B8ne200100Ev>
100000f54: f94003e0    	ldr	x0, [sp]
100000f58: a9417bfd    	ldp	x29, x30, [sp, #0x10]
100000f5c: 910083ff    	add	sp, sp, #0x20
100000f60: d65f03c0    	ret

0000000100000f64 <__ZNSt3__16vectorIiNS_9allocatorIiEEE21_ConstructTransactionC2B8ne200100ERS3_m>:
100000f64: d10083ff    	sub	sp, sp, #0x20
100000f68: f9000fe0    	str	x0, [sp, #0x18]
100000f6c: f9000be1    	str	x1, [sp, #0x10]
100000f70: f90007e2    	str	x2, [sp, #0x8]
100000f74: f9400fe0    	ldr	x0, [sp, #0x18]
100000f78: f9400be8    	ldr	x8, [sp, #0x10]
100000f7c: f9000008    	str	x8, [x0]
100000f80: f9400be8    	ldr	x8, [sp, #0x10]
100000f84: f9400508    	ldr	x8, [x8, #0x8]
100000f88: f9000408    	str	x8, [x0, #0x8]
100000f8c: f9400be8    	ldr	x8, [sp, #0x10]
100000f90: f9400508    	ldr	x8, [x8, #0x8]
100000f94: f94007e9    	ldr	x9, [sp, #0x8]
100000f98: 8b090908    	add	x8, x8, x9, lsl #2
100000f9c: f9000808    	str	x8, [x0, #0x10]
100000fa0: 910083ff    	add	sp, sp, #0x20
100000fa4: d65f03c0    	ret

0000000100000fa8 <__ZNSt3__114__unwrap_rangeB8ne200100IPKiS2_EEDaT_T0_>:
100000fa8: d100c3ff    	sub	sp, sp, #0x30
100000fac: a9027bfd    	stp	x29, x30, [sp, #0x20]
100000fb0: 910083fd    	add	x29, sp, #0x20
100000fb4: f90007e0    	str	x0, [sp, #0x8]
100000fb8: f90003e1    	str	x1, [sp]
100000fbc: f94007e0    	ldr	x0, [sp, #0x8]
100000fc0: f94003e1    	ldr	x1, [sp]
100000fc4: 9400005c    	bl	0x100001134 <__ZNSt3__119__unwrap_range_implIPKiS2_E8__unwrapB8ne200100ES2_S2_>
100000fc8: f9000be0    	str	x0, [sp, #0x10]
100000fcc: f9000fe1    	str	x1, [sp, #0x18]
100000fd0: f9400be0    	ldr	x0, [sp, #0x10]
100000fd4: f9400fe1    	ldr	x1, [sp, #0x18]
100000fd8: a9427bfd    	ldp	x29, x30, [sp, #0x20]
100000fdc: 9100c3ff    	add	sp, sp, #0x30
100000fe0: d65f03c0    	ret

0000000100000fe4 <__ZNSt3__135__uninitialized_allocator_copy_implB8ne200100INS_9allocatorIiEEPKiS4_PiEET2_RT_T0_T1_S6_>:
100000fe4: d10283ff    	sub	sp, sp, #0xa0
100000fe8: a9097bfd    	stp	x29, x30, [sp, #0x90]
100000fec: 910243fd    	add	x29, sp, #0x90
100000ff0: aa0303e8    	mov	x8, x3
100000ff4: f81f83a0    	stur	x0, [x29, #-0x8]
100000ff8: f81f03a1    	stur	x1, [x29, #-0x10]
100000ffc: f81e83a2    	stur	x2, [x29, #-0x18]
100001000: d10083a3    	sub	x3, x29, #0x20
100001004: f81e03a8    	stur	x8, [x29, #-0x20]
100001008: f85e03a8    	ldur	x8, [x29, #-0x20]
10000100c: d100a3a2    	sub	x2, x29, #0x28
100001010: f81d83a8    	stur	x8, [x29, #-0x28]
100001014: f85f83a1    	ldur	x1, [x29, #-0x8]
100001018: 9100c3e0    	add	x0, sp, #0x30
10000101c: f9000fe0    	str	x0, [sp, #0x18]
100001020: 940000a1    	bl	0x1000012a4 <__ZNSt3__129_AllocatorDestroyRangeReverseINS_9allocatorIiEEPiEC1B8ne200100ERS2_RS3_S6_>
100001024: f9400fe0    	ldr	x0, [sp, #0x18]
100001028: 910123e8    	add	x8, sp, #0x48
10000102c: 9400008b    	bl	0x100001258 <__ZNSt3__122__make_exception_guardB8ne200100INS_29_AllocatorDestroyRangeReverseINS_9allocatorIiEEPiEEEENS_28__exception_guard_exceptionsIT_EES7_>
100001030: 14000001    	b	0x100001034 <__ZNSt3__135__uninitialized_allocator_copy_implB8ne200100INS_9allocatorIiEEPKiS4_PiEET2_RT_T0_T1_S6_+0x50>
100001034: f85f03a8    	ldur	x8, [x29, #-0x10]
100001038: f85e83a9    	ldur	x9, [x29, #-0x18]
10000103c: eb090108    	subs	x8, x8, x9
100001040: 54000300    	b.eq	0x1000010a0 <__ZNSt3__135__uninitialized_allocator_copy_implB8ne200100INS_9allocatorIiEEPKiS4_PiEET2_RT_T0_T1_S6_+0xbc>
100001044: 14000001    	b	0x100001048 <__ZNSt3__135__uninitialized_allocator_copy_implB8ne200100INS_9allocatorIiEEPKiS4_PiEET2_RT_T0_T1_S6_+0x64>
100001048: f85f83a8    	ldur	x8, [x29, #-0x8]
10000104c: f9000be8    	str	x8, [sp, #0x10]
100001050: f85e03a0    	ldur	x0, [x29, #-0x20]
100001054: 940000b1    	bl	0x100001318 <__ZNSt3__112__to_addressB8ne200100IiEEPT_S2_>
100001058: aa0003e1    	mov	x1, x0
10000105c: f9400be0    	ldr	x0, [sp, #0x10]
100001060: f85f03a2    	ldur	x2, [x29, #-0x10]
100001064: 940002d7    	bl	0x100001bc0 <___stack_chk_guard+0x100001bc0>
100001068: 14000001    	b	0x10000106c <__ZNSt3__135__uninitialized_allocator_copy_implB8ne200100INS_9allocatorIiEEPKiS4_PiEET2_RT_T0_T1_S6_+0x88>
10000106c: f85f03a8    	ldur	x8, [x29, #-0x10]
100001070: 91001108    	add	x8, x8, #0x4
100001074: f81f03a8    	stur	x8, [x29, #-0x10]
100001078: f85e03a8    	ldur	x8, [x29, #-0x20]
10000107c: 91001108    	add	x8, x8, #0x4
100001080: f81e03a8    	stur	x8, [x29, #-0x20]
100001084: 17ffffec    	b	0x100001034 <__ZNSt3__135__uninitialized_allocator_copy_implB8ne200100INS_9allocatorIiEEPKiS4_PiEET2_RT_T0_T1_S6_+0x50>
100001088: f90017e0    	str	x0, [sp, #0x28]
10000108c: aa0103e8    	mov	x8, x1
100001090: b90027e8    	str	w8, [sp, #0x24]
100001094: 910123e0    	add	x0, sp, #0x48
100001098: 940000ac    	bl	0x100001348 <__ZNSt3__128__exception_guard_exceptionsINS_29_AllocatorDestroyRangeReverseINS_9allocatorIiEEPiEEED1B8ne200100Ev>
10000109c: 1400000c    	b	0x1000010cc <__ZNSt3__135__uninitialized_allocator_copy_implB8ne200100INS_9allocatorIiEEPKiS4_PiEET2_RT_T0_T1_S6_+0xe8>
1000010a0: 910123e0    	add	x0, sp, #0x48
1000010a4: f90003e0    	str	x0, [sp]
1000010a8: 940000a1    	bl	0x10000132c <__ZNSt3__128__exception_guard_exceptionsINS_29_AllocatorDestroyRangeReverseINS_9allocatorIiEEPiEEE10__completeB8ne200100Ev>
1000010ac: f94003e0    	ldr	x0, [sp]
1000010b0: f85e03a8    	ldur	x8, [x29, #-0x20]
1000010b4: f90007e8    	str	x8, [sp, #0x8]
1000010b8: 940000a4    	bl	0x100001348 <__ZNSt3__128__exception_guard_exceptionsINS_29_AllocatorDestroyRangeReverseINS_9allocatorIiEEPiEEED1B8ne200100Ev>
1000010bc: f94007e0    	ldr	x0, [sp, #0x8]
1000010c0: a9497bfd    	ldp	x29, x30, [sp, #0x90]
1000010c4: 910283ff    	add	sp, sp, #0xa0
1000010c8: d65f03c0    	ret
1000010cc: f94017e0    	ldr	x0, [sp, #0x28]
1000010d0: 9400029b    	bl	0x100001b3c <___stack_chk_guard+0x100001b3c>

00000001000010d4 <__ZNSt3__113__unwrap_iterB8ne200100IPiNS_18__unwrap_iter_implIS1_Lb1EEELi0EEEDTclsrT0_8__unwrapclsr3stdE7declvalIT_EEEES5_>:
1000010d4: d10083ff    	sub	sp, sp, #0x20
1000010d8: a9017bfd    	stp	x29, x30, [sp, #0x10]
1000010dc: 910043fd    	add	x29, sp, #0x10
1000010e0: f90007e0    	str	x0, [sp, #0x8]
1000010e4: f94007e0    	ldr	x0, [sp, #0x8]
1000010e8: 9400018e    	bl	0x100001720 <__ZNSt3__118__unwrap_iter_implIPiLb1EE8__unwrapB8ne200100ES1_>
1000010ec: a9417bfd    	ldp	x29, x30, [sp, #0x10]
1000010f0: 910083ff    	add	sp, sp, #0x20
1000010f4: d65f03c0    	ret

00000001000010f8 <__ZNSt3__113__rewrap_iterB8ne200100IPiS1_NS_18__unwrap_iter_implIS1_Lb1EEEEET_S4_T0_>:
1000010f8: d100c3ff    	sub	sp, sp, #0x30
1000010fc: a9027bfd    	stp	x29, x30, [sp, #0x20]
100001100: 910083fd    	add	x29, sp, #0x20
100001104: f81f83a0    	stur	x0, [x29, #-0x8]
100001108: f9000be1    	str	x1, [sp, #0x10]
10000110c: f85f83a0    	ldur	x0, [x29, #-0x8]
100001110: f9400be1    	ldr	x1, [sp, #0x10]
100001114: 9400018c    	bl	0x100001744 <__ZNSt3__118__unwrap_iter_implIPiLb1EE8__rewrapB8ne200100ES1_S1_>
100001118: f90007e0    	str	x0, [sp, #0x8]
10000111c: 14000001    	b	0x100001120 <__ZNSt3__113__rewrap_iterB8ne200100IPiS1_NS_18__unwrap_iter_implIS1_Lb1EEEEET_S4_T0_+0x28>
100001120: f94007e0    	ldr	x0, [sp, #0x8]
100001124: a9427bfd    	ldp	x29, x30, [sp, #0x20]
100001128: 9100c3ff    	add	sp, sp, #0x30
10000112c: d65f03c0    	ret
100001130: 97fffe97    	bl	0x100000b8c <___clang_call_terminate>

0000000100001134 <__ZNSt3__119__unwrap_range_implIPKiS2_E8__unwrapB8ne200100ES2_S2_>:
100001134: d10143ff    	sub	sp, sp, #0x50
100001138: a9047bfd    	stp	x29, x30, [sp, #0x40]
10000113c: 910103fd    	add	x29, sp, #0x40
100001140: f81e83a0    	stur	x0, [x29, #-0x18]
100001144: f90013e1    	str	x1, [sp, #0x20]
100001148: f85e83a0    	ldur	x0, [x29, #-0x18]
10000114c: 94000010    	bl	0x10000118c <__ZNSt3__113__unwrap_iterB8ne200100IPKiNS_18__unwrap_iter_implIS2_Lb1EEELi0EEEDTclsrT0_8__unwrapclsr3stdE7declvalIT_EEEES6_>
100001150: 910063e8    	add	x8, sp, #0x18
100001154: f90007e8    	str	x8, [sp, #0x8]
100001158: f9000fe0    	str	x0, [sp, #0x18]
10000115c: f94013e0    	ldr	x0, [sp, #0x20]
100001160: 9400000b    	bl	0x10000118c <__ZNSt3__113__unwrap_iterB8ne200100IPKiNS_18__unwrap_iter_implIS2_Lb1EEELi0EEEDTclsrT0_8__unwrapclsr3stdE7declvalIT_EEEES6_>
100001164: f94007e1    	ldr	x1, [sp, #0x8]
100001168: 910043e2    	add	x2, sp, #0x10
10000116c: f9000be0    	str	x0, [sp, #0x10]
100001170: d10043a0    	sub	x0, x29, #0x10
100001174: 9400000f    	bl	0x1000011b0 <__ZNSt3__14pairIPKiS2_EC1B8ne200100IS2_S2_Li0EEEOT_OT0_>
100001178: f85f03a0    	ldur	x0, [x29, #-0x10]
10000117c: f85f83a1    	ldur	x1, [x29, #-0x8]
100001180: a9447bfd    	ldp	x29, x30, [sp, #0x40]
100001184: 910143ff    	add	sp, sp, #0x50
100001188: d65f03c0    	ret

000000010000118c <__ZNSt3__113__unwrap_iterB8ne200100IPKiNS_18__unwrap_iter_implIS2_Lb1EEELi0EEEDTclsrT0_8__unwrapclsr3stdE7declvalIT_EEEES6_>:
10000118c: d10083ff    	sub	sp, sp, #0x20
100001190: a9017bfd    	stp	x29, x30, [sp, #0x10]
100001194: 910043fd    	add	x29, sp, #0x10
100001198: f90007e0    	str	x0, [sp, #0x8]
10000119c: f94007e0    	ldr	x0, [sp, #0x8]
1000011a0: 94000013    	bl	0x1000011ec <__ZNSt3__118__unwrap_iter_implIPKiLb1EE8__unwrapB8ne200100ES2_>
1000011a4: a9417bfd    	ldp	x29, x30, [sp, #0x10]
1000011a8: 910083ff    	add	sp, sp, #0x20
1000011ac: d65f03c0    	ret

00000001000011b0 <__ZNSt3__14pairIPKiS2_EC1B8ne200100IS2_S2_Li0EEEOT_OT0_>:
1000011b0: d100c3ff    	sub	sp, sp, #0x30
1000011b4: a9027bfd    	stp	x29, x30, [sp, #0x20]
1000011b8: 910083fd    	add	x29, sp, #0x20
1000011bc: f81f83a0    	stur	x0, [x29, #-0x8]
1000011c0: f9000be1    	str	x1, [sp, #0x10]
1000011c4: f90007e2    	str	x2, [sp, #0x8]
1000011c8: f85f83a0    	ldur	x0, [x29, #-0x8]
1000011cc: f90003e0    	str	x0, [sp]
1000011d0: f9400be1    	ldr	x1, [sp, #0x10]
1000011d4: f94007e2    	ldr	x2, [sp, #0x8]
1000011d8: 94000013    	bl	0x100001224 <__ZNSt3__14pairIPKiS2_EC2B8ne200100IS2_S2_Li0EEEOT_OT0_>
1000011dc: f94003e0    	ldr	x0, [sp]
1000011e0: a9427bfd    	ldp	x29, x30, [sp, #0x20]
1000011e4: 9100c3ff    	add	sp, sp, #0x30
1000011e8: d65f03c0    	ret

00000001000011ec <__ZNSt3__118__unwrap_iter_implIPKiLb1EE8__unwrapB8ne200100ES2_>:
1000011ec: d10083ff    	sub	sp, sp, #0x20
1000011f0: a9017bfd    	stp	x29, x30, [sp, #0x10]
1000011f4: 910043fd    	add	x29, sp, #0x10
1000011f8: f90007e0    	str	x0, [sp, #0x8]
1000011fc: f94007e0    	ldr	x0, [sp, #0x8]
100001200: 94000004    	bl	0x100001210 <__ZNSt3__112__to_addressB8ne200100IKiEEPT_S3_>
100001204: a9417bfd    	ldp	x29, x30, [sp, #0x10]
100001208: 910083ff    	add	sp, sp, #0x20
10000120c: d65f03c0    	ret

0000000100001210 <__ZNSt3__112__to_addressB8ne200100IKiEEPT_S3_>:
100001210: d10043ff    	sub	sp, sp, #0x10
100001214: f90007e0    	str	x0, [sp, #0x8]
100001218: f94007e0    	ldr	x0, [sp, #0x8]
10000121c: 910043ff    	add	sp, sp, #0x10
100001220: d65f03c0    	ret

0000000100001224 <__ZNSt3__14pairIPKiS2_EC2B8ne200100IS2_S2_Li0EEEOT_OT0_>:
100001224: d10083ff    	sub	sp, sp, #0x20
100001228: f9000fe0    	str	x0, [sp, #0x18]
10000122c: f9000be1    	str	x1, [sp, #0x10]
100001230: f90007e2    	str	x2, [sp, #0x8]
100001234: f9400fe0    	ldr	x0, [sp, #0x18]
100001238: f9400be8    	ldr	x8, [sp, #0x10]
10000123c: f9400108    	ldr	x8, [x8]
100001240: f9000008    	str	x8, [x0]
100001244: f94007e8    	ldr	x8, [sp, #0x8]
100001248: f9400108    	ldr	x8, [x8]
10000124c: f9000408    	str	x8, [x0, #0x8]
100001250: 910083ff    	add	sp, sp, #0x20
100001254: d65f03c0    	ret

0000000100001258 <__ZNSt3__122__make_exception_guardB8ne200100INS_29_AllocatorDestroyRangeReverseINS_9allocatorIiEEPiEEEENS_28__exception_guard_exceptionsIT_EES7_>:
100001258: d10143ff    	sub	sp, sp, #0x50
10000125c: a9047bfd    	stp	x29, x30, [sp, #0x40]
100001260: 910103fd    	add	x29, sp, #0x40
100001264: f90007e8    	str	x8, [sp, #0x8]
100001268: aa0003e8    	mov	x8, x0
10000126c: f94007e0    	ldr	x0, [sp, #0x8]
100001270: aa0003e9    	mov	x9, x0
100001274: f81f83a9    	stur	x9, [x29, #-0x8]
100001278: aa0803e9    	mov	x9, x8
10000127c: f81f03a9    	stur	x9, [x29, #-0x10]
100001280: 3dc00100    	ldr	q0, [x8]
100001284: 910043e1    	add	x1, sp, #0x10
100001288: 3d8007e0    	str	q0, [sp, #0x10]
10000128c: f9400908    	ldr	x8, [x8, #0x10]
100001290: f90013e8    	str	x8, [sp, #0x20]
100001294: 94000038    	bl	0x100001374 <__ZNSt3__128__exception_guard_exceptionsINS_29_AllocatorDestroyRangeReverseINS_9allocatorIiEEPiEEEC1B8ne200100ES5_>
100001298: a9447bfd    	ldp	x29, x30, [sp, #0x40]
10000129c: 910143ff    	add	sp, sp, #0x50
1000012a0: d65f03c0    	ret

00000001000012a4 <__ZNSt3__129_AllocatorDestroyRangeReverseINS_9allocatorIiEEPiEC1B8ne200100ERS2_RS3_S6_>:
1000012a4: d10103ff    	sub	sp, sp, #0x40
1000012a8: a9037bfd    	stp	x29, x30, [sp, #0x30]
1000012ac: 9100c3fd    	add	x29, sp, #0x30
1000012b0: f81f83a0    	stur	x0, [x29, #-0x8]
1000012b4: f81f03a1    	stur	x1, [x29, #-0x10]
1000012b8: f9000fe2    	str	x2, [sp, #0x18]
1000012bc: f9000be3    	str	x3, [sp, #0x10]
1000012c0: f85f83a0    	ldur	x0, [x29, #-0x8]
1000012c4: f90007e0    	str	x0, [sp, #0x8]
1000012c8: f85f03a1    	ldur	x1, [x29, #-0x10]
1000012cc: f9400fe2    	ldr	x2, [sp, #0x18]
1000012d0: f9400be3    	ldr	x3, [sp, #0x10]
1000012d4: 94000041    	bl	0x1000013d8 <__ZNSt3__129_AllocatorDestroyRangeReverseINS_9allocatorIiEEPiEC2B8ne200100ERS2_RS3_S6_>
1000012d8: f94007e0    	ldr	x0, [sp, #0x8]
1000012dc: a9437bfd    	ldp	x29, x30, [sp, #0x30]
1000012e0: 910103ff    	add	sp, sp, #0x40
1000012e4: d65f03c0    	ret

00000001000012e8 <__ZNSt3__116allocator_traitsINS_9allocatorIiEEE9constructB8ne200100IiJRKiEvLi0EEEvRS2_PT_DpOT0_>:
1000012e8: d100c3ff    	sub	sp, sp, #0x30
1000012ec: a9027bfd    	stp	x29, x30, [sp, #0x20]
1000012f0: 910083fd    	add	x29, sp, #0x20
1000012f4: f81f83a0    	stur	x0, [x29, #-0x8]
1000012f8: f9000be1    	str	x1, [sp, #0x10]
1000012fc: f90007e2    	str	x2, [sp, #0x8]
100001300: f9400be0    	ldr	x0, [sp, #0x10]
100001304: f94007e1    	ldr	x1, [sp, #0x8]
100001308: 94000042    	bl	0x100001410 <__ZNSt3__114__construct_atB8ne200100IiJRKiEPiEEPT_S5_DpOT0_>
10000130c: a9427bfd    	ldp	x29, x30, [sp, #0x20]
100001310: 9100c3ff    	add	sp, sp, #0x30
100001314: d65f03c0    	ret

0000000100001318 <__ZNSt3__112__to_addressB8ne200100IiEEPT_S2_>:
100001318: d10043ff    	sub	sp, sp, #0x10
10000131c: f90007e0    	str	x0, [sp, #0x8]
100001320: f94007e0    	ldr	x0, [sp, #0x8]
100001324: 910043ff    	add	sp, sp, #0x10
100001328: d65f03c0    	ret

000000010000132c <__ZNSt3__128__exception_guard_exceptionsINS_29_AllocatorDestroyRangeReverseINS_9allocatorIiEEPiEEE10__completeB8ne200100Ev>:
10000132c: d10043ff    	sub	sp, sp, #0x10
100001330: f90007e0    	str	x0, [sp, #0x8]
100001334: f94007e9    	ldr	x9, [sp, #0x8]
100001338: 52800028    	mov	w8, #0x1                ; =1
10000133c: 39006128    	strb	w8, [x9, #0x18]
100001340: 910043ff    	add	sp, sp, #0x10
100001344: d65f03c0    	ret

0000000100001348 <__ZNSt3__128__exception_guard_exceptionsINS_29_AllocatorDestroyRangeReverseINS_9allocatorIiEEPiEEED1B8ne200100Ev>:
100001348: d10083ff    	sub	sp, sp, #0x20
10000134c: a9017bfd    	stp	x29, x30, [sp, #0x10]
100001350: 910043fd    	add	x29, sp, #0x10
100001354: f90007e0    	str	x0, [sp, #0x8]
100001358: f94007e0    	ldr	x0, [sp, #0x8]
10000135c: f90003e0    	str	x0, [sp]
100001360: 94000040    	bl	0x100001460 <__ZNSt3__128__exception_guard_exceptionsINS_29_AllocatorDestroyRangeReverseINS_9allocatorIiEEPiEEED2B8ne200100Ev>
100001364: f94003e0    	ldr	x0, [sp]
100001368: a9417bfd    	ldp	x29, x30, [sp, #0x10]
10000136c: 910083ff    	add	sp, sp, #0x20
100001370: d65f03c0    	ret

0000000100001374 <__ZNSt3__128__exception_guard_exceptionsINS_29_AllocatorDestroyRangeReverseINS_9allocatorIiEEPiEEEC1B8ne200100ES5_>:
100001374: d100c3ff    	sub	sp, sp, #0x30
100001378: a9027bfd    	stp	x29, x30, [sp, #0x20]
10000137c: 910083fd    	add	x29, sp, #0x20
100001380: f81f83a0    	stur	x0, [x29, #-0x8]
100001384: aa0103e8    	mov	x8, x1
100001388: f9000be8    	str	x8, [sp, #0x10]
10000138c: f85f83a0    	ldur	x0, [x29, #-0x8]
100001390: f90007e0    	str	x0, [sp, #0x8]
100001394: 94000005    	bl	0x1000013a8 <__ZNSt3__128__exception_guard_exceptionsINS_29_AllocatorDestroyRangeReverseINS_9allocatorIiEEPiEEEC2B8ne200100ES5_>
100001398: f94007e0    	ldr	x0, [sp, #0x8]
10000139c: a9427bfd    	ldp	x29, x30, [sp, #0x20]
1000013a0: 9100c3ff    	add	sp, sp, #0x30
1000013a4: d65f03c0    	ret

00000001000013a8 <__ZNSt3__128__exception_guard_exceptionsINS_29_AllocatorDestroyRangeReverseINS_9allocatorIiEEPiEEEC2B8ne200100ES5_>:
1000013a8: d10043ff    	sub	sp, sp, #0x10
1000013ac: f90007e0    	str	x0, [sp, #0x8]
1000013b0: aa0103e8    	mov	x8, x1
1000013b4: f90003e8    	str	x8, [sp]
1000013b8: f94007e0    	ldr	x0, [sp, #0x8]
1000013bc: 3dc00020    	ldr	q0, [x1]
1000013c0: 3d800000    	str	q0, [x0]
1000013c4: f9400828    	ldr	x8, [x1, #0x10]
1000013c8: f9000808    	str	x8, [x0, #0x10]
1000013cc: 3900601f    	strb	wzr, [x0, #0x18]
1000013d0: 910043ff    	add	sp, sp, #0x10
1000013d4: d65f03c0    	ret

00000001000013d8 <__ZNSt3__129_AllocatorDestroyRangeReverseINS_9allocatorIiEEPiEC2B8ne200100ERS2_RS3_S6_>:
1000013d8: d10083ff    	sub	sp, sp, #0x20
1000013dc: f9000fe0    	str	x0, [sp, #0x18]
1000013e0: f9000be1    	str	x1, [sp, #0x10]
1000013e4: f90007e2    	str	x2, [sp, #0x8]
1000013e8: f90003e3    	str	x3, [sp]
1000013ec: f9400fe0    	ldr	x0, [sp, #0x18]
1000013f0: f9400be8    	ldr	x8, [sp, #0x10]
1000013f4: f9000008    	str	x8, [x0]
1000013f8: f94007e8    	ldr	x8, [sp, #0x8]
1000013fc: f9000408    	str	x8, [x0, #0x8]
100001400: f94003e8    	ldr	x8, [sp]
100001404: f9000808    	str	x8, [x0, #0x10]
100001408: 910083ff    	add	sp, sp, #0x20
10000140c: d65f03c0    	ret

0000000100001410 <__ZNSt3__114__construct_atB8ne200100IiJRKiEPiEEPT_S5_DpOT0_>:
100001410: d10083ff    	sub	sp, sp, #0x20
100001414: a9017bfd    	stp	x29, x30, [sp, #0x10]
100001418: 910043fd    	add	x29, sp, #0x10
10000141c: f90007e0    	str	x0, [sp, #0x8]
100001420: f90003e1    	str	x1, [sp]
100001424: f94007e0    	ldr	x0, [sp, #0x8]
100001428: f94003e1    	ldr	x1, [sp]
10000142c: 94000004    	bl	0x10000143c <__ZNSt3__112construct_atB8ne200100IiJRKiEPiEEPT_S5_DpOT0_>
100001430: a9417bfd    	ldp	x29, x30, [sp, #0x10]
100001434: 910083ff    	add	sp, sp, #0x20
100001438: d65f03c0    	ret

000000010000143c <__ZNSt3__112construct_atB8ne200100IiJRKiEPiEEPT_S5_DpOT0_>:
10000143c: d10043ff    	sub	sp, sp, #0x10
100001440: f90007e0    	str	x0, [sp, #0x8]
100001444: f90003e1    	str	x1, [sp]
100001448: f94007e0    	ldr	x0, [sp, #0x8]
10000144c: f94003e8    	ldr	x8, [sp]
100001450: b9400108    	ldr	w8, [x8]
100001454: b9000008    	str	w8, [x0]
100001458: 910043ff    	add	sp, sp, #0x10
10000145c: d65f03c0    	ret

0000000100001460 <__ZNSt3__128__exception_guard_exceptionsINS_29_AllocatorDestroyRangeReverseINS_9allocatorIiEEPiEEED2B8ne200100Ev>:
100001460: d100c3ff    	sub	sp, sp, #0x30
100001464: a9027bfd    	stp	x29, x30, [sp, #0x20]
100001468: 910083fd    	add	x29, sp, #0x20
10000146c: f9000be0    	str	x0, [sp, #0x10]
100001470: f9400be8    	ldr	x8, [sp, #0x10]
100001474: f90007e8    	str	x8, [sp, #0x8]
100001478: aa0803e9    	mov	x9, x8
10000147c: f81f83a9    	stur	x9, [x29, #-0x8]
100001480: 39406108    	ldrb	w8, [x8, #0x18]
100001484: 370000c8    	tbnz	w8, #0x0, 0x10000149c <__ZNSt3__128__exception_guard_exceptionsINS_29_AllocatorDestroyRangeReverseINS_9allocatorIiEEPiEEED2B8ne200100Ev+0x3c>
100001488: 14000001    	b	0x10000148c <__ZNSt3__128__exception_guard_exceptionsINS_29_AllocatorDestroyRangeReverseINS_9allocatorIiEEPiEEED2B8ne200100Ev+0x2c>
10000148c: f94007e0    	ldr	x0, [sp, #0x8]
100001490: 94000008    	bl	0x1000014b0 <__ZNKSt3__129_AllocatorDestroyRangeReverseINS_9allocatorIiEEPiEclB8ne200100Ev>
100001494: 14000001    	b	0x100001498 <__ZNSt3__128__exception_guard_exceptionsINS_29_AllocatorDestroyRangeReverseINS_9allocatorIiEEPiEEED2B8ne200100Ev+0x38>
100001498: 14000001    	b	0x10000149c <__ZNSt3__128__exception_guard_exceptionsINS_29_AllocatorDestroyRangeReverseINS_9allocatorIiEEPiEEED2B8ne200100Ev+0x3c>
10000149c: f85f83a0    	ldur	x0, [x29, #-0x8]
1000014a0: a9427bfd    	ldp	x29, x30, [sp, #0x20]
1000014a4: 9100c3ff    	add	sp, sp, #0x30
1000014a8: d65f03c0    	ret
1000014ac: 97fffdb8    	bl	0x100000b8c <___clang_call_terminate>

00000001000014b0 <__ZNKSt3__129_AllocatorDestroyRangeReverseINS_9allocatorIiEEPiEclB8ne200100Ev>:
1000014b0: d10143ff    	sub	sp, sp, #0x50
1000014b4: a9047bfd    	stp	x29, x30, [sp, #0x40]
1000014b8: 910103fd    	add	x29, sp, #0x40
1000014bc: f81f83a0    	stur	x0, [x29, #-0x8]
1000014c0: f85f83a8    	ldur	x8, [x29, #-0x8]
1000014c4: f90007e8    	str	x8, [sp, #0x8]
1000014c8: f9400109    	ldr	x9, [x8]
1000014cc: f9000be9    	str	x9, [sp, #0x10]
1000014d0: f9400908    	ldr	x8, [x8, #0x10]
1000014d4: f9400101    	ldr	x1, [x8]
1000014d8: d10063a0    	sub	x0, x29, #0x18
1000014dc: 9400002b    	bl	0x100001588 <__ZNSt3__116reverse_iteratorIPiEC1B8ne200100ES1_>
1000014e0: f94007e8    	ldr	x8, [sp, #0x8]
1000014e4: f9400508    	ldr	x8, [x8, #0x8]
1000014e8: f9400101    	ldr	x1, [x8]
1000014ec: 910063e0    	add	x0, sp, #0x18
1000014f0: 94000026    	bl	0x100001588 <__ZNSt3__116reverse_iteratorIPiEC1B8ne200100ES1_>
1000014f4: f9400be0    	ldr	x0, [sp, #0x10]
1000014f8: f85e83a1    	ldur	x1, [x29, #-0x18]
1000014fc: f85f03a2    	ldur	x2, [x29, #-0x10]
100001500: f9400fe3    	ldr	x3, [sp, #0x18]
100001504: f94013e4    	ldr	x4, [sp, #0x20]
100001508: 94000004    	bl	0x100001518 <__ZNSt3__119__allocator_destroyB8ne200100INS_9allocatorIiEENS_16reverse_iteratorIPiEES5_EEvRT_T0_T1_>
10000150c: a9447bfd    	ldp	x29, x30, [sp, #0x40]
100001510: 910143ff    	add	sp, sp, #0x50
100001514: d65f03c0    	ret

0000000100001518 <__ZNSt3__119__allocator_destroyB8ne200100INS_9allocatorIiEENS_16reverse_iteratorIPiEES5_EEvRT_T0_T1_>:
100001518: d10103ff    	sub	sp, sp, #0x40
10000151c: a9037bfd    	stp	x29, x30, [sp, #0x30]
100001520: 9100c3fd    	add	x29, sp, #0x30
100001524: f81f03a1    	stur	x1, [x29, #-0x10]
100001528: f81f83a2    	stur	x2, [x29, #-0x8]
10000152c: f9000be3    	str	x3, [sp, #0x10]
100001530: f9000fe4    	str	x4, [sp, #0x18]
100001534: f90007e0    	str	x0, [sp, #0x8]
100001538: 14000001    	b	0x10000153c <__ZNSt3__119__allocator_destroyB8ne200100INS_9allocatorIiEENS_16reverse_iteratorIPiEES5_EEvRT_T0_T1_+0x24>
10000153c: d10043a0    	sub	x0, x29, #0x10
100001540: 910043e1    	add	x1, sp, #0x10
100001544: 9400001e    	bl	0x1000015bc <__ZNSt3__1neB8ne200100IPiS1_EEbRKNS_16reverse_iteratorIT_EERKNS2_IT0_EE>
100001548: 360001a0    	tbz	w0, #0x0, 0x10000157c <__ZNSt3__119__allocator_destroyB8ne200100INS_9allocatorIiEENS_16reverse_iteratorIPiEES5_EEvRT_T0_T1_+0x64>
10000154c: 14000001    	b	0x100001550 <__ZNSt3__119__allocator_destroyB8ne200100INS_9allocatorIiEENS_16reverse_iteratorIPiEES5_EEvRT_T0_T1_+0x38>
100001550: f94007e8    	ldr	x8, [sp, #0x8]
100001554: f90003e8    	str	x8, [sp]
100001558: d10043a0    	sub	x0, x29, #0x10
10000155c: 94000033    	bl	0x100001628 <__ZNSt3__112__to_addressB8ne200100INS_16reverse_iteratorIPiEELi0EEEu7__decayIDTclsr19__to_address_helperIT_EE6__callclsr3stdE7declvalIRKS4_EEEEES6_>
100001560: aa0003e1    	mov	x1, x0
100001564: f94003e0    	ldr	x0, [sp]
100001568: 94000199    	bl	0x100001bcc <___stack_chk_guard+0x100001bcc>
10000156c: 14000001    	b	0x100001570 <__ZNSt3__119__allocator_destroyB8ne200100INS_9allocatorIiEENS_16reverse_iteratorIPiEES5_EEvRT_T0_T1_+0x58>
100001570: d10043a0    	sub	x0, x29, #0x10
100001574: 94000036    	bl	0x10000164c <__ZNSt3__116reverse_iteratorIPiEppB8ne200100Ev>
100001578: 17fffff1    	b	0x10000153c <__ZNSt3__119__allocator_destroyB8ne200100INS_9allocatorIiEENS_16reverse_iteratorIPiEES5_EEvRT_T0_T1_+0x24>
10000157c: a9437bfd    	ldp	x29, x30, [sp, #0x30]
100001580: 910103ff    	add	sp, sp, #0x40
100001584: d65f03c0    	ret

0000000100001588 <__ZNSt3__116reverse_iteratorIPiEC1B8ne200100ES1_>:
100001588: d100c3ff    	sub	sp, sp, #0x30
10000158c: a9027bfd    	stp	x29, x30, [sp, #0x20]
100001590: 910083fd    	add	x29, sp, #0x20
100001594: f81f83a0    	stur	x0, [x29, #-0x8]
100001598: f9000be1    	str	x1, [sp, #0x10]
10000159c: f85f83a0    	ldur	x0, [x29, #-0x8]
1000015a0: f90007e0    	str	x0, [sp, #0x8]
1000015a4: f9400be1    	ldr	x1, [sp, #0x10]
1000015a8: 94000054    	bl	0x1000016f8 <__ZNSt3__116reverse_iteratorIPiEC2B8ne200100ES1_>
1000015ac: f94007e0    	ldr	x0, [sp, #0x8]
1000015b0: a9427bfd    	ldp	x29, x30, [sp, #0x20]
1000015b4: 9100c3ff    	add	sp, sp, #0x30
1000015b8: d65f03c0    	ret

00000001000015bc <__ZNSt3__1neB8ne200100IPiS1_EEbRKNS_16reverse_iteratorIT_EERKNS2_IT0_EE>:
1000015bc: d100c3ff    	sub	sp, sp, #0x30
1000015c0: a9027bfd    	stp	x29, x30, [sp, #0x20]
1000015c4: 910083fd    	add	x29, sp, #0x20
1000015c8: f81f83a0    	stur	x0, [x29, #-0x8]
1000015cc: f9000be1    	str	x1, [sp, #0x10]
1000015d0: f85f83a0    	ldur	x0, [x29, #-0x8]
1000015d4: 94000026    	bl	0x10000166c <__ZNKSt3__116reverse_iteratorIPiE4baseB8ne200100Ev>
1000015d8: f90007e0    	str	x0, [sp, #0x8]
1000015dc: f9400be0    	ldr	x0, [sp, #0x10]
1000015e0: 94000023    	bl	0x10000166c <__ZNKSt3__116reverse_iteratorIPiE4baseB8ne200100Ev>
1000015e4: aa0003e8    	mov	x8, x0
1000015e8: f94007e0    	ldr	x0, [sp, #0x8]
1000015ec: eb080008    	subs	x8, x0, x8
1000015f0: 1a9f07e0    	cset	w0, ne
1000015f4: a9427bfd    	ldp	x29, x30, [sp, #0x20]
1000015f8: 9100c3ff    	add	sp, sp, #0x30
1000015fc: d65f03c0    	ret

0000000100001600 <__ZNSt3__116allocator_traitsINS_9allocatorIiEEE7destroyB8ne200100IivLi0EEEvRS2_PT_>:
100001600: d10083ff    	sub	sp, sp, #0x20
100001604: a9017bfd    	stp	x29, x30, [sp, #0x10]
100001608: 910043fd    	add	x29, sp, #0x10
10000160c: f90007e0    	str	x0, [sp, #0x8]
100001610: f90003e1    	str	x1, [sp]
100001614: f94003e0    	ldr	x0, [sp]
100001618: 9400001b    	bl	0x100001684 <__ZNSt3__112__destroy_atB8ne200100IiLi0EEEvPT_>
10000161c: a9417bfd    	ldp	x29, x30, [sp, #0x10]
100001620: 910083ff    	add	sp, sp, #0x20
100001624: d65f03c0    	ret

0000000100001628 <__ZNSt3__112__to_addressB8ne200100INS_16reverse_iteratorIPiEELi0EEEu7__decayIDTclsr19__to_address_helperIT_EE6__callclsr3stdE7declvalIRKS4_EEEEES6_>:
100001628: d10083ff    	sub	sp, sp, #0x20
10000162c: a9017bfd    	stp	x29, x30, [sp, #0x10]
100001630: 910043fd    	add	x29, sp, #0x10
100001634: f90007e0    	str	x0, [sp, #0x8]
100001638: f94007e0    	ldr	x0, [sp, #0x8]
10000163c: 94000016    	bl	0x100001694 <__ZNSt3__119__to_address_helperINS_16reverse_iteratorIPiEEvE6__callB8ne200100ERKS3_>
100001640: a9417bfd    	ldp	x29, x30, [sp, #0x10]
100001644: 910083ff    	add	sp, sp, #0x20
100001648: d65f03c0    	ret

000000010000164c <__ZNSt3__116reverse_iteratorIPiEppB8ne200100Ev>:
10000164c: d10043ff    	sub	sp, sp, #0x10
100001650: f90007e0    	str	x0, [sp, #0x8]
100001654: f94007e0    	ldr	x0, [sp, #0x8]
100001658: f9400408    	ldr	x8, [x0, #0x8]
10000165c: f1001108    	subs	x8, x8, #0x4
100001660: f9000408    	str	x8, [x0, #0x8]
100001664: 910043ff    	add	sp, sp, #0x10
100001668: d65f03c0    	ret

000000010000166c <__ZNKSt3__116reverse_iteratorIPiE4baseB8ne200100Ev>:
10000166c: d10043ff    	sub	sp, sp, #0x10
100001670: f90007e0    	str	x0, [sp, #0x8]
100001674: f94007e8    	ldr	x8, [sp, #0x8]
100001678: f9400500    	ldr	x0, [x8, #0x8]
10000167c: 910043ff    	add	sp, sp, #0x10
100001680: d65f03c0    	ret

0000000100001684 <__ZNSt3__112__destroy_atB8ne200100IiLi0EEEvPT_>:
100001684: d10043ff    	sub	sp, sp, #0x10
100001688: f90007e0    	str	x0, [sp, #0x8]
10000168c: 910043ff    	add	sp, sp, #0x10
100001690: d65f03c0    	ret

0000000100001694 <__ZNSt3__119__to_address_helperINS_16reverse_iteratorIPiEEvE6__callB8ne200100ERKS3_>:
100001694: d10083ff    	sub	sp, sp, #0x20
100001698: a9017bfd    	stp	x29, x30, [sp, #0x10]
10000169c: 910043fd    	add	x29, sp, #0x10
1000016a0: f90007e0    	str	x0, [sp, #0x8]
1000016a4: f94007e0    	ldr	x0, [sp, #0x8]
1000016a8: 94000009    	bl	0x1000016cc <__ZNKSt3__116reverse_iteratorIPiEptB8ne200100Ev>
1000016ac: f90003e0    	str	x0, [sp]
1000016b0: 14000001    	b	0x1000016b4 <__ZNSt3__119__to_address_helperINS_16reverse_iteratorIPiEEvE6__callB8ne200100ERKS3_+0x20>
1000016b4: f94003e0    	ldr	x0, [sp]
1000016b8: 97ffff18    	bl	0x100001318 <__ZNSt3__112__to_addressB8ne200100IiEEPT_S2_>
1000016bc: a9417bfd    	ldp	x29, x30, [sp, #0x10]
1000016c0: 910083ff    	add	sp, sp, #0x20
1000016c4: d65f03c0    	ret
1000016c8: 97fffd31    	bl	0x100000b8c <___clang_call_terminate>

00000001000016cc <__ZNKSt3__116reverse_iteratorIPiEptB8ne200100Ev>:
1000016cc: d10043ff    	sub	sp, sp, #0x10
1000016d0: f90007e0    	str	x0, [sp, #0x8]
1000016d4: f94007e8    	ldr	x8, [sp, #0x8]
1000016d8: f9400508    	ldr	x8, [x8, #0x8]
1000016dc: f90003e8    	str	x8, [sp]
1000016e0: f94003e8    	ldr	x8, [sp]
1000016e4: f1001108    	subs	x8, x8, #0x4
1000016e8: f90003e8    	str	x8, [sp]
1000016ec: f94003e0    	ldr	x0, [sp]
1000016f0: 910043ff    	add	sp, sp, #0x10
1000016f4: d65f03c0    	ret

00000001000016f8 <__ZNSt3__116reverse_iteratorIPiEC2B8ne200100ES1_>:
1000016f8: d10043ff    	sub	sp, sp, #0x10
1000016fc: f90007e0    	str	x0, [sp, #0x8]
100001700: f90003e1    	str	x1, [sp]
100001704: f94007e0    	ldr	x0, [sp, #0x8]
100001708: f94003e8    	ldr	x8, [sp]
10000170c: f9000008    	str	x8, [x0]
100001710: f94003e8    	ldr	x8, [sp]
100001714: f9000408    	str	x8, [x0, #0x8]
100001718: 910043ff    	add	sp, sp, #0x10
10000171c: d65f03c0    	ret

0000000100001720 <__ZNSt3__118__unwrap_iter_implIPiLb1EE8__unwrapB8ne200100ES1_>:
100001720: d10083ff    	sub	sp, sp, #0x20
100001724: a9017bfd    	stp	x29, x30, [sp, #0x10]
100001728: 910043fd    	add	x29, sp, #0x10
10000172c: f90007e0    	str	x0, [sp, #0x8]
100001730: f94007e0    	ldr	x0, [sp, #0x8]
100001734: 97fffef9    	bl	0x100001318 <__ZNSt3__112__to_addressB8ne200100IiEEPT_S2_>
100001738: a9417bfd    	ldp	x29, x30, [sp, #0x10]
10000173c: 910083ff    	add	sp, sp, #0x20
100001740: d65f03c0    	ret

0000000100001744 <__ZNSt3__118__unwrap_iter_implIPiLb1EE8__rewrapB8ne200100ES1_S1_>:
100001744: d100c3ff    	sub	sp, sp, #0x30
100001748: a9027bfd    	stp	x29, x30, [sp, #0x20]
10000174c: 910083fd    	add	x29, sp, #0x20
100001750: f81f83a0    	stur	x0, [x29, #-0x8]
100001754: f9000be1    	str	x1, [sp, #0x10]
100001758: f85f83a8    	ldur	x8, [x29, #-0x8]
10000175c: f90007e8    	str	x8, [sp, #0x8]
100001760: f9400be8    	ldr	x8, [sp, #0x10]
100001764: f90003e8    	str	x8, [sp]
100001768: f85f83a0    	ldur	x0, [x29, #-0x8]
10000176c: 97fffeeb    	bl	0x100001318 <__ZNSt3__112__to_addressB8ne200100IiEEPT_S2_>
100001770: f94003e9    	ldr	x9, [sp]
100001774: f94007e8    	ldr	x8, [sp, #0x8]
100001778: eb000129    	subs	x9, x9, x0
10000177c: d280008a    	mov	x10, #0x4               ; =4
100001780: 9aca0d29    	sdiv	x9, x9, x10
100001784: 8b090900    	add	x0, x8, x9, lsl #2
100001788: a9427bfd    	ldp	x29, x30, [sp, #0x20]
10000178c: 9100c3ff    	add	sp, sp, #0x30
100001790: d65f03c0    	ret

0000000100001794 <__ZNSt3__16vectorIiNS_9allocatorIiEEE21_ConstructTransactionD2B8ne200100Ev>:
100001794: d10043ff    	sub	sp, sp, #0x10
100001798: f90007e0    	str	x0, [sp, #0x8]
10000179c: f94007e0    	ldr	x0, [sp, #0x8]
1000017a0: f9400408    	ldr	x8, [x0, #0x8]
1000017a4: f9400009    	ldr	x9, [x0]
1000017a8: f9000528    	str	x8, [x9, #0x8]
1000017ac: 910043ff    	add	sp, sp, #0x10
1000017b0: d65f03c0    	ret

00000001000017b4 <__ZNSt3__128__exception_guard_exceptionsINS_6vectorIiNS_9allocatorIiEEE16__destroy_vectorEED2B8ne200100Ev>:
1000017b4: d100c3ff    	sub	sp, sp, #0x30
1000017b8: a9027bfd    	stp	x29, x30, [sp, #0x20]
1000017bc: 910083fd    	add	x29, sp, #0x20
1000017c0: f9000be0    	str	x0, [sp, #0x10]
1000017c4: f9400be8    	ldr	x8, [sp, #0x10]
1000017c8: f90007e8    	str	x8, [sp, #0x8]
1000017cc: aa0803e9    	mov	x9, x8
1000017d0: f81f83a9    	stur	x9, [x29, #-0x8]
1000017d4: 39402108    	ldrb	w8, [x8, #0x8]
1000017d8: 370000c8    	tbnz	w8, #0x0, 0x1000017f0 <__ZNSt3__128__exception_guard_exceptionsINS_6vectorIiNS_9allocatorIiEEE16__destroy_vectorEED2B8ne200100Ev+0x3c>
1000017dc: 14000001    	b	0x1000017e0 <__ZNSt3__128__exception_guard_exceptionsINS_6vectorIiNS_9allocatorIiEEE16__destroy_vectorEED2B8ne200100Ev+0x2c>
1000017e0: f94007e0    	ldr	x0, [sp, #0x8]
1000017e4: 94000008    	bl	0x100001804 <__ZNSt3__16vectorIiNS_9allocatorIiEEE16__destroy_vectorclB8ne200100Ev>
1000017e8: 14000001    	b	0x1000017ec <__ZNSt3__128__exception_guard_exceptionsINS_6vectorIiNS_9allocatorIiEEE16__destroy_vectorEED2B8ne200100Ev+0x38>
1000017ec: 14000001    	b	0x1000017f0 <__ZNSt3__128__exception_guard_exceptionsINS_6vectorIiNS_9allocatorIiEEE16__destroy_vectorEED2B8ne200100Ev+0x3c>
1000017f0: f85f83a0    	ldur	x0, [x29, #-0x8]
1000017f4: a9427bfd    	ldp	x29, x30, [sp, #0x20]
1000017f8: 9100c3ff    	add	sp, sp, #0x30
1000017fc: d65f03c0    	ret
100001800: 97fffce3    	bl	0x100000b8c <___clang_call_terminate>

0000000100001804 <__ZNSt3__16vectorIiNS_9allocatorIiEEE16__destroy_vectorclB8ne200100Ev>:
100001804: d100c3ff    	sub	sp, sp, #0x30
100001808: a9027bfd    	stp	x29, x30, [sp, #0x20]
10000180c: 910083fd    	add	x29, sp, #0x20
100001810: f81f83a0    	stur	x0, [x29, #-0x8]
100001814: f85f83a8    	ldur	x8, [x29, #-0x8]
100001818: f9000be8    	str	x8, [sp, #0x10]
10000181c: f9400108    	ldr	x8, [x8]
100001820: f9400108    	ldr	x8, [x8]
100001824: b40002a8    	cbz	x8, 0x100001878 <__ZNSt3__16vectorIiNS_9allocatorIiEEE16__destroy_vectorclB8ne200100Ev+0x74>
100001828: 14000001    	b	0x10000182c <__ZNSt3__16vectorIiNS_9allocatorIiEEE16__destroy_vectorclB8ne200100Ev+0x28>
10000182c: f9400be8    	ldr	x8, [sp, #0x10]
100001830: f9400100    	ldr	x0, [x8]
100001834: 94000014    	bl	0x100001884 <__ZNSt3__16vectorIiNS_9allocatorIiEEE5clearB8ne200100Ev>
100001838: f9400be8    	ldr	x8, [sp, #0x10]
10000183c: f9400100    	ldr	x0, [x8]
100001840: 94000023    	bl	0x1000018cc <__ZNKSt3__16vectorIiNS_9allocatorIiEEE17__annotate_deleteB8ne200100Ev>
100001844: f9400be8    	ldr	x8, [sp, #0x10]
100001848: f9400109    	ldr	x9, [x8]
10000184c: f90007e9    	str	x9, [sp, #0x8]
100001850: f9400109    	ldr	x9, [x8]
100001854: f9400129    	ldr	x9, [x9]
100001858: f90003e9    	str	x9, [sp]
10000185c: f9400100    	ldr	x0, [x8]
100001860: 9400002c    	bl	0x100001910 <__ZNKSt3__16vectorIiNS_9allocatorIiEEE8capacityB8ne200100Ev>
100001864: f94003e1    	ldr	x1, [sp]
100001868: aa0003e2    	mov	x2, x0
10000186c: f94007e0    	ldr	x0, [sp, #0x8]
100001870: 9400001b    	bl	0x1000018dc <__ZNSt3__116allocator_traitsINS_9allocatorIiEEE10deallocateB8ne200100ERS2_Pim>
100001874: 14000001    	b	0x100001878 <__ZNSt3__16vectorIiNS_9allocatorIiEEE16__destroy_vectorclB8ne200100Ev+0x74>
100001878: a9427bfd    	ldp	x29, x30, [sp, #0x20]
10000187c: 9100c3ff    	add	sp, sp, #0x30
100001880: d65f03c0    	ret

0000000100001884 <__ZNSt3__16vectorIiNS_9allocatorIiEEE5clearB8ne200100Ev>:
100001884: d100c3ff    	sub	sp, sp, #0x30
100001888: a9027bfd    	stp	x29, x30, [sp, #0x20]
10000188c: 910083fd    	add	x29, sp, #0x20
100001890: f81f83a0    	stur	x0, [x29, #-0x8]
100001894: f85f83a0    	ldur	x0, [x29, #-0x8]
100001898: f90007e0    	str	x0, [sp, #0x8]
10000189c: 94000027    	bl	0x100001938 <__ZNKSt3__16vectorIiNS_9allocatorIiEEE4sizeB8ne200100Ev>
1000018a0: aa0003e8    	mov	x8, x0
1000018a4: f94007e0    	ldr	x0, [sp, #0x8]
1000018a8: f9000be8    	str	x8, [sp, #0x10]
1000018ac: f9400001    	ldr	x1, [x0]
1000018b0: 9400002c    	bl	0x100001960 <__ZNSt3__16vectorIiNS_9allocatorIiEEE22__base_destruct_at_endB8ne200100EPi>
1000018b4: f94007e0    	ldr	x0, [sp, #0x8]
1000018b8: f9400be1    	ldr	x1, [sp, #0x10]
1000018bc: 94000048    	bl	0x1000019dc <__ZNKSt3__16vectorIiNS_9allocatorIiEEE17__annotate_shrinkB8ne200100Em>
1000018c0: a9427bfd    	ldp	x29, x30, [sp, #0x20]
1000018c4: 9100c3ff    	add	sp, sp, #0x30
1000018c8: d65f03c0    	ret

00000001000018cc <__ZNKSt3__16vectorIiNS_9allocatorIiEEE17__annotate_deleteB8ne200100Ev>:
1000018cc: d10043ff    	sub	sp, sp, #0x10
1000018d0: f90007e0    	str	x0, [sp, #0x8]
1000018d4: 910043ff    	add	sp, sp, #0x10
1000018d8: d65f03c0    	ret

00000001000018dc <__ZNSt3__116allocator_traitsINS_9allocatorIiEEE10deallocateB8ne200100ERS2_Pim>:
1000018dc: d100c3ff    	sub	sp, sp, #0x30
1000018e0: a9027bfd    	stp	x29, x30, [sp, #0x20]
1000018e4: 910083fd    	add	x29, sp, #0x20
1000018e8: f81f83a0    	stur	x0, [x29, #-0x8]
1000018ec: f9000be1    	str	x1, [sp, #0x10]
1000018f0: f90007e2    	str	x2, [sp, #0x8]
1000018f4: f85f83a0    	ldur	x0, [x29, #-0x8]
1000018f8: f9400be1    	ldr	x1, [sp, #0x10]
1000018fc: f94007e2    	ldr	x2, [sp, #0x8]
100001900: 9400003c    	bl	0x1000019f0 <__ZNSt3__19allocatorIiE10deallocateB8ne200100EPim>
100001904: a9427bfd    	ldp	x29, x30, [sp, #0x20]
100001908: 9100c3ff    	add	sp, sp, #0x30
10000190c: d65f03c0    	ret

0000000100001910 <__ZNKSt3__16vectorIiNS_9allocatorIiEEE8capacityB8ne200100Ev>:
100001910: d10043ff    	sub	sp, sp, #0x10
100001914: f90007e0    	str	x0, [sp, #0x8]
100001918: f94007e9    	ldr	x9, [sp, #0x8]
10000191c: f9400928    	ldr	x8, [x9, #0x10]
100001920: f9400129    	ldr	x9, [x9]
100001924: eb090108    	subs	x8, x8, x9
100001928: d2800089    	mov	x9, #0x4                ; =4
10000192c: 9ac90d00    	sdiv	x0, x8, x9
100001930: 910043ff    	add	sp, sp, #0x10
100001934: d65f03c0    	ret

0000000100001938 <__ZNKSt3__16vectorIiNS_9allocatorIiEEE4sizeB8ne200100Ev>:
100001938: d10043ff    	sub	sp, sp, #0x10
10000193c: f90007e0    	str	x0, [sp, #0x8]
100001940: f94007e9    	ldr	x9, [sp, #0x8]
100001944: f9400528    	ldr	x8, [x9, #0x8]
100001948: f9400129    	ldr	x9, [x9]
10000194c: eb090108    	subs	x8, x8, x9
100001950: d2800089    	mov	x9, #0x4                ; =4
100001954: 9ac90d00    	sdiv	x0, x8, x9
100001958: 910043ff    	add	sp, sp, #0x10
10000195c: d65f03c0    	ret

0000000100001960 <__ZNSt3__16vectorIiNS_9allocatorIiEEE22__base_destruct_at_endB8ne200100EPi>:
100001960: d100c3ff    	sub	sp, sp, #0x30
100001964: a9027bfd    	stp	x29, x30, [sp, #0x20]
100001968: 910083fd    	add	x29, sp, #0x20
10000196c: f81f83a0    	stur	x0, [x29, #-0x8]
100001970: f9000be1    	str	x1, [sp, #0x10]
100001974: f85f83a8    	ldur	x8, [x29, #-0x8]
100001978: f90003e8    	str	x8, [sp]
10000197c: f9400508    	ldr	x8, [x8, #0x8]
100001980: f90007e8    	str	x8, [sp, #0x8]
100001984: 14000001    	b	0x100001988 <__ZNSt3__16vectorIiNS_9allocatorIiEEE22__base_destruct_at_endB8ne200100EPi+0x28>
100001988: f9400be8    	ldr	x8, [sp, #0x10]
10000198c: f94007e9    	ldr	x9, [sp, #0x8]
100001990: eb090108    	subs	x8, x8, x9
100001994: 54000160    	b.eq	0x1000019c0 <__ZNSt3__16vectorIiNS_9allocatorIiEEE22__base_destruct_at_endB8ne200100EPi+0x60>
100001998: 14000001    	b	0x10000199c <__ZNSt3__16vectorIiNS_9allocatorIiEEE22__base_destruct_at_endB8ne200100EPi+0x3c>
10000199c: f94007e8    	ldr	x8, [sp, #0x8]
1000019a0: f1001100    	subs	x0, x8, #0x4
1000019a4: f90007e0    	str	x0, [sp, #0x8]
1000019a8: 97fffe5c    	bl	0x100001318 <__ZNSt3__112__to_addressB8ne200100IiEEPT_S2_>
1000019ac: aa0003e1    	mov	x1, x0
1000019b0: f94003e0    	ldr	x0, [sp]
1000019b4: 94000086    	bl	0x100001bcc <___stack_chk_guard+0x100001bcc>
1000019b8: 14000001    	b	0x1000019bc <__ZNSt3__16vectorIiNS_9allocatorIiEEE22__base_destruct_at_endB8ne200100EPi+0x5c>
1000019bc: 17fffff3    	b	0x100001988 <__ZNSt3__16vectorIiNS_9allocatorIiEEE22__base_destruct_at_endB8ne200100EPi+0x28>
1000019c0: f94003e9    	ldr	x9, [sp]
1000019c4: f9400be8    	ldr	x8, [sp, #0x10]
1000019c8: f9000528    	str	x8, [x9, #0x8]
1000019cc: a9427bfd    	ldp	x29, x30, [sp, #0x20]
1000019d0: 9100c3ff    	add	sp, sp, #0x30
1000019d4: d65f03c0    	ret
1000019d8: 97fffc6d    	bl	0x100000b8c <___clang_call_terminate>

00000001000019dc <__ZNKSt3__16vectorIiNS_9allocatorIiEEE17__annotate_shrinkB8ne200100Em>:
1000019dc: d10043ff    	sub	sp, sp, #0x10
1000019e0: f90007e0    	str	x0, [sp, #0x8]
1000019e4: f90003e1    	str	x1, [sp]
1000019e8: 910043ff    	add	sp, sp, #0x10
1000019ec: d65f03c0    	ret

00000001000019f0 <__ZNSt3__19allocatorIiE10deallocateB8ne200100EPim>:
1000019f0: d100c3ff    	sub	sp, sp, #0x30
1000019f4: a9027bfd    	stp	x29, x30, [sp, #0x20]
1000019f8: 910083fd    	add	x29, sp, #0x20
1000019fc: f81f83a0    	stur	x0, [x29, #-0x8]
100001a00: f9000be1    	str	x1, [sp, #0x10]
100001a04: f90007e2    	str	x2, [sp, #0x8]
100001a08: f9400be0    	ldr	x0, [sp, #0x10]
100001a0c: f94007e1    	ldr	x1, [sp, #0x8]
100001a10: d2800082    	mov	x2, #0x4                ; =4
100001a14: 94000004    	bl	0x100001a24 <__ZNSt3__119__libcpp_deallocateB8ne200100IiEEvPNS_15__type_identityIT_E4typeENS_15__element_countEm>
100001a18: a9427bfd    	ldp	x29, x30, [sp, #0x20]
100001a1c: 9100c3ff    	add	sp, sp, #0x30
100001a20: d65f03c0    	ret

0000000100001a24 <__ZNSt3__119__libcpp_deallocateB8ne200100IiEEvPNS_15__type_identityIT_E4typeENS_15__element_countEm>:
100001a24: d10103ff    	sub	sp, sp, #0x40
100001a28: a9037bfd    	stp	x29, x30, [sp, #0x30]
100001a2c: 9100c3fd    	add	x29, sp, #0x30
100001a30: f81f83a0    	stur	x0, [x29, #-0x8]
100001a34: f81f03a1    	stur	x1, [x29, #-0x10]
100001a38: f9000fe2    	str	x2, [sp, #0x18]
100001a3c: f85f03a8    	ldur	x8, [x29, #-0x10]
100001a40: d37ef508    	lsl	x8, x8, #2
100001a44: f9000be8    	str	x8, [sp, #0x10]
100001a48: f9400fe0    	ldr	x0, [sp, #0x18]
100001a4c: 97fffcf1    	bl	0x100000e10 <__ZNSt3__124__is_overaligned_for_newB8ne200100Em>
100001a50: 36000100    	tbz	w0, #0x0, 0x100001a70 <__ZNSt3__119__libcpp_deallocateB8ne200100IiEEvPNS_15__type_identityIT_E4typeENS_15__element_countEm+0x4c>
100001a54: 14000001    	b	0x100001a58 <__ZNSt3__119__libcpp_deallocateB8ne200100IiEEvPNS_15__type_identityIT_E4typeENS_15__element_countEm+0x34>
100001a58: f9400fe8    	ldr	x8, [sp, #0x18]
100001a5c: f90007e8    	str	x8, [sp, #0x8]
100001a60: f85f83a0    	ldur	x0, [x29, #-0x8]
100001a64: f94007e1    	ldr	x1, [sp, #0x8]
100001a68: 94000008    	bl	0x100001a88 <__ZNSt3__124__libcpp_operator_deleteB8ne200100IJPiSt11align_val_tEEEvDpT_>
100001a6c: 14000004    	b	0x100001a7c <__ZNSt3__119__libcpp_deallocateB8ne200100IiEEvPNS_15__type_identityIT_E4typeENS_15__element_countEm+0x58>
100001a70: f85f83a0    	ldur	x0, [x29, #-0x8]
100001a74: 94000010    	bl	0x100001ab4 <__ZNSt3__124__libcpp_operator_deleteB8ne200100IJPiEEEvDpT_>
100001a78: 14000001    	b	0x100001a7c <__ZNSt3__119__libcpp_deallocateB8ne200100IiEEvPNS_15__type_identityIT_E4typeENS_15__element_countEm+0x58>
100001a7c: a9437bfd    	ldp	x29, x30, [sp, #0x30]
100001a80: 910103ff    	add	sp, sp, #0x40
100001a84: d65f03c0    	ret

0000000100001a88 <__ZNSt3__124__libcpp_operator_deleteB8ne200100IJPiSt11align_val_tEEEvDpT_>:
100001a88: d10083ff    	sub	sp, sp, #0x20
100001a8c: a9017bfd    	stp	x29, x30, [sp, #0x10]
100001a90: 910043fd    	add	x29, sp, #0x10
100001a94: f90007e0    	str	x0, [sp, #0x8]
100001a98: f90003e1    	str	x1, [sp]
100001a9c: f94007e0    	ldr	x0, [sp, #0x8]
100001aa0: f94003e1    	ldr	x1, [sp]
100001aa4: 9400004d    	bl	0x100001bd8 <___stack_chk_guard+0x100001bd8>
100001aa8: a9417bfd    	ldp	x29, x30, [sp, #0x10]
100001aac: 910083ff    	add	sp, sp, #0x20
100001ab0: d65f03c0    	ret

0000000100001ab4 <__ZNSt3__124__libcpp_operator_deleteB8ne200100IJPiEEEvDpT_>:
100001ab4: d10083ff    	sub	sp, sp, #0x20
100001ab8: a9017bfd    	stp	x29, x30, [sp, #0x10]
100001abc: 910043fd    	add	x29, sp, #0x10
100001ac0: f90007e0    	str	x0, [sp, #0x8]
100001ac4: f94007e0    	ldr	x0, [sp, #0x8]
100001ac8: 94000047    	bl	0x100001be4 <___stack_chk_guard+0x100001be4>
100001acc: a9417bfd    	ldp	x29, x30, [sp, #0x10]
100001ad0: 910083ff    	add	sp, sp, #0x20
100001ad4: d65f03c0    	ret

0000000100001ad8 <__ZNSt3__16vectorIiNS_9allocatorIiEEED2B8ne200100Ev>:
100001ad8: d100c3ff    	sub	sp, sp, #0x30
100001adc: a9027bfd    	stp	x29, x30, [sp, #0x20]
100001ae0: 910083fd    	add	x29, sp, #0x20
100001ae4: f81f83a0    	stur	x0, [x29, #-0x8]
100001ae8: f85f83a1    	ldur	x1, [x29, #-0x8]
100001aec: f90007e1    	str	x1, [sp, #0x8]
100001af0: 910043e0    	add	x0, sp, #0x10
100001af4: 97fffb59    	bl	0x100000858 <__ZNSt3__16vectorIiNS_9allocatorIiEEE16__destroy_vectorC1B8ne200100ERS3_>
100001af8: 14000001    	b	0x100001afc <__ZNSt3__16vectorIiNS_9allocatorIiEEED2B8ne200100Ev+0x24>
100001afc: 910043e0    	add	x0, sp, #0x10
100001b00: 97ffff41    	bl	0x100001804 <__ZNSt3__16vectorIiNS_9allocatorIiEEE16__destroy_vectorclB8ne200100Ev>
100001b04: f94007e0    	ldr	x0, [sp, #0x8]
100001b08: a9427bfd    	ldp	x29, x30, [sp, #0x20]
100001b0c: 9100c3ff    	add	sp, sp, #0x30
100001b10: d65f03c0    	ret
100001b14: 97fffc1e    	bl	0x100000b8c <___clang_call_terminate>

Disassembly of section __TEXT,__stubs:

0000000100001b18 <__stubs>:
100001b18: f0000010    	adrp	x16, 0x100004000 <___stack_chk_guard+0x100004000>
100001b1c: f9400a10    	ldr	x16, [x16, #0x10]
100001b20: d61f0200    	br	x16
100001b24: f0000010    	adrp	x16, 0x100004000 <___stack_chk_guard+0x100004000>
100001b28: f9400e10    	ldr	x16, [x16, #0x18]
100001b2c: d61f0200    	br	x16
100001b30: f0000010    	adrp	x16, 0x100004000 <___stack_chk_guard+0x100004000>
100001b34: f9401210    	ldr	x16, [x16, #0x20]
100001b38: d61f0200    	br	x16
100001b3c: f0000010    	adrp	x16, 0x100004000 <___stack_chk_guard+0x100004000>
100001b40: f9401610    	ldr	x16, [x16, #0x28]
100001b44: d61f0200    	br	x16
100001b48: f0000010    	adrp	x16, 0x100004000 <___stack_chk_guard+0x100004000>
100001b4c: f9401a10    	ldr	x16, [x16, #0x30]
100001b50: d61f0200    	br	x16
100001b54: f0000010    	adrp	x16, 0x100004000 <___stack_chk_guard+0x100004000>
100001b58: f9401e10    	ldr	x16, [x16, #0x38]
100001b5c: d61f0200    	br	x16
100001b60: f0000010    	adrp	x16, 0x100004000 <___stack_chk_guard+0x100004000>
100001b64: f9402210    	ldr	x16, [x16, #0x40]
100001b68: d61f0200    	br	x16
100001b6c: f0000010    	adrp	x16, 0x100004000 <___stack_chk_guard+0x100004000>
100001b70: f9402610    	ldr	x16, [x16, #0x48]
100001b74: d61f0200    	br	x16
100001b78: f0000010    	adrp	x16, 0x100004000 <___stack_chk_guard+0x100004000>
100001b7c: f9403210    	ldr	x16, [x16, #0x60]
100001b80: d61f0200    	br	x16
100001b84: f0000010    	adrp	x16, 0x100004000 <___stack_chk_guard+0x100004000>
100001b88: f9403610    	ldr	x16, [x16, #0x68]
100001b8c: d61f0200    	br	x16
100001b90: f0000010    	adrp	x16, 0x100004000 <___stack_chk_guard+0x100004000>
100001b94: f9403a10    	ldr	x16, [x16, #0x70]
100001b98: d61f0200    	br	x16
100001b9c: f0000010    	adrp	x16, 0x100004000 <___stack_chk_guard+0x100004000>
100001ba0: f9404210    	ldr	x16, [x16, #0x80]
100001ba4: d61f0200    	br	x16
100001ba8: f0000010    	adrp	x16, 0x100004000 <___stack_chk_guard+0x100004000>
100001bac: f9404e10    	ldr	x16, [x16, #0x98]
100001bb0: d61f0200    	br	x16
100001bb4: f0000010    	adrp	x16, 0x100004000 <___stack_chk_guard+0x100004000>
100001bb8: f9405210    	ldr	x16, [x16, #0xa0]
100001bbc: d61f0200    	br	x16
100001bc0: f0000010    	adrp	x16, 0x100004000 <___stack_chk_guard+0x100004000>
100001bc4: f9405610    	ldr	x16, [x16, #0xa8]
100001bc8: d61f0200    	br	x16
100001bcc: f0000010    	adrp	x16, 0x100004000 <___stack_chk_guard+0x100004000>
100001bd0: f9405a10    	ldr	x16, [x16, #0xb0]
100001bd4: d61f0200    	br	x16
100001bd8: f0000010    	adrp	x16, 0x100004000 <___stack_chk_guard+0x100004000>
100001bdc: f9405e10    	ldr	x16, [x16, #0xb8]
100001be0: d61f0200    	br	x16
100001be4: f0000010    	adrp	x16, 0x100004000 <___stack_chk_guard+0x100004000>
100001be8: f9406210    	ldr	x16, [x16, #0xc0]
100001bec: d61f0200    	br	x16
