TN:
SF:/Applications/Xcode.app/Contents/Developer/Platforms/MacOSX.platform/Developer/SDKs/MacOSX26.2.sdk/usr/include/_ctype.h
FNL:0,140,142
FNA:0,596,_Z7isasciii
FNL:1,158,164
FNA:1,596,_Z8__istypeim
FNL:2,169,175
FNA:2,193,_Z9__isctypeim
FNL:3,217,219
FNA:3,321,_Z7isalnumi
FNL:4,223,225
FNA:4,179,_Z7isalphai
FNL:5,242,244
FNA:5,193,_Z7isdigiti
FNL:6,272,274
FNA:6,96,_Z7isspacei
FNF:7
FNH:7
DA:140,596
DA:142,596
DA:158,596
DA:163,596
DA:164,0
DA:169,193
DA:174,193
DA:175,193
DA:217,321
DA:219,321
DA:223,179
DA:225,179
DA:242,193
DA:244,193
DA:272,96
DA:274,96
LF:16
LH:15
end_of_record
TN:
SF:/Users/jim/work/cppfort/Cpp2FIROps.cpp.inc
FNL:0,1003
FNA:0,0,_ZN4mlir7cpp2fir8AssertOp8setAuditEb
FNL:1,1011
FNA:1,0,_ZN4mlir7cpp2fir8AssertOp5buildERNS_9OpBuilderERNS_14OperationStateENS_5ValueENS_10StringAttrENS_9ArrayAttrENS_8UnitAttrE
FNL:2,102
FNA:2,48,_ZN4mlir7cpp2firL48__mlir_ods_local_attr_constraint_Cpp2FIRDialect2EPNS_9OperationENS_9AttributeEN4llvm9StringRefE
FNL:3,1024
FNA:3,0,_ZN4mlir7cpp2fir8AssertOp6createERNS_9OpBuilderENS_8LocationENS_5ValueENS_10StringAttrENS_9ArrayAttrENS_8UnitAttrE
FNL:4,1032
FNA:4,0,_ZN4mlir7cpp2fir8AssertOp6createERNS_20ImplicitLocOpBuilderENS_5ValueENS_10StringAttrENS_9ArrayAttrENS_8UnitAttrE
FNL:5,1036
FNA:5,0,_ZN4mlir7cpp2fir8AssertOp5buildERNS_9OpBuilderERNS_14OperationStateENS_9TypeRangeENS_5ValueENS_10StringAttrENS_9ArrayAttrENS_8UnitAttrE
FNL:6,104
FNA:6,0,_ZZN4mlir7cpp2firL48__mlir_ods_local_attr_constraint_Cpp2FIRDialect2EPNS_9OperationENS_9AttributeEN4llvm9StringRefEENK3$_0clEv
FNL:7,1051
FNA:7,0,_ZN4mlir7cpp2fir8AssertOp6createERNS_9OpBuilderENS_8LocationENS_9TypeRangeENS_5ValueENS_10StringAttrENS_9ArrayAttrENS_8UnitAttrE
FNL:8,1059
FNA:8,0,_ZN4mlir7cpp2fir8AssertOp6createERNS_20ImplicitLocOpBuilderENS_9TypeRangeENS_5ValueENS_10StringAttrENS_9ArrayAttrENS_8UnitAttrE
FNL:9,1063
FNA:9,0,_ZN4mlir7cpp2fir8AssertOp5buildERNS_9OpBuilderERNS_14OperationStateENS_5ValueENS_10StringAttrENS_9ArrayAttrEb
FNL:10,1076
FNA:10,0,_ZN4mlir7cpp2fir8AssertOp6createERNS_9OpBuilderENS_8LocationENS_5ValueENS_10StringAttrENS_9ArrayAttrEb
FNL:11,1084
FNA:11,0,_ZN4mlir7cpp2fir8AssertOp6createERNS_20ImplicitLocOpBuilderENS_5ValueENS_10StringAttrENS_9ArrayAttrEb
FNL:12,1088
FNA:12,0,_ZN4mlir7cpp2fir8AssertOp5buildERNS_9OpBuilderERNS_14OperationStateENS_9TypeRangeENS_5ValueENS_10StringAttrENS_9ArrayAttrEb
FNL:13,109
FNA:13,0,_ZN4mlir7cpp2firL48__mlir_ods_local_attr_constraint_Cpp2FIRDialect3ENS_9AttributeEN4llvm9StringRefENS2_12function_refIFNS_18InFlightDiagnosticEvEEE
FNL:14,1103
FNA:14,0,_ZN4mlir7cpp2fir8AssertOp6createERNS_9OpBuilderENS_8LocationENS_9TypeRangeENS_5ValueENS_10StringAttrENS_9ArrayAttrEb
FNL:15,1111
FNA:15,0,_ZN4mlir7cpp2fir8AssertOp6createERNS_20ImplicitLocOpBuilderENS_9TypeRangeENS_5ValueENS_10StringAttrENS_9ArrayAttrEb
FNL:16,1115
FNA:16,0,_ZN4mlir7cpp2fir8AssertOp5buildERNS_9OpBuilderERNS_14OperationStateENS_9TypeRangeENS_10ValueRangeEN4llvm8ArrayRefINS_14NamedAttributeEEE
FNL:17,1133
FNA:17,0,_ZN4mlir7cpp2fir8AssertOp6createERNS_9OpBuilderENS_8LocationENS_9TypeRangeENS_10ValueRangeEN4llvm8ArrayRefINS_14NamedAttributeEEE
FNL:18,1141
FNA:18,0,_ZN4mlir7cpp2fir8AssertOp6createERNS_20ImplicitLocOpBuilderENS_9TypeRangeENS_10ValueRangeEN4llvm8ArrayRefINS_14NamedAttributeEEE
FNL:19,1145
FNA:19,0,_ZN4mlir7cpp2fir8AssertOp5buildERNS_9OpBuilderERNS_14OperationStateENS_9TypeRangeENS_10ValueRangeERKNS0_6detail26AssertOpGenericAdaptorBase10PropertiesEN4llvm8ArrayRefINS_14NamedAttributeEEE
FNL:20,1154
FNA:20,0,_ZN4mlir7cpp2fir8AssertOp6createERNS_9OpBuilderENS_8LocationENS_9TypeRangeENS_10ValueRangeERKNS0_6detail26AssertOpGenericAdaptorBase10PropertiesEN4llvm8ArrayRefINS_14NamedAttributeEEE
FNL:21,116
FNA:21,0,_ZN4mlir7cpp2firL48__mlir_ods_local_attr_constraint_Cpp2FIRDialect3EPNS_9OperationENS_9AttributeEN4llvm9StringRefE
FNL:22,1162
FNA:22,0,_ZN4mlir7cpp2fir8AssertOp6createERNS_20ImplicitLocOpBuilderENS_9TypeRangeENS_10ValueRangeERKNS0_6detail26AssertOpGenericAdaptorBase10PropertiesEN4llvm8ArrayRefINS_14NamedAttributeEEE
FNL:23,1166
FNA:23,0,_ZN4mlir7cpp2fir8AssertOp20verifyInvariantsImplEv
FNL:24,118
FNA:24,0,_ZZN4mlir7cpp2firL48__mlir_ods_local_attr_constraint_Cpp2FIRDialect3EPNS_9OperationENS_9AttributeEN4llvm9StringRefEENK3$_0clEv
FNL:25,1191
FNA:25,0,_ZN4mlir7cpp2fir8AssertOp16verifyInvariantsEv
FNL:26,1195
FNA:26,0,_ZN4mlir7cpp2fir8AssertOp5parseERNS_11OpAsmParserERNS_14OperationStateE
FNL:27,1210
FNA:27,0,_ZZN4mlir7cpp2fir8AssertOp5parseERNS_11OpAsmParserERNS_14OperationStateEENK3$_0clEv
FNL:28,123
FNA:28,0,_ZN4mlir7cpp2firL48__mlir_ods_local_attr_constraint_Cpp2FIRDialect4ENS_9AttributeEN4llvm9StringRefENS2_12function_refIFNS_18InFlightDiagnosticEvEEE
FNL:29,1236
FNA:29,0,_ZN4mlir7cpp2fir8AssertOp5printERNS_12OpAsmPrinterE
FNL:30,1276
FNA:30,0,_ZN4mlir7cpp2fir6detail25AwaitOpGenericAdaptorBaseC1ENS0_7AwaitOpE
FNA:30,0,_ZN4mlir7cpp2fir6detail25AwaitOpGenericAdaptorBaseC2ENS0_7AwaitOpE
FNL:31,1278
FNA:31,0,_ZN4mlir7cpp2fir6detail25AwaitOpGenericAdaptorBase16getSourceChannelEv
FNL:32,1284
FNA:32,0,_ZN4mlir7cpp2fir14AwaitOpAdaptorC1ENS0_7AwaitOpE
FNA:32,0,_ZN4mlir7cpp2fir14AwaitOpAdaptorC2ENS0_7AwaitOpE
FNL:33,1286
FNA:33,0,_ZN4mlir7cpp2fir14AwaitOpAdaptor6verifyENS_8LocationE
FNL:34,1294
FNA:34,0,_ZN4mlir7cpp2fir7AwaitOp21setPropertiesFromAttrERNS0_6detail25AwaitOpGenericAdaptorBase10PropertiesENS_9AttributeEN4llvm12function_refIFNS_18InFlightDiagnosticEvEEE
FNL:35,130
FNA:35,0,_ZN4mlir7cpp2firL48__mlir_ods_local_attr_constraint_Cpp2FIRDialect4EPNS_9OperationENS_9AttributeEN4llvm9StringRefE
FNL:36,1317
FNA:36,0,_ZN4mlir7cpp2fir7AwaitOp19getPropertiesAsAttrEPNS_11MLIRContextERKNS0_6detail25AwaitOpGenericAdaptorBase10PropertiesE
FNL:37,132
FNA:37,0,_ZZN4mlir7cpp2firL48__mlir_ods_local_attr_constraint_Cpp2FIRDialect4EPNS_9OperationENS_9AttributeEN4llvm9StringRefEENK3$_0clEv
FNL:38,1333
FNA:38,0,_ZN4mlir7cpp2fir7AwaitOp21computePropertiesHashERKNS0_6detail25AwaitOpGenericAdaptorBase10PropertiesE
FNL:39,1339
FNA:39,0,_ZN4mlir7cpp2fir7AwaitOp15getInherentAttrEPNS_11MLIRContextERKNS0_6detail25AwaitOpGenericAdaptorBase10PropertiesEN4llvm9StringRefE
FNL:40,1345
FNA:40,0,_ZN4mlir7cpp2fir7AwaitOp15setInherentAttrERNS0_6detail25AwaitOpGenericAdaptorBase10PropertiesEN4llvm9StringRefENS_9AttributeE
FNL:41,1352
FNA:41,0,_ZN4mlir7cpp2fir7AwaitOp21populateInherentAttrsEPNS_11MLIRContextERKNS0_6detail25AwaitOpGenericAdaptorBase10PropertiesERNS_13NamedAttrListE
FNL:42,1356
FNA:42,0,_ZN4mlir7cpp2fir7AwaitOp19verifyInherentAttrsENS_13OperationNameERNS_13NamedAttrListEN4llvm12function_refIFNS_18InFlightDiagnosticEvEEE
FNL:43,1365
FNA:43,0,_ZN4mlir7cpp2fir7AwaitOp14readPropertiesERNS_21DialectBytecodeReaderERNS_14OperationStateE
FNL:44,137
FNA:44,0,_ZN4mlir7cpp2firL48__mlir_ods_local_attr_constraint_Cpp2FIRDialect5ENS_9AttributeEN4llvm9StringRefENS2_12function_refIFNS_18InFlightDiagnosticEvEEE
FNL:45,1372
FNA:45,0,_ZN4mlir7cpp2fir7AwaitOp15writePropertiesERNS_21DialectBytecodeWriterE
FNL:46,1378
FNA:46,0,_ZN4mlir7cpp2fir7AwaitOp16getSourceChannelEv
FNL:47,1383
FNA:47,0,_ZN4mlir7cpp2fir7AwaitOp16setSourceChannelENSt3__18optionalIN4llvm9StringRefEEE
FNL:48,1391
FNA:48,0,_ZN4mlir7cpp2fir7AwaitOp5buildERNS_9OpBuilderERNS_14OperationStateENS_4TypeENS_5ValueENS_10StringAttrE
FNL:49,1399
FNA:49,0,_ZN4mlir7cpp2fir7AwaitOp6createERNS_9OpBuilderENS_8LocationENS_4TypeENS_5ValueENS_10StringAttrE
FNL:50,1407
FNA:50,0,_ZN4mlir7cpp2fir7AwaitOp6createERNS_20ImplicitLocOpBuilderENS_4TypeENS_5ValueENS_10StringAttrE
FNL:51,1411
FNA:51,0,_ZN4mlir7cpp2fir7AwaitOp5buildERNS_9OpBuilderERNS_14OperationStateENS_9TypeRangeENS_5ValueENS_10StringAttrE
FNL:52,1420
FNA:52,0,_ZN4mlir7cpp2fir7AwaitOp6createERNS_9OpBuilderENS_8LocationENS_9TypeRangeENS_5ValueENS_10StringAttrE
FNL:53,1428
FNA:53,0,_ZN4mlir7cpp2fir7AwaitOp6createERNS_20ImplicitLocOpBuilderENS_9TypeRangeENS_5ValueENS_10StringAttrE
FNL:54,1432
FNA:54,0,_ZN4mlir7cpp2fir7AwaitOp5buildERNS_9OpBuilderERNS_14OperationStateENS_9TypeRangeENS_10ValueRangeEN4llvm8ArrayRefINS_14NamedAttributeEEE
FNL:55,144
FNA:55,0,_ZN4mlir7cpp2firL48__mlir_ods_local_attr_constraint_Cpp2FIRDialect5EPNS_9OperationENS_9AttributeEN4llvm9StringRefE
FNL:56,1450
FNA:56,0,_ZN4mlir7cpp2fir7AwaitOp6createERNS_9OpBuilderENS_8LocationENS_9TypeRangeENS_10ValueRangeEN4llvm8ArrayRefINS_14NamedAttributeEEE
FNL:57,1458
FNA:57,0,_ZN4mlir7cpp2fir7AwaitOp6createERNS_20ImplicitLocOpBuilderENS_9TypeRangeENS_10ValueRangeEN4llvm8ArrayRefINS_14NamedAttributeEEE
FNL:58,146
FNA:58,0,_ZZN4mlir7cpp2firL48__mlir_ods_local_attr_constraint_Cpp2FIRDialect5EPNS_9OperationENS_9AttributeEN4llvm9StringRefEENK3$_0clEv
FNL:59,1462
FNA:59,0,_ZN4mlir7cpp2fir7AwaitOp5buildERNS_9OpBuilderERNS_14OperationStateENS_9TypeRangeENS_10ValueRangeERKNS0_6detail25AwaitOpGenericAdaptorBase10PropertiesEN4llvm8ArrayRefINS_14NamedAttributeEEE
FNL:60,1471
FNA:60,0,_ZN4mlir7cpp2fir7AwaitOp6createERNS_9OpBuilderENS_8LocationENS_9TypeRangeENS_10ValueRangeERKNS0_6detail25AwaitOpGenericAdaptorBase10PropertiesEN4llvm8ArrayRefINS_14NamedAttributeEEE
FNL:61,1479
FNA:61,0,_ZN4mlir7cpp2fir7AwaitOp6createERNS_20ImplicitLocOpBuilderENS_9TypeRangeENS_10ValueRangeERKNS0_6detail25AwaitOpGenericAdaptorBase10PropertiesEN4llvm8ArrayRefINS_14NamedAttributeEEE
FNL:62,1483
FNA:62,0,_ZN4mlir7cpp2fir7AwaitOp20verifyInvariantsImplEv
FNL:63,1509
FNA:63,0,_ZN4mlir7cpp2fir7AwaitOp16verifyInvariantsEv
FNL:64,151
FNA:64,51,_ZN4mlir7cpp2firL48__mlir_ods_local_attr_constraint_Cpp2FIRDialect6ENS_9AttributeEN4llvm9StringRefENS2_12function_refIFNS_18InFlightDiagnosticEvEEE
FNL:65,1513
FNA:65,0,_ZN4mlir7cpp2fir7AwaitOp5parseERNS_11OpAsmParserERNS_14OperationStateE
FNL:66,1530
FNA:66,0,_ZZN4mlir7cpp2fir7AwaitOp5parseERNS_11OpAsmParserERNS_14OperationStateEENK3$_0clEv
FNL:67,1566
FNA:67,0,_ZN4mlir7cpp2fir7AwaitOp5printERNS_12OpAsmPrinterE
FNL:68,158
FNA:68,51,_ZN4mlir7cpp2firL48__mlir_ods_local_attr_constraint_Cpp2FIRDialect6EPNS_9OperationENS_9AttributeEN4llvm9StringRefE
FNL:69,160
FNA:69,0,_ZZN4mlir7cpp2firL48__mlir_ods_local_attr_constraint_Cpp2FIRDialect6EPNS_9OperationENS_9AttributeEN4llvm9StringRefEENK3$_0clEv
FNL:70,1609
FNA:70,0,_ZN4mlir7cpp2fir6detail27ChannelOpGenericAdaptorBaseC1ENS0_9ChannelOpE
FNA:70,0,_ZN4mlir7cpp2fir6detail27ChannelOpGenericAdaptorBaseC2ENS0_9ChannelOpE
FNL:71,1611
FNA:71,0,_ZN4mlir7cpp2fir6detail27ChannelOpGenericAdaptorBase14getElementTypeEv
FNL:72,1616
FNA:72,0,_ZN4mlir7cpp2fir6detail27ChannelOpGenericAdaptorBase13getBufferSizeEv
FNL:73,1622
FNA:73,0,_ZN4mlir7cpp2fir16ChannelOpAdaptorC1ENS0_9ChannelOpE
FNA:73,0,_ZN4mlir7cpp2fir16ChannelOpAdaptorC2ENS0_9ChannelOpE
FNL:74,1624
FNA:74,0,_ZN4mlir7cpp2fir16ChannelOpAdaptor6verifyENS_8LocationE
FNL:75,1637
FNA:75,0,_ZN4mlir7cpp2fir9ChannelOp21setPropertiesFromAttrERNS0_6detail27ChannelOpGenericAdaptorBase10PropertiesENS_9AttributeEN4llvm12function_refIFNS_18InFlightDiagnosticEvEEE
FNL:76,165
FNA:76,24,_ZN4mlir7cpp2firL48__mlir_ods_local_attr_constraint_Cpp2FIRDialect7ENS_9AttributeEN4llvm9StringRefENS2_12function_refIFNS_18InFlightDiagnosticEvEEE
FNL:77,1674
FNA:77,0,_ZN4mlir7cpp2fir9ChannelOp19getPropertiesAsAttrEPNS_11MLIRContextERKNS0_6detail27ChannelOpGenericAdaptorBase10PropertiesE
FNL:78,1697
FNA:78,0,_ZN4mlir7cpp2fir9ChannelOp21computePropertiesHashERKNS0_6detail27ChannelOpGenericAdaptorBase10PropertiesE
FNL:79,1704
FNA:79,0,_ZN4mlir7cpp2fir9ChannelOp15getInherentAttrEPNS_11MLIRContextERKNS0_6detail27ChannelOpGenericAdaptorBase10PropertiesEN4llvm9StringRefE
FNL:80,1713
FNA:80,0,_ZN4mlir7cpp2fir9ChannelOp15setInherentAttrERNS0_6detail27ChannelOpGenericAdaptorBase10PropertiesEN4llvm9StringRefENS_9AttributeE
FNL:81,172
FNA:81,24,_ZN4mlir7cpp2firL48__mlir_ods_local_attr_constraint_Cpp2FIRDialect7EPNS_9OperationENS_9AttributeEN4llvm9StringRefE
FNL:82,1725
FNA:82,0,_ZN4mlir7cpp2fir9ChannelOp21populateInherentAttrsEPNS_11MLIRContextERKNS0_6detail27ChannelOpGenericAdaptorBase10PropertiesERNS_13NamedAttrListE
FNL:83,1731
FNA:83,0,_ZN4mlir7cpp2fir9ChannelOp19verifyInherentAttrsENS_13OperationNameERNS_13NamedAttrListEN4llvm12function_refIFNS_18InFlightDiagnosticEvEEE
FNL:84,174
FNA:84,0,_ZZN4mlir7cpp2firL48__mlir_ods_local_attr_constraint_Cpp2FIRDialect7EPNS_9OperationENS_9AttributeEN4llvm9StringRefEENK3$_0clEv
FNL:85,1746
FNA:85,0,_ZN4mlir7cpp2fir9ChannelOp14readPropertiesERNS_21DialectBytecodeReaderERNS_14OperationStateE
FNL:86,1756
FNA:86,0,_ZN4mlir7cpp2fir9ChannelOp15writePropertiesERNS_21DialectBytecodeWriterE
FNL:87,1763
FNA:87,0,_ZN4mlir7cpp2fir9ChannelOp14getElementTypeEv
FNL:88,1768
FNA:88,0,_ZN4mlir7cpp2fir9ChannelOp13getBufferSizeEv
FNL:89,1773
FNA:89,0,_ZN4mlir7cpp2fir9ChannelOp14setElementTypeENS_4TypeE
FNL:90,1777
FNA:90,0,_ZN4mlir7cpp2fir9ChannelOp13setBufferSizeENSt3__18optionalIjEE
FNL:91,1785
FNA:91,0,_ZN4mlir7cpp2fir9ChannelOp5buildERNS_9OpBuilderERNS_14OperationStateENS_4TypeENS_8TypeAttrENS_11IntegerAttrE
FNL:92,179
FNA:92,0,_ZN4mlir7cpp2firL48__mlir_ods_local_attr_constraint_Cpp2FIRDialect8ENS_9AttributeEN4llvm9StringRefENS2_12function_refIFNS_18InFlightDiagnosticEvEEE
FNL:93,1793
FNA:93,0,_ZN4mlir7cpp2fir9ChannelOp6createERNS_9OpBuilderENS_8LocationENS_4TypeENS_8TypeAttrENS_11IntegerAttrE
FNL:94,1801
FNA:94,0,_ZN4mlir7cpp2fir9ChannelOp6createERNS_20ImplicitLocOpBuilderENS_4TypeENS_8TypeAttrENS_11IntegerAttrE
FNL:95,1805
FNA:95,0,_ZN4mlir7cpp2fir9ChannelOp5buildERNS_9OpBuilderERNS_14OperationStateENS_9TypeRangeENS_8TypeAttrENS_11IntegerAttrE
FNL:96,1814
FNA:96,0,_ZN4mlir7cpp2fir9ChannelOp6createERNS_9OpBuilderENS_8LocationENS_9TypeRangeENS_8TypeAttrENS_11IntegerAttrE
FNL:97,1822
FNA:97,0,_ZN4mlir7cpp2fir9ChannelOp6createERNS_20ImplicitLocOpBuilderENS_9TypeRangeENS_8TypeAttrENS_11IntegerAttrE
FNL:98,1826
FNA:98,0,_ZN4mlir7cpp2fir9ChannelOp5buildERNS_9OpBuilderERNS_14OperationStateENS_4TypeES6_NS_11IntegerAttrE
FNL:99,1834
FNA:99,0,_ZN4mlir7cpp2fir9ChannelOp6createERNS_9OpBuilderENS_8LocationENS_4TypeES5_NS_11IntegerAttrE
FNL:100,1842
FNA:100,0,_ZN4mlir7cpp2fir9ChannelOp6createERNS_20ImplicitLocOpBuilderENS_4TypeES4_NS_11IntegerAttrE
FNL:101,1846
FNA:101,0,_ZN4mlir7cpp2fir9ChannelOp5buildERNS_9OpBuilderERNS_14OperationStateENS_9TypeRangeENS_4TypeENS_11IntegerAttrE
FNL:102,1855
FNA:102,0,_ZN4mlir7cpp2fir9ChannelOp6createERNS_9OpBuilderENS_8LocationENS_9TypeRangeENS_4TypeENS_11IntegerAttrE
FNL:103,186
FNA:103,0,_ZN4mlir7cpp2firL48__mlir_ods_local_attr_constraint_Cpp2FIRDialect8EPNS_9OperationENS_9AttributeEN4llvm9StringRefE
FNL:104,1863
FNA:104,0,_ZN4mlir7cpp2fir9ChannelOp6createERNS_20ImplicitLocOpBuilderENS_9TypeRangeENS_4TypeENS_11IntegerAttrE
FNL:105,1867
FNA:105,0,_ZN4mlir7cpp2fir9ChannelOp5buildERNS_9OpBuilderERNS_14OperationStateENS_9TypeRangeENS_10ValueRangeEN4llvm8ArrayRefINS_14NamedAttributeEEE
FNL:106,188
FNA:106,0,_ZZN4mlir7cpp2firL48__mlir_ods_local_attr_constraint_Cpp2FIRDialect8EPNS_9OperationENS_9AttributeEN4llvm9StringRefEENK3$_0clEv
FNL:107,1885
FNA:107,0,_ZN4mlir7cpp2fir9ChannelOp6createERNS_9OpBuilderENS_8LocationENS_9TypeRangeENS_10ValueRangeEN4llvm8ArrayRefINS_14NamedAttributeEEE
FNL:108,1893
FNA:108,0,_ZN4mlir7cpp2fir9ChannelOp6createERNS_20ImplicitLocOpBuilderENS_9TypeRangeENS_10ValueRangeEN4llvm8ArrayRefINS_14NamedAttributeEEE
FNL:109,1897
FNA:109,0,_ZN4mlir7cpp2fir9ChannelOp5buildERNS_9OpBuilderERNS_14OperationStateENS_9TypeRangeENS_10ValueRangeERKNS0_6detail27ChannelOpGenericAdaptorBase10PropertiesEN4llvm8ArrayRefINS_14NamedAttributeEEE
FNL:110,1906
FNA:110,0,_ZN4mlir7cpp2fir9ChannelOp6createERNS_9OpBuilderENS_8LocationENS_9TypeRangeENS_10ValueRangeERKNS0_6detail27ChannelOpGenericAdaptorBase10PropertiesEN4llvm8ArrayRefINS_14NamedAttributeEEE
FNL:111,1914
FNA:111,0,_ZN4mlir7cpp2fir9ChannelOp6createERNS_20ImplicitLocOpBuilderENS_9TypeRangeENS_10ValueRangeERKNS0_6detail27ChannelOpGenericAdaptorBase10PropertiesEN4llvm8ArrayRefINS_14NamedAttributeEEE
FNL:112,1918
FNA:112,0,_ZN4mlir7cpp2fir9ChannelOp20verifyInvariantsImplEv
FNL:113,193
FNA:113,24,_ZN4mlir7cpp2firL50__mlir_ods_local_region_constraint_Cpp2FIRDialect1EPNS_9OperationERNS_6RegionEN4llvm9StringRefEj
FNL:114,1940
FNA:114,0,_ZN4mlir7cpp2fir9ChannelOp16verifyInvariantsEv
FNL:115,1944
FNA:115,0,_ZN4mlir7cpp2fir9ChannelOp5parseERNS_11OpAsmParserERNS_14OperationStateE
FNL:116,1958
FNA:116,0,_ZZN4mlir7cpp2fir9ChannelOp5parseERNS_11OpAsmParserERNS_14OperationStateEENK3$_0clEv
FNL:117,1983
FNA:117,0,_ZN4mlir7cpp2fir9ChannelOp5printERNS_12OpAsmPrinterE
FNL:118,2018
FNA:118,0,_ZN4mlir7cpp2fir6detail23CmpOpGenericAdaptorBaseC1ENS0_5CmpOpE
FNA:118,0,_ZN4mlir7cpp2fir6detail23CmpOpGenericAdaptorBaseC2ENS0_5CmpOpE
FNL:119,2020
FNA:119,0,_ZN4mlir7cpp2fir6detail23CmpOpGenericAdaptorBase12getPredicateEv
FNL:120,2026
FNA:120,0,_ZN4mlir7cpp2fir12CmpOpAdaptorC1ENS0_5CmpOpE
FNA:120,0,_ZN4mlir7cpp2fir12CmpOpAdaptorC2ENS0_5CmpOpE
FNL:121,2028
FNA:121,0,_ZN4mlir7cpp2fir12CmpOpAdaptor6verifyENS_8LocationE
FNL:122,2037
FNA:122,0,_ZN4mlir7cpp2fir5CmpOp21setPropertiesFromAttrERNS0_6detail23CmpOpGenericAdaptorBase10PropertiesENS_9AttributeEN4llvm12function_refIFNS_18InFlightDiagnosticEvEEE
FNL:123,2060
FNA:123,0,_ZN4mlir7cpp2fir5CmpOp19getPropertiesAsAttrEPNS_11MLIRContextERKNS0_6detail23CmpOpGenericAdaptorBase10PropertiesE
FNL:124,2076
FNA:124,0,_ZN4mlir7cpp2fir5CmpOp21computePropertiesHashERKNS0_6detail23CmpOpGenericAdaptorBase10PropertiesE
FNL:125,2082
FNA:125,0,_ZN4mlir7cpp2fir5CmpOp15getInherentAttrEPNS_11MLIRContextERKNS0_6detail23CmpOpGenericAdaptorBase10PropertiesEN4llvm9StringRefE
FNL:126,2088
FNA:126,0,_ZN4mlir7cpp2fir5CmpOp15setInherentAttrERNS0_6detail23CmpOpGenericAdaptorBase10PropertiesEN4llvm9StringRefENS_9AttributeE
FNL:127,2095
FNA:127,2,_ZN4mlir7cpp2fir5CmpOp21populateInherentAttrsEPNS_11MLIRContextERKNS0_6detail23CmpOpGenericAdaptorBase10PropertiesERNS_13NamedAttrListE
FNL:128,2099
FNA:128,0,_ZN4mlir7cpp2fir5CmpOp19verifyInherentAttrsENS_13OperationNameERNS_13NamedAttrListEN4llvm12function_refIFNS_18InFlightDiagnosticEvEEE
FNL:129,2108
FNA:129,0,_ZN4mlir7cpp2fir5CmpOp14readPropertiesERNS_21DialectBytecodeReaderERNS_14OperationStateE
FNL:130,2115
FNA:130,0,_ZN4mlir7cpp2fir5CmpOp15writePropertiesERNS_21DialectBytecodeWriterE
FNL:131,2120
FNA:131,1,_ZN4mlir7cpp2fir5CmpOp12getPredicateEv
FNL:132,2125
FNA:132,0,_ZN4mlir7cpp2fir5CmpOp12setPredicateEN4llvm9StringRefE
FNL:133,2129
FNA:133,2,_ZN4mlir7cpp2fir5CmpOp5buildERNS_9OpBuilderERNS_14OperationStateENS_4TypeENS_5ValueES7_NS_10StringAttrE
FNL:134,213
FNA:134,0,_ZN4mlir7cpp2fir6detail23AddOpGenericAdaptorBaseC1ENS0_5AddOpE
FNA:134,0,_ZN4mlir7cpp2fir6detail23AddOpGenericAdaptorBaseC2ENS0_5AddOpE
FNL:135,2136
FNA:135,0,_ZN4mlir7cpp2fir5CmpOp6createERNS_9OpBuilderENS_8LocationENS_4TypeENS_5ValueES6_NS_10StringAttrE
FNL:136,2144
FNA:136,0,_ZN4mlir7cpp2fir5CmpOp6createERNS_20ImplicitLocOpBuilderENS_4TypeENS_5ValueES5_NS_10StringAttrE
FNL:137,2148
FNA:137,0,_ZN4mlir7cpp2fir5CmpOp5buildERNS_9OpBuilderERNS_14OperationStateENS_9TypeRangeENS_5ValueES7_NS_10StringAttrE
FNL:138,2156
FNA:138,0,_ZN4mlir7cpp2fir5CmpOp6createERNS_9OpBuilderENS_8LocationENS_9TypeRangeENS_5ValueES6_NS_10StringAttrE
FNL:139,216
FNA:139,0,_ZN4mlir7cpp2fir12AddOpAdaptorC1ENS0_5AddOpE
FNA:139,0,_ZN4mlir7cpp2fir12AddOpAdaptorC2ENS0_5AddOpE
FNL:140,2164
FNA:140,0,_ZN4mlir7cpp2fir5CmpOp6createERNS_20ImplicitLocOpBuilderENS_9TypeRangeENS_5ValueES5_NS_10StringAttrE
FNL:141,2168
FNA:141,0,_ZN4mlir7cpp2fir5CmpOp5buildERNS_9OpBuilderERNS_14OperationStateENS_4TypeENS_5ValueES7_N4llvm9StringRefE
FNL:142,2175
FNA:142,0,_ZN4mlir7cpp2fir5CmpOp6createERNS_9OpBuilderENS_8LocationENS_4TypeENS_5ValueES6_N4llvm9StringRefE
FNL:143,218
FNA:143,0,_ZN4mlir7cpp2fir12AddOpAdaptor6verifyENS_8LocationE
FNL:144,2183
FNA:144,0,_ZN4mlir7cpp2fir5CmpOp6createERNS_20ImplicitLocOpBuilderENS_4TypeENS_5ValueES5_N4llvm9StringRefE
FNL:145,2187
FNA:145,0,_ZN4mlir7cpp2fir5CmpOp5buildERNS_9OpBuilderERNS_14OperationStateENS_9TypeRangeENS_5ValueES7_N4llvm9StringRefE
FNL:146,2195
FNA:146,0,_ZN4mlir7cpp2fir5CmpOp6createERNS_9OpBuilderENS_8LocationENS_9TypeRangeENS_5ValueES6_N4llvm9StringRefE
FNL:147,2203
FNA:147,0,_ZN4mlir7cpp2fir5CmpOp6createERNS_20ImplicitLocOpBuilderENS_9TypeRangeENS_5ValueES5_N4llvm9StringRefE
FNL:148,2207
FNA:148,0,_ZN4mlir7cpp2fir5CmpOp5buildERNS_9OpBuilderERNS_14OperationStateENS_9TypeRangeENS_10ValueRangeEN4llvm8ArrayRefINS_14NamedAttributeEEE
FNL:149,222
FNA:149,0,_ZN4mlir7cpp2fir5AddOp21setPropertiesFromAttrERNS_15EmptyPropertiesENS_9AttributeEN4llvm12function_refIFNS_18InFlightDiagnosticEvEEE
FNL:150,2225
FNA:150,0,_ZN4mlir7cpp2fir5CmpOp6createERNS_9OpBuilderENS_8LocationENS_9TypeRangeENS_10ValueRangeEN4llvm8ArrayRefINS_14NamedAttributeEEE
FNL:151,2233
FNA:151,0,_ZN4mlir7cpp2fir5CmpOp6createERNS_20ImplicitLocOpBuilderENS_9TypeRangeENS_10ValueRangeEN4llvm8ArrayRefINS_14NamedAttributeEEE
FNL:152,2237
FNA:152,0,_ZN4mlir7cpp2fir5CmpOp5buildERNS_9OpBuilderERNS_14OperationStateENS_9TypeRangeENS_10ValueRangeERKNS0_6detail23CmpOpGenericAdaptorBase10PropertiesEN4llvm8ArrayRefINS_14NamedAttributeEEE
FNL:153,2246
FNA:153,0,_ZN4mlir7cpp2fir5CmpOp6createERNS_9OpBuilderENS_8LocationENS_9TypeRangeENS_10ValueRangeERKNS0_6detail23CmpOpGenericAdaptorBase10PropertiesEN4llvm8ArrayRefINS_14NamedAttributeEEE
FNL:154,2254
FNA:154,0,_ZN4mlir7cpp2fir5CmpOp6createERNS_20ImplicitLocOpBuilderENS_9TypeRangeENS_10ValueRangeERKNS0_6detail23CmpOpGenericAdaptorBase10PropertiesEN4llvm8ArrayRefINS_14NamedAttributeEEE
FNL:155,2258
FNA:155,1,_ZN4mlir7cpp2fir5CmpOp20verifyInvariantsImplEv
FNL:156,2291
FNA:156,0,_ZN4mlir7cpp2fir5CmpOp16verifyInvariantsEv
FNL:157,2295
FNA:157,0,_ZN4mlir7cpp2fir5CmpOp5parseERNS_11OpAsmParserERNS_14OperationStateE
FNL:158,231
FNA:158,0,_ZN4mlir7cpp2fir5AddOp19getPropertiesAsAttrEPNS_11MLIRContextERKNS_15EmptyPropertiesE
FNL:159,2330
FNA:159,0,_ZZN4mlir7cpp2fir5CmpOp5parseERNS_11OpAsmParserERNS_14OperationStateEENK3$_0clEv
FNL:160,2370
FNA:160,2,_ZN4mlir7cpp2fir5CmpOp5printERNS_12OpAsmPrinterE
FNL:161,240
FNA:161,0,_ZN4mlir7cpp2fir5AddOp21computePropertiesHashERKNS_15EmptyPropertiesE
FNL:162,2411
FNA:162,0,_ZN4mlir7cpp2fir5CmpOp10getEffectsERN4llvm15SmallVectorImplINS_11SideEffects14EffectInstanceINS_13MemoryEffects6EffectEEEEE
FNL:163,2426
FNA:163,0,_ZN4mlir7cpp2fir6detail28ConstantOpGenericAdaptorBaseC1ENS0_10ConstantOpE
FNA:163,0,_ZN4mlir7cpp2fir6detail28ConstantOpGenericAdaptorBaseC2ENS0_10ConstantOpE
FNL:164,2428
FNA:164,0,_ZN4mlir7cpp2fir6detail28ConstantOpGenericAdaptorBase8getValueEv
FNL:165,2434
FNA:165,0,_ZN4mlir7cpp2fir17ConstantOpAdaptorC1ENS0_10ConstantOpE
FNA:165,0,_ZN4mlir7cpp2fir17ConstantOpAdaptorC2ENS0_10ConstantOpE
FNL:166,2436
FNA:166,0,_ZN4mlir7cpp2fir17ConstantOpAdaptor6verifyENS_8LocationE
FNL:167,2445
FNA:167,0,_ZN4mlir7cpp2fir10ConstantOp21setPropertiesFromAttrERNS0_6detail28ConstantOpGenericAdaptorBase10PropertiesENS_9AttributeEN4llvm12function_refIFNS_18InFlightDiagnosticEvEEE
FNL:168,245
FNA:168,0,_ZN4mlir7cpp2fir5AddOp15getInherentAttrEPNS_11MLIRContextERKNS_15EmptyPropertiesEN4llvm9StringRefE
FNL:169,2468
FNA:169,0,_ZN4mlir7cpp2fir10ConstantOp19getPropertiesAsAttrEPNS_11MLIRContextERKNS0_6detail28ConstantOpGenericAdaptorBase10PropertiesE
FNL:170,2484
FNA:170,0,_ZN4mlir7cpp2fir10ConstantOp21computePropertiesHashERKNS0_6detail28ConstantOpGenericAdaptorBase10PropertiesE
FNL:171,249
FNA:171,0,_ZN4mlir7cpp2fir5AddOp15setInherentAttrERNS_15EmptyPropertiesEN4llvm9StringRefENS_9AttributeE
FNL:172,2490
FNA:172,41,_ZN4mlir7cpp2fir10ConstantOp15getInherentAttrEPNS_11MLIRContextERKNS0_6detail28ConstantOpGenericAdaptorBase10PropertiesEN4llvm9StringRefE
FNL:173,2496
FNA:173,41,_ZN4mlir7cpp2fir10ConstantOp15setInherentAttrERNS0_6detail28ConstantOpGenericAdaptorBase10PropertiesEN4llvm9StringRefENS_9AttributeE
FNL:174,2503
FNA:174,48,_ZN4mlir7cpp2fir10ConstantOp21populateInherentAttrsEPNS_11MLIRContextERKNS0_6detail28ConstantOpGenericAdaptorBase10PropertiesERNS_13NamedAttrListE
FNL:175,2507
FNA:175,0,_ZN4mlir7cpp2fir10ConstantOp19verifyInherentAttrsENS_13OperationNameERNS_13NamedAttrListEN4llvm12function_refIFNS_18InFlightDiagnosticEvEEE
FNL:176,2516
FNA:176,0,_ZN4mlir7cpp2fir10ConstantOp14readPropertiesERNS_21DialectBytecodeReaderERNS_14OperationStateE
FNL:177,252
FNA:177,0,_ZN4mlir7cpp2fir5AddOp21populateInherentAttrsEPNS_11MLIRContextERKNS_15EmptyPropertiesERNS_13NamedAttrListE
FNL:178,2523
FNA:178,0,_ZN4mlir7cpp2fir10ConstantOp15writePropertiesERNS_21DialectBytecodeWriterE
FNL:179,2528
FNA:179,107,_ZN4mlir7cpp2fir10ConstantOp8getValueEv
FNL:180,2533
FNA:180,41,_ZN4mlir7cpp2fir10ConstantOp5buildERNS_9OpBuilderERNS_14OperationStateENS_4TypeENS_9AttributeE
FNL:181,2539
FNA:181,0,_ZN4mlir7cpp2fir10ConstantOp6createERNS_9OpBuilderENS_8LocationENS_4TypeENS_9AttributeE
FNL:182,2547
FNA:182,0,_ZN4mlir7cpp2fir10ConstantOp6createERNS_20ImplicitLocOpBuilderENS_4TypeENS_9AttributeE
FNL:183,255
FNA:183,0,_ZN4mlir7cpp2fir5AddOp19verifyInherentAttrsENS_13OperationNameERNS_13NamedAttrListEN4llvm12function_refIFNS_18InFlightDiagnosticEvEEE
FNL:184,2551
FNA:184,0,_ZN4mlir7cpp2fir10ConstantOp5buildERNS_9OpBuilderERNS_14OperationStateENS_9TypeRangeENS_9AttributeE
FNL:185,2557
FNA:185,0,_ZN4mlir7cpp2fir10ConstantOp6createERNS_9OpBuilderENS_8LocationENS_9TypeRangeENS_9AttributeE
FNL:186,2565
FNA:186,0,_ZN4mlir7cpp2fir10ConstantOp6createERNS_20ImplicitLocOpBuilderENS_9TypeRangeENS_9AttributeE
FNL:187,2569
FNA:187,0,_ZN4mlir7cpp2fir10ConstantOp5buildERNS_9OpBuilderERNS_14OperationStateENS_9TypeRangeENS_10ValueRangeEN4llvm8ArrayRefINS_14NamedAttributeEEE
FNL:188,2587
FNA:188,0,_ZN4mlir7cpp2fir10ConstantOp6createERNS_9OpBuilderENS_8LocationENS_9TypeRangeENS_10ValueRangeEN4llvm8ArrayRefINS_14NamedAttributeEEE
FNL:189,259
FNA:189,3,_ZN4mlir7cpp2fir5AddOp5buildERNS_9OpBuilderERNS_14OperationStateENS_4TypeENS_5ValueES7_
FNL:190,2595
FNA:190,0,_ZN4mlir7cpp2fir10ConstantOp6createERNS_20ImplicitLocOpBuilderENS_9TypeRangeENS_10ValueRangeEN4llvm8ArrayRefINS_14NamedAttributeEEE
FNL:191,2599
FNA:191,0,_ZN4mlir7cpp2fir10ConstantOp5buildERNS_9OpBuilderERNS_14OperationStateENS_9TypeRangeENS_10ValueRangeERKNS0_6detail28ConstantOpGenericAdaptorBase10PropertiesEN4llvm8ArrayRefINS_14NamedAttributeEEE
FNL:192,2608
FNA:192,0,_ZN4mlir7cpp2fir10ConstantOp6createERNS_9OpBuilderENS_8LocationENS_9TypeRangeENS_10ValueRangeERKNS0_6detail28ConstantOpGenericAdaptorBase10PropertiesEN4llvm8ArrayRefINS_14NamedAttributeEEE
FNL:193,2616
FNA:193,0,_ZN4mlir7cpp2fir10ConstantOp6createERNS_20ImplicitLocOpBuilderENS_9TypeRangeENS_10ValueRangeERKNS0_6detail28ConstantOpGenericAdaptorBase10PropertiesEN4llvm8ArrayRefINS_14NamedAttributeEEE
FNL:194,2620
FNA:194,51,_ZN4mlir7cpp2fir10ConstantOp20verifyInvariantsImplEv
FNL:195,2638
FNA:195,0,_ZN4mlir7cpp2fir10ConstantOp16verifyInvariantsEv
FNL:196,2642
FNA:196,0,_ZN4mlir7cpp2fir10ConstantOp27setPropertiesFromParsedAttrERNS0_6detail28ConstantOpGenericAdaptorBase10PropertiesENS_9AttributeEN4llvm12function_refIFNS_18InFlightDiagnosticEvEEE
FNL:197,265
FNA:197,0,_ZN4mlir7cpp2fir5AddOp6createERNS_9OpBuilderENS_8LocationENS_4TypeENS_5ValueES6_
FNL:198,2683
FNA:198,0,_ZN4mlir7cpp2fir10ConstantOp10getEffectsERN4llvm15SmallVectorImplINS_11SideEffects14EffectInstanceINS_13MemoryEffects6EffectEEEEE
FNL:199,2698
FNA:199,0,_ZN4mlir7cpp2fir6detail34CoroutineScopeOpGenericAdaptorBaseC1ENS0_16CoroutineScopeOpE
FNA:199,0,_ZN4mlir7cpp2fir6detail34CoroutineScopeOpGenericAdaptorBaseC2ENS0_16CoroutineScopeOpE
FNL:200,2701
FNA:200,0,_ZN4mlir7cpp2fir23CoroutineScopeOpAdaptorC1ENS0_16CoroutineScopeOpE
FNA:200,0,_ZN4mlir7cpp2fir23CoroutineScopeOpAdaptorC2ENS0_16CoroutineScopeOpE
FNL:201,2703
FNA:201,0,_ZN4mlir7cpp2fir23CoroutineScopeOpAdaptor6verifyENS_8LocationE
FNL:202,2707
FNA:202,0,_ZN4mlir7cpp2fir16CoroutineScopeOp21setPropertiesFromAttrERNS_15EmptyPropertiesENS_9AttributeEN4llvm12function_refIFNS_18InFlightDiagnosticEvEEE
FNL:203,2716
FNA:203,0,_ZN4mlir7cpp2fir16CoroutineScopeOp19getPropertiesAsAttrEPNS_11MLIRContextERKNS_15EmptyPropertiesE
FNL:204,2725
FNA:204,0,_ZN4mlir7cpp2fir16CoroutineScopeOp21computePropertiesHashERKNS_15EmptyPropertiesE
FNL:205,273
FNA:205,0,_ZN4mlir7cpp2fir5AddOp6createERNS_20ImplicitLocOpBuilderENS_4TypeENS_5ValueES5_
FNL:206,2730
FNA:206,0,_ZN4mlir7cpp2fir16CoroutineScopeOp15getInherentAttrEPNS_11MLIRContextERKNS_15EmptyPropertiesEN4llvm9StringRefE
FNL:207,2734
FNA:207,0,_ZN4mlir7cpp2fir16CoroutineScopeOp15setInherentAttrERNS_15EmptyPropertiesEN4llvm9StringRefENS_9AttributeE
FNL:208,2737
FNA:208,0,_ZN4mlir7cpp2fir16CoroutineScopeOp21populateInherentAttrsEPNS_11MLIRContextERKNS_15EmptyPropertiesERNS_13NamedAttrListE
FNL:209,2740
FNA:209,0,_ZN4mlir7cpp2fir16CoroutineScopeOp19verifyInherentAttrsENS_13OperationNameERNS_13NamedAttrListEN4llvm12function_refIFNS_18InFlightDiagnosticEvEEE
FNL:210,2744
FNA:210,0,_ZN4mlir7cpp2fir16CoroutineScopeOp5buildERNS_9OpBuilderERNS_14OperationStateE
FNL:211,2748
FNA:211,0,_ZN4mlir7cpp2fir16CoroutineScopeOp6createERNS_9OpBuilderENS_8LocationE
FNL:212,2756
FNA:212,0,_ZN4mlir7cpp2fir16CoroutineScopeOp6createERNS_20ImplicitLocOpBuilderE
FNL:213,2760
FNA:213,0,_ZN4mlir7cpp2fir16CoroutineScopeOp5buildERNS_9OpBuilderERNS_14OperationStateENS_9TypeRangeE
FNL:214,2766
FNA:214,0,_ZN4mlir7cpp2fir16CoroutineScopeOp6createERNS_9OpBuilderENS_8LocationENS_9TypeRangeE
FNL:215,277
FNA:215,0,_ZN4mlir7cpp2fir5AddOp5buildERNS_9OpBuilderERNS_14OperationStateENS_9TypeRangeENS_5ValueES7_
FNL:216,2774
FNA:216,0,_ZN4mlir7cpp2fir16CoroutineScopeOp6createERNS_20ImplicitLocOpBuilderENS_9TypeRangeE
FNL:217,2778
FNA:217,0,_ZN4mlir7cpp2fir16CoroutineScopeOp5buildERNS_9OpBuilderERNS_14OperationStateENS_9TypeRangeENS_10ValueRangeEN4llvm8ArrayRefINS_14NamedAttributeEEE
FNL:218,2788
FNA:218,0,_ZN4mlir7cpp2fir16CoroutineScopeOp6createERNS_9OpBuilderENS_8LocationENS_9TypeRangeENS_10ValueRangeEN4llvm8ArrayRefINS_14NamedAttributeEEE
FNL:219,2796
FNA:219,0,_ZN4mlir7cpp2fir16CoroutineScopeOp6createERNS_20ImplicitLocOpBuilderENS_9TypeRangeENS_10ValueRangeEN4llvm8ArrayRefINS_14NamedAttributeEEE
FNL:220,2800
FNA:220,0,_ZN4mlir7cpp2fir16CoroutineScopeOp5buildERNS_9OpBuilderERNS_14OperationStateENS_9TypeRangeENS_10ValueRangeERKNS_15EmptyPropertiesEN4llvm8ArrayRefINS_14NamedAttributeEEE
FNL:221,2811
FNA:221,0,_ZN4mlir7cpp2fir16CoroutineScopeOp6createERNS_9OpBuilderENS_8LocationENS_9TypeRangeENS_10ValueRangeERKNS_15EmptyPropertiesEN4llvm8ArrayRefINS_14NamedAttributeEEE
FNL:222,2819
FNA:222,0,_ZN4mlir7cpp2fir16CoroutineScopeOp6createERNS_20ImplicitLocOpBuilderENS_9TypeRangeENS_10ValueRangeERKNS_15EmptyPropertiesEN4llvm8ArrayRefINS_14NamedAttributeEEE
FNL:223,2823
FNA:223,0,_ZN4mlir7cpp2fir16CoroutineScopeOp20verifyInvariantsImplEv
FNL:224,2834
FNA:224,0,_ZN4mlir7cpp2fir16CoroutineScopeOp16verifyInvariantsEv
FNL:225,2838
FNA:225,0,_ZN4mlir7cpp2fir16CoroutineScopeOp5parseERNS_11OpAsmParserERNS_14OperationStateE
FNL:226,284
FNA:226,0,_ZN4mlir7cpp2fir5AddOp6createERNS_9OpBuilderENS_8LocationENS_9TypeRangeENS_5ValueES6_
FNL:227,2847
FNA:227,0,_ZZN4mlir7cpp2fir16CoroutineScopeOp5parseERNS_11OpAsmParserERNS_14OperationStateEENK3$_0clEv
FNL:228,2856
FNA:228,0,_ZN4mlir7cpp2fir16CoroutineScopeOp5printERNS_12OpAsmPrinterE
FNL:229,2875
FNA:229,0,_ZN4mlir7cpp2fir6detail23DivOpGenericAdaptorBaseC1ENS0_5DivOpE
FNA:229,0,_ZN4mlir7cpp2fir6detail23DivOpGenericAdaptorBaseC2ENS0_5DivOpE
FNL:230,2878
FNA:230,0,_ZN4mlir7cpp2fir12DivOpAdaptorC1ENS0_5DivOpE
FNA:230,0,_ZN4mlir7cpp2fir12DivOpAdaptorC2ENS0_5DivOpE
FNL:231,2880
FNA:231,0,_ZN4mlir7cpp2fir12DivOpAdaptor6verifyENS_8LocationE
FNL:232,2884
FNA:232,0,_ZN4mlir7cpp2fir5DivOp21setPropertiesFromAttrERNS_15EmptyPropertiesENS_9AttributeEN4llvm12function_refIFNS_18InFlightDiagnosticEvEEE
FNL:233,2893
FNA:233,0,_ZN4mlir7cpp2fir5DivOp19getPropertiesAsAttrEPNS_11MLIRContextERKNS_15EmptyPropertiesE
FNL:234,2902
FNA:234,0,_ZN4mlir7cpp2fir5DivOp21computePropertiesHashERKNS_15EmptyPropertiesE
FNL:235,2907
FNA:235,0,_ZN4mlir7cpp2fir5DivOp15getInherentAttrEPNS_11MLIRContextERKNS_15EmptyPropertiesEN4llvm9StringRefE
FNL:236,2911
FNA:236,0,_ZN4mlir7cpp2fir5DivOp15setInherentAttrERNS_15EmptyPropertiesEN4llvm9StringRefENS_9AttributeE
FNL:237,2914
FNA:237,0,_ZN4mlir7cpp2fir5DivOp21populateInherentAttrsEPNS_11MLIRContextERKNS_15EmptyPropertiesERNS_13NamedAttrListE
FNL:238,2917
FNA:238,0,_ZN4mlir7cpp2fir5DivOp19verifyInherentAttrsENS_13OperationNameERNS_13NamedAttrListEN4llvm12function_refIFNS_18InFlightDiagnosticEvEEE
FNL:239,292
FNA:239,0,_ZN4mlir7cpp2fir5AddOp6createERNS_20ImplicitLocOpBuilderENS_9TypeRangeENS_5ValueES5_
FNL:240,2921
FNA:240,1,_ZN4mlir7cpp2fir5DivOp5buildERNS_9OpBuilderERNS_14OperationStateENS_4TypeENS_5ValueES7_
FNL:241,2927
FNA:241,0,_ZN4mlir7cpp2fir5DivOp6createERNS_9OpBuilderENS_8LocationENS_4TypeENS_5ValueES6_
FNL:242,2935
FNA:242,0,_ZN4mlir7cpp2fir5DivOp6createERNS_20ImplicitLocOpBuilderENS_4TypeENS_5ValueES5_
FNL:243,2939
FNA:243,0,_ZN4mlir7cpp2fir5DivOp5buildERNS_9OpBuilderERNS_14OperationStateENS_9TypeRangeENS_5ValueES7_
FNL:244,2946
FNA:244,0,_ZN4mlir7cpp2fir5DivOp6createERNS_9OpBuilderENS_8LocationENS_9TypeRangeENS_5ValueES6_
FNL:245,2954
FNA:245,0,_ZN4mlir7cpp2fir5DivOp6createERNS_20ImplicitLocOpBuilderENS_9TypeRangeENS_5ValueES5_
FNL:246,2958
FNA:246,0,_ZN4mlir7cpp2fir5DivOp5buildERNS_9OpBuilderERNS_14OperationStateENS_9TypeRangeENS_10ValueRangeEN4llvm8ArrayRefINS_14NamedAttributeEEE
FNL:247,296
FNA:247,0,_ZN4mlir7cpp2fir5AddOp5buildERNS_9OpBuilderERNS_14OperationStateENS_9TypeRangeENS_10ValueRangeEN4llvm8ArrayRefINS_14NamedAttributeEEE
FNL:248,2966
FNA:248,0,_ZN4mlir7cpp2fir5DivOp6createERNS_9OpBuilderENS_8LocationENS_9TypeRangeENS_10ValueRangeEN4llvm8ArrayRefINS_14NamedAttributeEEE
FNL:249,2974
FNA:249,0,_ZN4mlir7cpp2fir5DivOp6createERNS_20ImplicitLocOpBuilderENS_9TypeRangeENS_10ValueRangeEN4llvm8ArrayRefINS_14NamedAttributeEEE
FNL:250,2978
FNA:250,0,_ZN4mlir7cpp2fir5DivOp5buildERNS_9OpBuilderERNS_14OperationStateENS_9TypeRangeENS_10ValueRangeERKNS_15EmptyPropertiesEN4llvm8ArrayRefINS_14NamedAttributeEEE
FNL:251,2987
FNA:251,0,_ZN4mlir7cpp2fir5DivOp6createERNS_9OpBuilderENS_8LocationENS_9TypeRangeENS_10ValueRangeERKNS_15EmptyPropertiesEN4llvm8ArrayRefINS_14NamedAttributeEEE
FNL:252,2995
FNA:252,0,_ZN4mlir7cpp2fir5DivOp6createERNS_20ImplicitLocOpBuilderENS_9TypeRangeENS_10ValueRangeERKNS_15EmptyPropertiesEN4llvm8ArrayRefINS_14NamedAttributeEEE
FNL:253,2999
FNA:253,1,_ZN4mlir7cpp2fir5DivOp20verifyInvariantsImplEv
FNL:254,3027
FNA:254,0,_ZN4mlir7cpp2fir5DivOp16verifyInvariantsEv
FNL:255,3031
FNA:255,0,_ZN4mlir7cpp2fir5DivOp5parseERNS_11OpAsmParserERNS_14OperationStateE
FNL:256,304
FNA:256,0,_ZN4mlir7cpp2fir5AddOp6createERNS_9OpBuilderENS_8LocationENS_9TypeRangeENS_10ValueRangeEN4llvm8ArrayRefINS_14NamedAttributeEEE
FNL:257,3058
FNA:257,0,_ZZN4mlir7cpp2fir5DivOp5parseERNS_11OpAsmParserERNS_14OperationStateEENK3$_0clEv
FNL:258,3098
FNA:258,2,_ZN4mlir7cpp2fir5DivOp5printERNS_12OpAsmPrinterE
FNL:259,312
FNA:259,0,_ZN4mlir7cpp2fir5AddOp6createERNS_20ImplicitLocOpBuilderENS_9TypeRangeENS_10ValueRangeEN4llvm8ArrayRefINS_14NamedAttributeEEE
FNL:260,3135
FNA:260,0,_ZN4mlir7cpp2fir5DivOp10getEffectsERN4llvm15SmallVectorImplINS_11SideEffects14EffectInstanceINS_13MemoryEffects6EffectEEEEE
FNL:261,3150
FNA:261,0,_ZN4mlir7cpp2fir6detail24FuncOpGenericAdaptorBaseC1ENS0_6FuncOpE
FNA:261,0,_ZN4mlir7cpp2fir6detail24FuncOpGenericAdaptorBaseC2ENS0_6FuncOpE
FNL:262,3152
FNA:262,0,_ZN4mlir7cpp2fir6detail24FuncOpGenericAdaptorBase10getSymNameEv
FNL:263,3157
FNA:263,0,_ZN4mlir7cpp2fir6detail24FuncOpGenericAdaptorBase15getFunctionTypeEv
FNL:264,316
FNA:264,0,_ZN4mlir7cpp2fir5AddOp5buildERNS_9OpBuilderERNS_14OperationStateENS_9TypeRangeENS_10ValueRangeERKNS_15EmptyPropertiesEN4llvm8ArrayRefINS_14NamedAttributeEEE
FNL:265,3162
FNA:265,0,_ZN4mlir7cpp2fir6detail24FuncOpGenericAdaptorBase11getArgAttrsEv
FNL:266,3167
FNA:266,0,_ZN4mlir7cpp2fir6detail24FuncOpGenericAdaptorBase11getResAttrsEv
FNL:267,3173
FNA:267,0,_ZN4mlir7cpp2fir13FuncOpAdaptorC1ENS0_6FuncOpE
FNA:267,0,_ZN4mlir7cpp2fir13FuncOpAdaptorC2ENS0_6FuncOpE
FNL:268,3175
FNA:268,0,_ZN4mlir7cpp2fir13FuncOpAdaptor6verifyENS_8LocationE
FNL:269,3197
FNA:269,0,_ZN4mlir7cpp2fir6FuncOp21setPropertiesFromAttrERNS0_6detail24FuncOpGenericAdaptorBase10PropertiesENS_9AttributeEN4llvm12function_refIFNS_18InFlightDiagnosticEvEEE
FNL:270,325
FNA:270,0,_ZN4mlir7cpp2fir5AddOp6createERNS_9OpBuilderENS_8LocationENS_9TypeRangeENS_10ValueRangeERKNS_15EmptyPropertiesEN4llvm8ArrayRefINS_14NamedAttributeEEE
FNL:271,3262
FNA:271,0,_ZN4mlir7cpp2fir6FuncOp19getPropertiesAsAttrEPNS_11MLIRContextERKNS0_6detail24FuncOpGenericAdaptorBase10PropertiesE
FNL:272,3299
FNA:272,0,_ZN4mlir7cpp2fir6FuncOp21computePropertiesHashERKNS0_6detail24FuncOpGenericAdaptorBase10PropertiesE
FNL:273,3308
FNA:273,78,_ZN4mlir7cpp2fir6FuncOp15getInherentAttrEPNS_11MLIRContextERKNS0_6detail24FuncOpGenericAdaptorBase10PropertiesEN4llvm9StringRefE
FNL:274,3323
FNA:274,0,_ZN4mlir7cpp2fir6FuncOp15setInherentAttrERNS0_6detail24FuncOpGenericAdaptorBase10PropertiesEN4llvm9StringRefENS_9AttributeE
FNL:275,333
FNA:275,0,_ZN4mlir7cpp2fir5AddOp6createERNS_20ImplicitLocOpBuilderENS_9TypeRangeENS_10ValueRangeERKNS_15EmptyPropertiesEN4llvm8ArrayRefINS_14NamedAttributeEEE
FNL:276,3345
FNA:276,22,_ZN4mlir7cpp2fir6FuncOp21populateInherentAttrsEPNS_11MLIRContextERKNS0_6detail24FuncOpGenericAdaptorBase10PropertiesERNS_13NamedAttrListE
FNL:277,3355
FNA:277,0,_ZN4mlir7cpp2fir6FuncOp19verifyInherentAttrsENS_13OperationNameERNS_13NamedAttrListEN4llvm12function_refIFNS_18InFlightDiagnosticEvEEE
FNL:278,337
FNA:278,6,_ZN4mlir7cpp2fir5AddOp20verifyInvariantsImplEv
FNL:279,3382
FNA:279,0,_ZN4mlir7cpp2fir6FuncOp14readPropertiesERNS_21DialectBytecodeReaderERNS_14OperationStateE
FNL:280,3398
FNA:280,0,_ZN4mlir7cpp2fir6FuncOp15writePropertiesERNS_21DialectBytecodeWriterE
FNL:281,3408
FNA:281,0,_ZN4mlir7cpp2fir6FuncOp10getSymNameEv
FNL:282,3413
FNA:282,66,_ZN4mlir7cpp2fir6FuncOp15getFunctionTypeEv
FNL:283,3418
FNA:283,0,_ZN4mlir7cpp2fir6FuncOp11getArgAttrsEv
FNL:284,3423
FNA:284,0,_ZN4mlir7cpp2fir6FuncOp11getResAttrsEv
FNL:285,3428
FNA:285,0,_ZN4mlir7cpp2fir6FuncOp10setSymNameEN4llvm9StringRefE
FNL:286,3432
FNA:286,0,_ZN4mlir7cpp2fir6FuncOp15setFunctionTypeENS_12FunctionTypeE
FNL:287,3436
FNA:287,23,_ZN4mlir7cpp2fir6FuncOp5buildERNS_9OpBuilderERNS_14OperationStateENS_10StringAttrENS_8TypeAttrENS_9ArrayAttrES8_
FNL:288,3448
FNA:288,0,_ZN4mlir7cpp2fir6FuncOp6createERNS_9OpBuilderENS_8LocationENS_10StringAttrENS_8TypeAttrENS_9ArrayAttrES7_
FNL:289,3456
FNA:289,0,_ZN4mlir7cpp2fir6FuncOp6createERNS_20ImplicitLocOpBuilderENS_10StringAttrENS_8TypeAttrENS_9ArrayAttrES6_
FNL:290,3460
FNA:290,0,_ZN4mlir7cpp2fir6FuncOp5buildERNS_9OpBuilderERNS_14OperationStateENS_9TypeRangeENS_10StringAttrENS_8TypeAttrENS_9ArrayAttrES9_
FNL:291,3474
FNA:291,0,_ZN4mlir7cpp2fir6FuncOp6createERNS_9OpBuilderENS_8LocationENS_9TypeRangeENS_10StringAttrENS_8TypeAttrENS_9ArrayAttrES8_
FNL:292,3482
FNA:292,0,_ZN4mlir7cpp2fir6FuncOp6createERNS_20ImplicitLocOpBuilderENS_9TypeRangeENS_10StringAttrENS_8TypeAttrENS_9ArrayAttrES7_
FNL:293,3486
FNA:293,0,_ZN4mlir7cpp2fir6FuncOp5buildERNS_9OpBuilderERNS_14OperationStateEN4llvm9StringRefENS_12FunctionTypeENS_9ArrayAttrES9_
FNL:294,3498
FNA:294,0,_ZN4mlir7cpp2fir6FuncOp6createERNS_9OpBuilderENS_8LocationEN4llvm9StringRefENS_12FunctionTypeENS_9ArrayAttrES8_
FNL:295,3506
FNA:295,0,_ZN4mlir7cpp2fir6FuncOp6createERNS_20ImplicitLocOpBuilderEN4llvm9StringRefENS_12FunctionTypeENS_9ArrayAttrES7_
FNL:296,3510
FNA:296,0,_ZN4mlir7cpp2fir6FuncOp5buildERNS_9OpBuilderERNS_14OperationStateENS_9TypeRangeEN4llvm9StringRefENS_12FunctionTypeENS_9ArrayAttrESA_
FNL:297,3524
FNA:297,0,_ZN4mlir7cpp2fir6FuncOp6createERNS_9OpBuilderENS_8LocationENS_9TypeRangeEN4llvm9StringRefENS_12FunctionTypeENS_9ArrayAttrES9_
FNL:298,3532
FNA:298,0,_ZN4mlir7cpp2fir6FuncOp6createERNS_20ImplicitLocOpBuilderENS_9TypeRangeEN4llvm9StringRefENS_12FunctionTypeENS_9ArrayAttrES8_
FNL:299,3536
FNA:299,0,_ZN4mlir7cpp2fir6FuncOp5buildERNS_9OpBuilderERNS_14OperationStateENS_9TypeRangeENS_10ValueRangeEN4llvm8ArrayRefINS_14NamedAttributeEEE
FNL:300,3556
FNA:300,0,_ZN4mlir7cpp2fir6FuncOp6createERNS_9OpBuilderENS_8LocationENS_9TypeRangeENS_10ValueRangeEN4llvm8ArrayRefINS_14NamedAttributeEEE
FNL:301,3564
FNA:301,0,_ZN4mlir7cpp2fir6FuncOp6createERNS_20ImplicitLocOpBuilderENS_9TypeRangeENS_10ValueRangeEN4llvm8ArrayRefINS_14NamedAttributeEEE
FNL:302,3568
FNA:302,0,_ZN4mlir7cpp2fir6FuncOp5buildERNS_9OpBuilderERNS_14OperationStateENS_9TypeRangeENS_10ValueRangeERKNS0_6detail24FuncOpGenericAdaptorBase10PropertiesEN4llvm8ArrayRefINS_14NamedAttributeEEE
FNL:303,3579
FNA:303,0,_ZN4mlir7cpp2fir6FuncOp6createERNS_9OpBuilderENS_8LocationENS_9TypeRangeENS_10ValueRangeERKNS0_6detail24FuncOpGenericAdaptorBase10PropertiesEN4llvm8ArrayRefINS_14NamedAttributeEEE
FNL:304,3587
FNA:304,0,_ZN4mlir7cpp2fir6FuncOp6createERNS_20ImplicitLocOpBuilderENS_9TypeRangeENS_10ValueRangeERKNS0_6detail24FuncOpGenericAdaptorBase10PropertiesEN4llvm8ArrayRefINS_14NamedAttributeEEE
FNL:305,3591
FNA:305,24,_ZN4mlir7cpp2fir6FuncOp20verifyInvariantsImplEv
FNL:306,3620
FNA:306,0,_ZN4mlir7cpp2fir6FuncOp16verifyInvariantsEv
FNL:307,3624
FNA:307,0,_ZN4mlir7cpp2fir6FuncOp5parseERNS_11OpAsmParserERNS_14OperationStateE
FNL:308,3643
FNA:308,0,_ZZN4mlir7cpp2fir6FuncOp5parseERNS_11OpAsmParserERNS_14OperationStateEENK3$_0clEv
FNL:309,365
FNA:309,0,_ZN4mlir7cpp2fir5AddOp16verifyInvariantsEv
FNL:310,3655
FNA:310,22,_ZN4mlir7cpp2fir6FuncOp5printERNS_12OpAsmPrinterE
FNL:311,3681
FNA:311,0,_ZN4mlir7cpp2fir6detail26KernelOpGenericAdaptorBaseC1ENS0_8KernelOpE
FNA:311,0,_ZN4mlir7cpp2fir6detail26KernelOpGenericAdaptorBaseC2ENS0_8KernelOpE
FNL:312,3683
FNA:312,0,_ZN4mlir7cpp2fir6detail26KernelOpGenericAdaptorBase10getSymNameEv
FNL:313,3688
FNA:313,0,_ZN4mlir7cpp2fir6detail26KernelOpGenericAdaptorBase15getFunctionTypeEv
FNL:314,369
FNA:314,0,_ZN4mlir7cpp2fir5AddOp5parseERNS_11OpAsmParserERNS_14OperationStateE
FNL:315,3693
FNA:315,0,_ZN4mlir7cpp2fir6detail26KernelOpGenericAdaptorBase15getLaunchConfigEv
FNL:316,3698
FNA:316,0,_ZN4mlir7cpp2fir6detail26KernelOpGenericAdaptorBase15getMemoryPolicyEv
FNL:317,3704
FNA:317,0,_ZN4mlir7cpp2fir15KernelOpAdaptorC1ENS0_8KernelOpE
FNA:317,0,_ZN4mlir7cpp2fir15KernelOpAdaptorC2ENS0_8KernelOpE
FNL:318,3706
FNA:318,0,_ZN4mlir7cpp2fir15KernelOpAdaptor6verifyENS_8LocationE
FNL:319,3728
FNA:319,0,_ZN4mlir7cpp2fir8KernelOp21setPropertiesFromAttrERNS0_6detail26KernelOpGenericAdaptorBase10PropertiesENS_9AttributeEN4llvm12function_refIFNS_18InFlightDiagnosticEvEEE
FNL:320,3793
FNA:320,0,_ZN4mlir7cpp2fir8KernelOp19getPropertiesAsAttrEPNS_11MLIRContextERKNS0_6detail26KernelOpGenericAdaptorBase10PropertiesE
FNL:321,3830
FNA:321,0,_ZN4mlir7cpp2fir8KernelOp21computePropertiesHashERKNS0_6detail26KernelOpGenericAdaptorBase10PropertiesE
FNL:322,3839
FNA:322,0,_ZN4mlir7cpp2fir8KernelOp15getInherentAttrEPNS_11MLIRContextERKNS0_6detail26KernelOpGenericAdaptorBase10PropertiesEN4llvm9StringRefE
FNL:323,3854
FNA:323,0,_ZN4mlir7cpp2fir8KernelOp15setInherentAttrERNS0_6detail26KernelOpGenericAdaptorBase10PropertiesEN4llvm9StringRefENS_9AttributeE
FNL:324,3876
FNA:324,0,_ZN4mlir7cpp2fir8KernelOp21populateInherentAttrsEPNS_11MLIRContextERKNS0_6detail26KernelOpGenericAdaptorBase10PropertiesERNS_13NamedAttrListE
FNL:325,3886
FNA:325,0,_ZN4mlir7cpp2fir8KernelOp19verifyInherentAttrsENS_13OperationNameERNS_13NamedAttrListEN4llvm12function_refIFNS_18InFlightDiagnosticEvEEE
FNL:326,3913
FNA:326,0,_ZN4mlir7cpp2fir8KernelOp14readPropertiesERNS_21DialectBytecodeReaderERNS_14OperationStateE
FNL:327,3929
FNA:327,0,_ZN4mlir7cpp2fir8KernelOp15writePropertiesERNS_21DialectBytecodeWriterE
FNL:328,3939
FNA:328,0,_ZN4mlir7cpp2fir8KernelOp10getSymNameEv
FNL:329,3944
FNA:329,0,_ZN4mlir7cpp2fir8KernelOp15getFunctionTypeEv
FNL:330,3949
FNA:330,0,_ZN4mlir7cpp2fir8KernelOp15getLaunchConfigEv
FNL:331,3954
FNA:331,0,_ZN4mlir7cpp2fir8KernelOp15getMemoryPolicyEv
FNL:332,3959
FNA:332,0,_ZN4mlir7cpp2fir8KernelOp10setSymNameEN4llvm9StringRefE
FNL:333,396
FNA:333,0,_ZZN4mlir7cpp2fir5AddOp5parseERNS_11OpAsmParserERNS_14OperationStateEENK3$_0clEv
FNL:334,3963
FNA:334,0,_ZN4mlir7cpp2fir8KernelOp15setFunctionTypeENS_4TypeE
FNL:335,3967
FNA:335,0,_ZN4mlir7cpp2fir8KernelOp15setLaunchConfigENSt3__18optionalIN4llvm9StringRefEEE
FNL:336,3975
FNA:336,0,_ZN4mlir7cpp2fir8KernelOp15setMemoryPolicyENSt3__18optionalIN4llvm9StringRefEEE
FNL:337,3983
FNA:337,0,_ZN4mlir7cpp2fir8KernelOp5buildERNS_9OpBuilderERNS_14OperationStateENS_10StringAttrENS_8TypeAttrES6_S6_
FNL:338,3995
FNA:338,0,_ZN4mlir7cpp2fir8KernelOp6createERNS_9OpBuilderENS_8LocationENS_10StringAttrENS_8TypeAttrES5_S5_
FNL:339,4003
FNA:339,0,_ZN4mlir7cpp2fir8KernelOp6createERNS_20ImplicitLocOpBuilderENS_10StringAttrENS_8TypeAttrES4_S4_
FNL:340,4007
FNA:340,0,_ZN4mlir7cpp2fir8KernelOp5buildERNS_9OpBuilderERNS_14OperationStateENS_9TypeRangeENS_10StringAttrENS_8TypeAttrES7_S7_
FNL:341,4021
FNA:341,0,_ZN4mlir7cpp2fir8KernelOp6createERNS_9OpBuilderENS_8LocationENS_9TypeRangeENS_10StringAttrENS_8TypeAttrES6_S6_
FNL:342,4029
FNA:342,0,_ZN4mlir7cpp2fir8KernelOp6createERNS_20ImplicitLocOpBuilderENS_9TypeRangeENS_10StringAttrENS_8TypeAttrES5_S5_
FNL:343,4033
FNA:343,0,_ZN4mlir7cpp2fir8KernelOp5buildERNS_9OpBuilderERNS_14OperationStateEN4llvm9StringRefENS_4TypeENS_10StringAttrES9_
FNL:344,4045
FNA:344,0,_ZN4mlir7cpp2fir8KernelOp6createERNS_9OpBuilderENS_8LocationEN4llvm9StringRefENS_4TypeENS_10StringAttrES8_
FNL:345,4053
FNA:345,0,_ZN4mlir7cpp2fir8KernelOp6createERNS_20ImplicitLocOpBuilderEN4llvm9StringRefENS_4TypeENS_10StringAttrES7_
FNL:346,4057
FNA:346,0,_ZN4mlir7cpp2fir8KernelOp5buildERNS_9OpBuilderERNS_14OperationStateENS_9TypeRangeEN4llvm9StringRefENS_4TypeENS_10StringAttrESA_
FNL:347,4071
FNA:347,0,_ZN4mlir7cpp2fir8KernelOp6createERNS_9OpBuilderENS_8LocationENS_9TypeRangeEN4llvm9StringRefENS_4TypeENS_10StringAttrES9_
FNL:348,4079
FNA:348,0,_ZN4mlir7cpp2fir8KernelOp6createERNS_20ImplicitLocOpBuilderENS_9TypeRangeEN4llvm9StringRefENS_4TypeENS_10StringAttrES8_
FNL:349,4083
FNA:349,0,_ZN4mlir7cpp2fir8KernelOp5buildERNS_9OpBuilderERNS_14OperationStateENS_9TypeRangeENS_10ValueRangeEN4llvm8ArrayRefINS_14NamedAttributeEEE
FNL:350,4103
FNA:350,0,_ZN4mlir7cpp2fir8KernelOp6createERNS_9OpBuilderENS_8LocationENS_9TypeRangeENS_10ValueRangeEN4llvm8ArrayRefINS_14NamedAttributeEEE
FNL:351,4111
FNA:351,0,_ZN4mlir7cpp2fir8KernelOp6createERNS_20ImplicitLocOpBuilderENS_9TypeRangeENS_10ValueRangeEN4llvm8ArrayRefINS_14NamedAttributeEEE
FNL:352,4115
FNA:352,0,_ZN4mlir7cpp2fir8KernelOp5buildERNS_9OpBuilderERNS_14OperationStateENS_9TypeRangeENS_10ValueRangeERKNS0_6detail26KernelOpGenericAdaptorBase10PropertiesEN4llvm8ArrayRefINS_14NamedAttributeEEE
FNL:353,4126
FNA:353,0,_ZN4mlir7cpp2fir8KernelOp6createERNS_9OpBuilderENS_8LocationENS_9TypeRangeENS_10ValueRangeERKNS0_6detail26KernelOpGenericAdaptorBase10PropertiesEN4llvm8ArrayRefINS_14NamedAttributeEEE
FNL:354,4134
FNA:354,0,_ZN4mlir7cpp2fir8KernelOp6createERNS_20ImplicitLocOpBuilderENS_9TypeRangeENS_10ValueRangeERKNS0_6detail26KernelOpGenericAdaptorBase10PropertiesEN4llvm8ArrayRefINS_14NamedAttributeEEE
FNL:355,4138
FNA:355,0,_ZN4mlir7cpp2fir8KernelOp20verifyInvariantsImplEv
FNL:356,4167
FNA:356,0,_ZN4mlir7cpp2fir8KernelOp16verifyInvariantsEv
FNL:357,4171
FNA:357,0,_ZN4mlir7cpp2fir8KernelOp5parseERNS_11OpAsmParserERNS_14OperationStateE
FNL:358,4208
FNA:358,0,_ZZN4mlir7cpp2fir8KernelOp5parseERNS_11OpAsmParserERNS_14OperationStateEENK3$_0clEv
FNL:359,4217
FNA:359,0,_ZN4mlir7cpp2fir8KernelOp5printERNS_12OpAsmPrinterE
FNL:360,4254
FNA:360,0,_ZN4mlir7cpp2fir6detail29MemRegionOpGenericAdaptorBaseC1ENS0_11MemRegionOpE
FNA:360,0,_ZN4mlir7cpp2fir6detail29MemRegionOpGenericAdaptorBaseC2ENS0_11MemRegionOpE
FNL:361,4256
FNA:361,0,_ZN4mlir7cpp2fir6detail29MemRegionOpGenericAdaptorBase13getRegionTypeEv
FNL:362,4261
FNA:362,0,_ZN4mlir7cpp2fir6detail29MemRegionOpGenericAdaptorBase12getSizeBytesEv
FNL:363,4266
FNA:363,0,_ZN4mlir7cpp2fir6detail29MemRegionOpGenericAdaptorBase17getDmaEnabledAttrEv
FNL:364,4273
FNA:364,0,_ZN4mlir7cpp2fir6detail29MemRegionOpGenericAdaptorBase13getDmaEnabledEv
FNL:365,4281
FNA:365,0,_ZN4mlir7cpp2fir18MemRegionOpAdaptorC1ENS0_11MemRegionOpE
FNA:365,0,_ZN4mlir7cpp2fir18MemRegionOpAdaptorC2ENS0_11MemRegionOpE
FNL:366,4283
FNA:366,0,_ZN4mlir7cpp2fir18MemRegionOpAdaptor6verifyENS_8LocationE
FNL:367,4301
FNA:367,0,_ZN4mlir7cpp2fir11MemRegionOp21setPropertiesFromAttrERNS0_6detail29MemRegionOpGenericAdaptorBase10PropertiesENS_9AttributeEN4llvm12function_refIFNS_18InFlightDiagnosticEvEEE
FNL:368,4352
FNA:368,0,_ZN4mlir7cpp2fir11MemRegionOp19getPropertiesAsAttrEPNS_11MLIRContextERKNS0_6detail29MemRegionOpGenericAdaptorBase10PropertiesE
FNL:369,436
FNA:369,8,_ZN4mlir7cpp2fir5AddOp5printERNS_12OpAsmPrinterE
FNL:370,4382
FNA:370,0,_ZN4mlir7cpp2fir11MemRegionOp21computePropertiesHashERKNS0_6detail29MemRegionOpGenericAdaptorBase10PropertiesE
FNL:371,4390
FNA:371,0,_ZN4mlir7cpp2fir11MemRegionOp15getInherentAttrEPNS_11MLIRContextERKNS0_6detail29MemRegionOpGenericAdaptorBase10PropertiesEN4llvm9StringRefE
FNL:372,4402
FNA:372,0,_ZN4mlir7cpp2fir11MemRegionOp15setInherentAttrERNS0_6detail29MemRegionOpGenericAdaptorBase10PropertiesEN4llvm9StringRefENS_9AttributeE
FNL:373,4419
FNA:373,0,_ZN4mlir7cpp2fir11MemRegionOp21populateInherentAttrsEPNS_11MLIRContextERKNS0_6detail29MemRegionOpGenericAdaptorBase10PropertiesERNS_13NamedAttrListE
FNL:374,4427
FNA:374,0,_ZN4mlir7cpp2fir11MemRegionOp19verifyInherentAttrsENS_13OperationNameERNS_13NamedAttrListEN4llvm12function_refIFNS_18InFlightDiagnosticEvEEE
FNL:375,4448
FNA:375,0,_ZN4mlir7cpp2fir11MemRegionOp14readPropertiesERNS_21DialectBytecodeReaderERNS_14OperationStateE
FNL:376,4461
FNA:376,0,_ZN4mlir7cpp2fir11MemRegionOp15writePropertiesERNS_21DialectBytecodeWriterE
FNL:377,4469
FNA:377,0,_ZN4mlir7cpp2fir11MemRegionOp13getRegionTypeEv
FNL:378,4474
FNA:378,0,_ZN4mlir7cpp2fir11MemRegionOp12getSizeBytesEv
FNL:379,4479
FNA:379,0,_ZN4mlir7cpp2fir11MemRegionOp13getDmaEnabledEv
FNL:380,4486
FNA:380,0,_ZN4mlir7cpp2fir11MemRegionOp13setRegionTypeEN4llvm9StringRefE
FNL:381,4490
FNA:381,0,_ZN4mlir7cpp2fir11MemRegionOp12setSizeBytesEy
FNL:382,4494
FNA:382,0,_ZN4mlir7cpp2fir11MemRegionOp13setDmaEnabledEb
FNL:383,4502
FNA:383,0,_ZN4mlir7cpp2fir11MemRegionOp5buildERNS_9OpBuilderERNS_14OperationStateENS_4TypeENS_10StringAttrENS_11IntegerAttrENS_8UnitAttrE
FNL:384,4511
FNA:384,0,_ZN4mlir7cpp2fir11MemRegionOp6createERNS_9OpBuilderENS_8LocationENS_4TypeENS_10StringAttrENS_11IntegerAttrENS_8UnitAttrE
FNL:385,4519
FNA:385,0,_ZN4mlir7cpp2fir11MemRegionOp6createERNS_20ImplicitLocOpBuilderENS_4TypeENS_10StringAttrENS_11IntegerAttrENS_8UnitAttrE
FNL:386,4523
FNA:386,0,_ZN4mlir7cpp2fir11MemRegionOp5buildERNS_9OpBuilderERNS_14OperationStateENS_9TypeRangeENS_10StringAttrENS_11IntegerAttrENS_8UnitAttrE
FNL:387,4533
FNA:387,0,_ZN4mlir7cpp2fir11MemRegionOp6createERNS_9OpBuilderENS_8LocationENS_9TypeRangeENS_10StringAttrENS_11IntegerAttrENS_8UnitAttrE
FNL:388,4541
FNA:388,0,_ZN4mlir7cpp2fir11MemRegionOp6createERNS_20ImplicitLocOpBuilderENS_9TypeRangeENS_10StringAttrENS_11IntegerAttrENS_8UnitAttrE
FNL:389,4545
FNA:389,0,_ZN4mlir7cpp2fir11MemRegionOp5buildERNS_9OpBuilderERNS_14OperationStateENS_4TypeEN4llvm9StringRefEyb
FNL:390,4554
FNA:390,0,_ZN4mlir7cpp2fir11MemRegionOp6createERNS_9OpBuilderENS_8LocationENS_4TypeEN4llvm9StringRefEyb
FNL:391,4562
FNA:391,0,_ZN4mlir7cpp2fir11MemRegionOp6createERNS_20ImplicitLocOpBuilderENS_4TypeEN4llvm9StringRefEyb
FNL:392,4566
FNA:392,0,_ZN4mlir7cpp2fir11MemRegionOp5buildERNS_9OpBuilderERNS_14OperationStateENS_9TypeRangeEN4llvm9StringRefEyb
FNL:393,4576
FNA:393,0,_ZN4mlir7cpp2fir11MemRegionOp6createERNS_9OpBuilderENS_8LocationENS_9TypeRangeEN4llvm9StringRefEyb
FNL:394,4584
FNA:394,0,_ZN4mlir7cpp2fir11MemRegionOp6createERNS_20ImplicitLocOpBuilderENS_9TypeRangeEN4llvm9StringRefEyb
FNL:395,4588
FNA:395,0,_ZN4mlir7cpp2fir11MemRegionOp5buildERNS_9OpBuilderERNS_14OperationStateENS_9TypeRangeENS_10ValueRangeEN4llvm8ArrayRefINS_14NamedAttributeEEE
FNL:396,4606
FNA:396,0,_ZN4mlir7cpp2fir11MemRegionOp6createERNS_9OpBuilderENS_8LocationENS_9TypeRangeENS_10ValueRangeEN4llvm8ArrayRefINS_14NamedAttributeEEE
FNL:397,4614
FNA:397,0,_ZN4mlir7cpp2fir11MemRegionOp6createERNS_20ImplicitLocOpBuilderENS_9TypeRangeENS_10ValueRangeEN4llvm8ArrayRefINS_14NamedAttributeEEE
FNL:398,4618
FNA:398,0,_ZN4mlir7cpp2fir11MemRegionOp5buildERNS_9OpBuilderERNS_14OperationStateENS_9TypeRangeENS_10ValueRangeERKNS0_6detail29MemRegionOpGenericAdaptorBase10PropertiesEN4llvm8ArrayRefINS_14NamedAttributeEEE
FNL:399,4627
FNA:399,0,_ZN4mlir7cpp2fir11MemRegionOp6createERNS_9OpBuilderENS_8LocationENS_9TypeRangeENS_10ValueRangeERKNS0_6detail29MemRegionOpGenericAdaptorBase10PropertiesEN4llvm8ArrayRefINS_14NamedAttributeEEE
FNL:400,4635
FNA:400,0,_ZN4mlir7cpp2fir11MemRegionOp6createERNS_20ImplicitLocOpBuilderENS_9TypeRangeENS_10ValueRangeERKNS0_6detail29MemRegionOpGenericAdaptorBase10PropertiesEN4llvm8ArrayRefINS_14NamedAttributeEEE
FNL:401,4639
FNA:401,0,_ZN4mlir7cpp2fir11MemRegionOp20verifyInvariantsImplEv
FNL:402,4666
FNA:402,0,_ZN4mlir7cpp2fir11MemRegionOp16verifyInvariantsEv
FNL:403,4670
FNA:403,0,_ZN4mlir7cpp2fir11MemRegionOp5parseERNS_11OpAsmParserERNS_14OperationStateE
FNL:404,4691
FNA:404,0,_ZZN4mlir7cpp2fir11MemRegionOp5parseERNS_11OpAsmParserERNS_14OperationStateEENK3$_0clEv
FNL:405,4711
FNA:405,0,_ZN4mlir7cpp2fir11MemRegionOp5printERNS_12OpAsmPrinterE
FNL:406,473
FNA:406,0,_ZN4mlir7cpp2fir5AddOp10getEffectsERN4llvm15SmallVectorImplINS_11SideEffects14EffectInstanceINS_13MemoryEffects6EffectEEEEE
FNL:407,4754
FNA:407,0,_ZN4mlir7cpp2fir6detail23MulOpGenericAdaptorBaseC1ENS0_5MulOpE
FNA:407,0,_ZN4mlir7cpp2fir6detail23MulOpGenericAdaptorBaseC2ENS0_5MulOpE
FNL:408,4757
FNA:408,0,_ZN4mlir7cpp2fir12MulOpAdaptorC1ENS0_5MulOpE
FNA:408,0,_ZN4mlir7cpp2fir12MulOpAdaptorC2ENS0_5MulOpE
FNL:409,4759
FNA:409,0,_ZN4mlir7cpp2fir12MulOpAdaptor6verifyENS_8LocationE
FNL:410,4763
FNA:410,0,_ZN4mlir7cpp2fir5MulOp21setPropertiesFromAttrERNS_15EmptyPropertiesENS_9AttributeEN4llvm12function_refIFNS_18InFlightDiagnosticEvEEE
FNL:411,4772
FNA:411,0,_ZN4mlir7cpp2fir5MulOp19getPropertiesAsAttrEPNS_11MLIRContextERKNS_15EmptyPropertiesE
FNL:412,4781
FNA:412,0,_ZN4mlir7cpp2fir5MulOp21computePropertiesHashERKNS_15EmptyPropertiesE
FNL:413,4786
FNA:413,0,_ZN4mlir7cpp2fir5MulOp15getInherentAttrEPNS_11MLIRContextERKNS_15EmptyPropertiesEN4llvm9StringRefE
FNL:414,4790
FNA:414,0,_ZN4mlir7cpp2fir5MulOp15setInherentAttrERNS_15EmptyPropertiesEN4llvm9StringRefENS_9AttributeE
FNL:415,4793
FNA:415,0,_ZN4mlir7cpp2fir5MulOp21populateInherentAttrsEPNS_11MLIRContextERKNS_15EmptyPropertiesERNS_13NamedAttrListE
FNL:416,4796
FNA:416,0,_ZN4mlir7cpp2fir5MulOp19verifyInherentAttrsENS_13OperationNameERNS_13NamedAttrListEN4llvm12function_refIFNS_18InFlightDiagnosticEvEEE
FNL:417,4800
FNA:417,3,_ZN4mlir7cpp2fir5MulOp5buildERNS_9OpBuilderERNS_14OperationStateENS_4TypeENS_5ValueES7_
FNL:418,4806
FNA:418,0,_ZN4mlir7cpp2fir5MulOp6createERNS_9OpBuilderENS_8LocationENS_4TypeENS_5ValueES6_
FNL:419,4814
FNA:419,0,_ZN4mlir7cpp2fir5MulOp6createERNS_20ImplicitLocOpBuilderENS_4TypeENS_5ValueES5_
FNL:420,4818
FNA:420,0,_ZN4mlir7cpp2fir5MulOp5buildERNS_9OpBuilderERNS_14OperationStateENS_9TypeRangeENS_5ValueES7_
FNL:421,4825
FNA:421,0,_ZN4mlir7cpp2fir5MulOp6createERNS_9OpBuilderENS_8LocationENS_9TypeRangeENS_5ValueES6_
FNL:422,4833
FNA:422,0,_ZN4mlir7cpp2fir5MulOp6createERNS_20ImplicitLocOpBuilderENS_9TypeRangeENS_5ValueES5_
FNL:423,4837
FNA:423,0,_ZN4mlir7cpp2fir5MulOp5buildERNS_9OpBuilderERNS_14OperationStateENS_9TypeRangeENS_10ValueRangeEN4llvm8ArrayRefINS_14NamedAttributeEEE
FNL:424,4845
FNA:424,0,_ZN4mlir7cpp2fir5MulOp6createERNS_9OpBuilderENS_8LocationENS_9TypeRangeENS_10ValueRangeEN4llvm8ArrayRefINS_14NamedAttributeEEE
FNL:425,4853
FNA:425,0,_ZN4mlir7cpp2fir5MulOp6createERNS_20ImplicitLocOpBuilderENS_9TypeRangeENS_10ValueRangeEN4llvm8ArrayRefINS_14NamedAttributeEEE
FNL:426,4857
FNA:426,0,_ZN4mlir7cpp2fir5MulOp5buildERNS_9OpBuilderERNS_14OperationStateENS_9TypeRangeENS_10ValueRangeERKNS_15EmptyPropertiesEN4llvm8ArrayRefINS_14NamedAttributeEEE
FNL:427,4866
FNA:427,0,_ZN4mlir7cpp2fir5MulOp6createERNS_9OpBuilderENS_8LocationENS_9TypeRangeENS_10ValueRangeERKNS_15EmptyPropertiesEN4llvm8ArrayRefINS_14NamedAttributeEEE
FNL:428,4874
FNA:428,0,_ZN4mlir7cpp2fir5MulOp6createERNS_20ImplicitLocOpBuilderENS_9TypeRangeENS_10ValueRangeERKNS_15EmptyPropertiesEN4llvm8ArrayRefINS_14NamedAttributeEEE
FNL:429,4878
FNA:429,3,_ZN4mlir7cpp2fir5MulOp20verifyInvariantsImplEv
FNL:430,488
FNA:430,0,_ZN4mlir7cpp2fir6detail23AndOpGenericAdaptorBaseC1ENS0_5AndOpE
FNA:430,0,_ZN4mlir7cpp2fir6detail23AndOpGenericAdaptorBaseC2ENS0_5AndOpE
FNL:431,4906
FNA:431,0,_ZN4mlir7cpp2fir5MulOp16verifyInvariantsEv
FNL:432,491
FNA:432,0,_ZN4mlir7cpp2fir12AndOpAdaptorC1ENS0_5AndOpE
FNA:432,0,_ZN4mlir7cpp2fir12AndOpAdaptorC2ENS0_5AndOpE
FNL:433,4910
FNA:433,0,_ZN4mlir7cpp2fir5MulOp5parseERNS_11OpAsmParserERNS_14OperationStateE
FNL:434,493
FNA:434,0,_ZN4mlir7cpp2fir12AndOpAdaptor6verifyENS_8LocationE
FNL:435,4937
FNA:435,0,_ZZN4mlir7cpp2fir5MulOp5parseERNS_11OpAsmParserERNS_14OperationStateEENK3$_0clEv
FNL:436,497
FNA:436,0,_ZN4mlir7cpp2fir5AndOp21setPropertiesFromAttrERNS_15EmptyPropertiesENS_9AttributeEN4llvm12function_refIFNS_18InFlightDiagnosticEvEEE
FNL:437,4977
FNA:437,4,_ZN4mlir7cpp2fir5MulOp5printERNS_12OpAsmPrinterE
FNL:438,5014
FNA:438,0,_ZN4mlir7cpp2fir5MulOp10getEffectsERN4llvm15SmallVectorImplINS_11SideEffects14EffectInstanceINS_13MemoryEffects6EffectEEEEE
FNL:439,5029
FNA:439,0,_ZN4mlir7cpp2fir6detail23NotOpGenericAdaptorBaseC1ENS0_5NotOpE
FNA:439,0,_ZN4mlir7cpp2fir6detail23NotOpGenericAdaptorBaseC2ENS0_5NotOpE
FNL:440,5032
FNA:440,0,_ZN4mlir7cpp2fir12NotOpAdaptorC1ENS0_5NotOpE
FNA:440,0,_ZN4mlir7cpp2fir12NotOpAdaptorC2ENS0_5NotOpE
FNL:441,5034
FNA:441,0,_ZN4mlir7cpp2fir12NotOpAdaptor6verifyENS_8LocationE
FNL:442,5038
FNA:442,0,_ZN4mlir7cpp2fir5NotOp21setPropertiesFromAttrERNS_15EmptyPropertiesENS_9AttributeEN4llvm12function_refIFNS_18InFlightDiagnosticEvEEE
FNL:443,5047
FNA:443,0,_ZN4mlir7cpp2fir5NotOp19getPropertiesAsAttrEPNS_11MLIRContextERKNS_15EmptyPropertiesE
FNL:444,5056
FNA:444,0,_ZN4mlir7cpp2fir5NotOp21computePropertiesHashERKNS_15EmptyPropertiesE
FNL:445,506
FNA:445,0,_ZN4mlir7cpp2fir5AndOp19getPropertiesAsAttrEPNS_11MLIRContextERKNS_15EmptyPropertiesE
FNL:446,5061
FNA:446,0,_ZN4mlir7cpp2fir5NotOp15getInherentAttrEPNS_11MLIRContextERKNS_15EmptyPropertiesEN4llvm9StringRefE
FNL:447,5065
FNA:447,0,_ZN4mlir7cpp2fir5NotOp15setInherentAttrERNS_15EmptyPropertiesEN4llvm9StringRefENS_9AttributeE
FNL:448,5068
FNA:448,0,_ZN4mlir7cpp2fir5NotOp21populateInherentAttrsEPNS_11MLIRContextERKNS_15EmptyPropertiesERNS_13NamedAttrListE
FNL:449,5071
FNA:449,0,_ZN4mlir7cpp2fir5NotOp19verifyInherentAttrsENS_13OperationNameERNS_13NamedAttrListEN4llvm12function_refIFNS_18InFlightDiagnosticEvEEE
FNL:450,5075
FNA:450,0,_ZN4mlir7cpp2fir5NotOp5buildERNS_9OpBuilderERNS_14OperationStateENS_4TypeENS_5ValueE
FNL:451,5080
FNA:451,0,_ZN4mlir7cpp2fir5NotOp6createERNS_9OpBuilderENS_8LocationENS_4TypeENS_5ValueE
FNL:452,5088
FNA:452,0,_ZN4mlir7cpp2fir5NotOp6createERNS_20ImplicitLocOpBuilderENS_4TypeENS_5ValueE
FNL:453,5092
FNA:453,0,_ZN4mlir7cpp2fir5NotOp5buildERNS_9OpBuilderERNS_14OperationStateENS_9TypeRangeENS_5ValueE
FNL:454,5098
FNA:454,0,_ZN4mlir7cpp2fir5NotOp6createERNS_9OpBuilderENS_8LocationENS_9TypeRangeENS_5ValueE
FNL:455,51
FNA:455,96,_ZN4mlir7cpp2firL48__mlir_ods_local_type_constraint_Cpp2FIRDialect1EPNS_9OperationENS_4TypeEN4llvm9StringRefEj
FNL:456,5106
FNA:456,0,_ZN4mlir7cpp2fir5NotOp6createERNS_20ImplicitLocOpBuilderENS_9TypeRangeENS_5ValueE
FNL:457,5110
FNA:457,0,_ZN4mlir7cpp2fir5NotOp5buildERNS_9OpBuilderERNS_14OperationStateENS_9TypeRangeENS_10ValueRangeEN4llvm8ArrayRefINS_14NamedAttributeEEE
FNL:458,5118
FNA:458,0,_ZN4mlir7cpp2fir5NotOp6createERNS_9OpBuilderENS_8LocationENS_9TypeRangeENS_10ValueRangeEN4llvm8ArrayRefINS_14NamedAttributeEEE
FNL:459,5126
FNA:459,0,_ZN4mlir7cpp2fir5NotOp6createERNS_20ImplicitLocOpBuilderENS_9TypeRangeENS_10ValueRangeEN4llvm8ArrayRefINS_14NamedAttributeEEE
FNL:460,5130
FNA:460,0,_ZN4mlir7cpp2fir5NotOp5buildERNS_9OpBuilderERNS_14OperationStateENS_9TypeRangeENS_10ValueRangeERKNS_15EmptyPropertiesEN4llvm8ArrayRefINS_14NamedAttributeEEE
FNL:461,5139
FNA:461,0,_ZN4mlir7cpp2fir5NotOp6createERNS_9OpBuilderENS_8LocationENS_9TypeRangeENS_10ValueRangeERKNS_15EmptyPropertiesEN4llvm8ArrayRefINS_14NamedAttributeEEE
FNL:462,5147
FNA:462,0,_ZN4mlir7cpp2fir5NotOp6createERNS_20ImplicitLocOpBuilderENS_9TypeRangeENS_10ValueRangeERKNS_15EmptyPropertiesEN4llvm8ArrayRefINS_14NamedAttributeEEE
FNL:463,515
FNA:463,0,_ZN4mlir7cpp2fir5AndOp21computePropertiesHashERKNS_15EmptyPropertiesE
FNL:464,5151
FNA:464,0,_ZN4mlir7cpp2fir5NotOp20verifyInvariantsImplEv
FNL:465,5173
FNA:465,0,_ZN4mlir7cpp2fir5NotOp16verifyInvariantsEv
FNL:466,5177
FNA:466,0,_ZN4mlir7cpp2fir5NotOp5parseERNS_11OpAsmParserERNS_14OperationStateE
FNL:467,5193
FNA:467,0,_ZZN4mlir7cpp2fir5NotOp5parseERNS_11OpAsmParserERNS_14OperationStateEENK3$_0clEv
FNL:468,520
FNA:468,0,_ZN4mlir7cpp2fir5AndOp15getInherentAttrEPNS_11MLIRContextERKNS_15EmptyPropertiesEN4llvm9StringRefE
FNL:469,5222
FNA:469,0,_ZN4mlir7cpp2fir5NotOp5printERNS_12OpAsmPrinterE
FNL:470,524
FNA:470,0,_ZN4mlir7cpp2fir5AndOp15setInherentAttrERNS_15EmptyPropertiesEN4llvm9StringRefENS_9AttributeE
FNL:471,5247
FNA:471,0,_ZN4mlir7cpp2fir5NotOp10getEffectsERN4llvm15SmallVectorImplINS_11SideEffects14EffectInstanceINS_13MemoryEffects6EffectEEEEE
FNL:472,5262
FNA:472,0,_ZN4mlir7cpp2fir6detail22OrOpGenericAdaptorBaseC1ENS0_4OrOpE
FNA:472,0,_ZN4mlir7cpp2fir6detail22OrOpGenericAdaptorBaseC2ENS0_4OrOpE
FNL:473,5265
FNA:473,0,_ZN4mlir7cpp2fir11OrOpAdaptorC1ENS0_4OrOpE
FNA:473,0,_ZN4mlir7cpp2fir11OrOpAdaptorC2ENS0_4OrOpE
FNL:474,5267
FNA:474,0,_ZN4mlir7cpp2fir11OrOpAdaptor6verifyENS_8LocationE
FNL:475,527
FNA:475,0,_ZN4mlir7cpp2fir5AndOp21populateInherentAttrsEPNS_11MLIRContextERKNS_15EmptyPropertiesERNS_13NamedAttrListE
FNL:476,5271
FNA:476,0,_ZN4mlir7cpp2fir4OrOp21setPropertiesFromAttrERNS_15EmptyPropertiesENS_9AttributeEN4llvm12function_refIFNS_18InFlightDiagnosticEvEEE
FNL:477,5280
FNA:477,0,_ZN4mlir7cpp2fir4OrOp19getPropertiesAsAttrEPNS_11MLIRContextERKNS_15EmptyPropertiesE
FNL:478,5289
FNA:478,0,_ZN4mlir7cpp2fir4OrOp21computePropertiesHashERKNS_15EmptyPropertiesE
FNL:479,5294
FNA:479,0,_ZN4mlir7cpp2fir4OrOp15getInherentAttrEPNS_11MLIRContextERKNS_15EmptyPropertiesEN4llvm9StringRefE
FNL:480,5298
FNA:480,0,_ZN4mlir7cpp2fir4OrOp15setInherentAttrERNS_15EmptyPropertiesEN4llvm9StringRefENS_9AttributeE
FNL:481,530
FNA:481,0,_ZN4mlir7cpp2fir5AndOp19verifyInherentAttrsENS_13OperationNameERNS_13NamedAttrListEN4llvm12function_refIFNS_18InFlightDiagnosticEvEEE
FNL:482,5301
FNA:482,0,_ZN4mlir7cpp2fir4OrOp21populateInherentAttrsEPNS_11MLIRContextERKNS_15EmptyPropertiesERNS_13NamedAttrListE
FNL:483,5304
FNA:483,0,_ZN4mlir7cpp2fir4OrOp19verifyInherentAttrsENS_13OperationNameERNS_13NamedAttrListEN4llvm12function_refIFNS_18InFlightDiagnosticEvEEE
FNL:484,5308
FNA:484,1,_ZN4mlir7cpp2fir4OrOp5buildERNS_9OpBuilderERNS_14OperationStateENS_4TypeENS_5ValueES7_
FNL:485,5314
FNA:485,0,_ZN4mlir7cpp2fir4OrOp6createERNS_9OpBuilderENS_8LocationENS_4TypeENS_5ValueES6_
FNL:486,5322
FNA:486,0,_ZN4mlir7cpp2fir4OrOp6createERNS_20ImplicitLocOpBuilderENS_4TypeENS_5ValueES5_
FNL:487,5326
FNA:487,0,_ZN4mlir7cpp2fir4OrOp5buildERNS_9OpBuilderERNS_14OperationStateENS_9TypeRangeENS_5ValueES7_
FNL:488,5333
FNA:488,0,_ZN4mlir7cpp2fir4OrOp6createERNS_9OpBuilderENS_8LocationENS_9TypeRangeENS_5ValueES6_
FNL:489,534
FNA:489,2,_ZN4mlir7cpp2fir5AndOp5buildERNS_9OpBuilderERNS_14OperationStateENS_4TypeENS_5ValueES7_
FNL:490,5341
FNA:490,0,_ZN4mlir7cpp2fir4OrOp6createERNS_20ImplicitLocOpBuilderENS_9TypeRangeENS_5ValueES5_
FNL:491,5345
FNA:491,0,_ZN4mlir7cpp2fir4OrOp5buildERNS_9OpBuilderERNS_14OperationStateENS_9TypeRangeENS_10ValueRangeEN4llvm8ArrayRefINS_14NamedAttributeEEE
FNL:492,5353
FNA:492,0,_ZN4mlir7cpp2fir4OrOp6createERNS_9OpBuilderENS_8LocationENS_9TypeRangeENS_10ValueRangeEN4llvm8ArrayRefINS_14NamedAttributeEEE
FNL:493,5361
FNA:493,0,_ZN4mlir7cpp2fir4OrOp6createERNS_20ImplicitLocOpBuilderENS_9TypeRangeENS_10ValueRangeEN4llvm8ArrayRefINS_14NamedAttributeEEE
FNL:494,5365
FNA:494,0,_ZN4mlir7cpp2fir4OrOp5buildERNS_9OpBuilderERNS_14OperationStateENS_9TypeRangeENS_10ValueRangeERKNS_15EmptyPropertiesEN4llvm8ArrayRefINS_14NamedAttributeEEE
FNL:495,5374
FNA:495,0,_ZN4mlir7cpp2fir4OrOp6createERNS_9OpBuilderENS_8LocationENS_9TypeRangeENS_10ValueRangeERKNS_15EmptyPropertiesEN4llvm8ArrayRefINS_14NamedAttributeEEE
FNL:496,5382
FNA:496,0,_ZN4mlir7cpp2fir4OrOp6createERNS_20ImplicitLocOpBuilderENS_9TypeRangeENS_10ValueRangeERKNS_15EmptyPropertiesEN4llvm8ArrayRefINS_14NamedAttributeEEE
FNL:497,5386
FNA:497,1,_ZN4mlir7cpp2fir4OrOp20verifyInvariantsImplEv
FNL:498,540
FNA:498,0,_ZN4mlir7cpp2fir5AndOp6createERNS_9OpBuilderENS_8LocationENS_4TypeENS_5ValueES6_
FNL:499,5414
FNA:499,0,_ZN4mlir7cpp2fir4OrOp16verifyInvariantsEv
FNL:500,5418
FNA:500,0,_ZN4mlir7cpp2fir4OrOp5parseERNS_11OpAsmParserERNS_14OperationStateE
FNL:501,5445
FNA:501,0,_ZZN4mlir7cpp2fir4OrOp5parseERNS_11OpAsmParserERNS_14OperationStateEENK3$_0clEv
FNL:502,548
FNA:502,0,_ZN4mlir7cpp2fir5AndOp6createERNS_20ImplicitLocOpBuilderENS_4TypeENS_5ValueES5_
FNL:503,5485
FNA:503,2,_ZN4mlir7cpp2fir4OrOp5printERNS_12OpAsmPrinterE
FNL:504,552
FNA:504,0,_ZN4mlir7cpp2fir5AndOp5buildERNS_9OpBuilderERNS_14OperationStateENS_9TypeRangeENS_5ValueES7_
FNL:505,5522
FNA:505,0,_ZN4mlir7cpp2fir4OrOp10getEffectsERN4llvm15SmallVectorImplINS_11SideEffects14EffectInstanceINS_13MemoryEffects6EffectEEEEE
FNL:506,5537
FNA:506,0,_ZN4mlir7cpp2fir6detail31ParallelForOpGenericAdaptorBaseC1ENS0_13ParallelForOpE
FNA:506,0,_ZN4mlir7cpp2fir6detail31ParallelForOpGenericAdaptorBaseC2ENS0_13ParallelForOpE
FNL:507,5539
FNA:507,0,_ZN4mlir7cpp2fir6detail31ParallelForOpGenericAdaptorBase10getMappingEv
FNL:508,5545
FNA:508,0,_ZN4mlir7cpp2fir20ParallelForOpAdaptorC1ENS0_13ParallelForOpE
FNA:508,0,_ZN4mlir7cpp2fir20ParallelForOpAdaptorC2ENS0_13ParallelForOpE
FNL:509,5547
FNA:509,0,_ZN4mlir7cpp2fir20ParallelForOpAdaptor6verifyENS_8LocationE
FNL:510,5556
FNA:510,0,_ZN4mlir7cpp2fir13ParallelForOp21setPropertiesFromAttrERNS0_6detail31ParallelForOpGenericAdaptorBase10PropertiesENS_9AttributeEN4llvm12function_refIFNS_18InFlightDiagnosticEvEEE
FNL:511,5579
FNA:511,0,_ZN4mlir7cpp2fir13ParallelForOp19getPropertiesAsAttrEPNS_11MLIRContextERKNS0_6detail31ParallelForOpGenericAdaptorBase10PropertiesE
FNL:512,559
FNA:512,0,_ZN4mlir7cpp2fir5AndOp6createERNS_9OpBuilderENS_8LocationENS_9TypeRangeENS_5ValueES6_
FNL:513,5595
FNA:513,0,_ZN4mlir7cpp2fir13ParallelForOp21computePropertiesHashERKNS0_6detail31ParallelForOpGenericAdaptorBase10PropertiesE
FNL:514,5601
FNA:514,0,_ZN4mlir7cpp2fir13ParallelForOp15getInherentAttrEPNS_11MLIRContextERKNS0_6detail31ParallelForOpGenericAdaptorBase10PropertiesEN4llvm9StringRefE
FNL:515,5607
FNA:515,0,_ZN4mlir7cpp2fir13ParallelForOp15setInherentAttrERNS0_6detail31ParallelForOpGenericAdaptorBase10PropertiesEN4llvm9StringRefENS_9AttributeE
FNL:516,5614
FNA:516,0,_ZN4mlir7cpp2fir13ParallelForOp21populateInherentAttrsEPNS_11MLIRContextERKNS0_6detail31ParallelForOpGenericAdaptorBase10PropertiesERNS_13NamedAttrListE
FNL:517,5618
FNA:517,0,_ZN4mlir7cpp2fir13ParallelForOp19verifyInherentAttrsENS_13OperationNameERNS_13NamedAttrListEN4llvm12function_refIFNS_18InFlightDiagnosticEvEEE
FNL:518,5627
FNA:518,0,_ZN4mlir7cpp2fir13ParallelForOp14readPropertiesERNS_21DialectBytecodeReaderERNS_14OperationStateE
FNL:519,5634
FNA:519,0,_ZN4mlir7cpp2fir13ParallelForOp15writePropertiesERNS_21DialectBytecodeWriterE
FNL:520,5639
FNA:520,0,_ZN4mlir7cpp2fir13ParallelForOp10getMappingEv
FNL:521,5644
FNA:521,0,_ZN4mlir7cpp2fir13ParallelForOp10setMappingEN4llvm9StringRefE
FNL:522,5648
FNA:522,0,_ZN4mlir7cpp2fir13ParallelForOp5buildERNS_9OpBuilderERNS_14OperationStateENS_5ValueES6_S6_NS_10StringAttrE
FNL:523,5656
FNA:523,0,_ZN4mlir7cpp2fir13ParallelForOp6createERNS_9OpBuilderENS_8LocationENS_5ValueES5_S5_NS_10StringAttrE
FNL:524,5664
FNA:524,0,_ZN4mlir7cpp2fir13ParallelForOp6createERNS_20ImplicitLocOpBuilderENS_5ValueES4_S4_NS_10StringAttrE
FNL:525,5668
FNA:525,0,_ZN4mlir7cpp2fir13ParallelForOp5buildERNS_9OpBuilderERNS_14OperationStateENS_9TypeRangeENS_5ValueES7_S7_NS_10StringAttrE
FNL:526,567
FNA:526,0,_ZN4mlir7cpp2fir5AndOp6createERNS_20ImplicitLocOpBuilderENS_9TypeRangeENS_5ValueES5_
FNL:527,5678
FNA:527,0,_ZN4mlir7cpp2fir13ParallelForOp6createERNS_9OpBuilderENS_8LocationENS_9TypeRangeENS_5ValueES6_S6_NS_10StringAttrE
FNL:528,5686
FNA:528,0,_ZN4mlir7cpp2fir13ParallelForOp6createERNS_20ImplicitLocOpBuilderENS_9TypeRangeENS_5ValueES5_S5_NS_10StringAttrE
FNL:529,5690
FNA:529,0,_ZN4mlir7cpp2fir13ParallelForOp5buildERNS_9OpBuilderERNS_14OperationStateENS_5ValueES6_S6_N4llvm9StringRefE
FNL:530,5698
FNA:530,0,_ZN4mlir7cpp2fir13ParallelForOp6createERNS_9OpBuilderENS_8LocationENS_5ValueES5_S5_N4llvm9StringRefE
FNL:531,5706
FNA:531,0,_ZN4mlir7cpp2fir13ParallelForOp6createERNS_20ImplicitLocOpBuilderENS_5ValueES4_S4_N4llvm9StringRefE
FNL:532,571
FNA:532,0,_ZN4mlir7cpp2fir5AndOp5buildERNS_9OpBuilderERNS_14OperationStateENS_9TypeRangeENS_10ValueRangeEN4llvm8ArrayRefINS_14NamedAttributeEEE
FNL:533,5710
FNA:533,0,_ZN4mlir7cpp2fir13ParallelForOp5buildERNS_9OpBuilderERNS_14OperationStateENS_9TypeRangeENS_5ValueES7_S7_N4llvm9StringRefE
FNL:534,5720
FNA:534,0,_ZN4mlir7cpp2fir13ParallelForOp6createERNS_9OpBuilderENS_8LocationENS_9TypeRangeENS_5ValueES6_S6_N4llvm9StringRefE
FNL:535,5728
FNA:535,0,_ZN4mlir7cpp2fir13ParallelForOp6createERNS_20ImplicitLocOpBuilderENS_9TypeRangeENS_5ValueES5_S5_N4llvm9StringRefE
FNL:536,5732
FNA:536,0,_ZN4mlir7cpp2fir13ParallelForOp5buildERNS_9OpBuilderERNS_14OperationStateENS_9TypeRangeENS_10ValueRangeEN4llvm8ArrayRefINS_14NamedAttributeEEE
FNL:537,5752
FNA:537,0,_ZN4mlir7cpp2fir13ParallelForOp6createERNS_9OpBuilderENS_8LocationENS_9TypeRangeENS_10ValueRangeEN4llvm8ArrayRefINS_14NamedAttributeEEE
FNL:538,5760
FNA:538,0,_ZN4mlir7cpp2fir13ParallelForOp6createERNS_20ImplicitLocOpBuilderENS_9TypeRangeENS_10ValueRangeEN4llvm8ArrayRefINS_14NamedAttributeEEE
FNL:539,5764
FNA:539,0,_ZN4mlir7cpp2fir13ParallelForOp5buildERNS_9OpBuilderERNS_14OperationStateENS_9TypeRangeENS_10ValueRangeERKNS0_6detail31ParallelForOpGenericAdaptorBase10PropertiesEN4llvm8ArrayRefINS_14NamedAttributeEEE
FNL:540,5775
FNA:540,0,_ZN4mlir7cpp2fir13ParallelForOp6createERNS_9OpBuilderENS_8LocationENS_9TypeRangeENS_10ValueRangeERKNS0_6detail31ParallelForOpGenericAdaptorBase10PropertiesEN4llvm8ArrayRefINS_14NamedAttributeEEE
FNL:541,5783
FNA:541,0,_ZN4mlir7cpp2fir13ParallelForOp6createERNS_20ImplicitLocOpBuilderENS_9TypeRangeENS_10ValueRangeERKNS0_6detail31ParallelForOpGenericAdaptorBase10PropertiesEN4llvm8ArrayRefINS_14NamedAttributeEEE
FNL:542,5787
FNA:542,0,_ZN4mlir7cpp2fir13ParallelForOp20verifyInvariantsImplEv
FNL:543,579
FNA:543,0,_ZN4mlir7cpp2fir5AndOp6createERNS_9OpBuilderENS_8LocationENS_9TypeRangeENS_10ValueRangeEN4llvm8ArrayRefINS_14NamedAttributeEEE
FNL:544,5824
FNA:544,0,_ZN4mlir7cpp2fir13ParallelForOp16verifyInvariantsEv
FNL:545,5828
FNA:545,0,_ZN4mlir7cpp2fir13ParallelForOp5parseERNS_11OpAsmParserERNS_14OperationStateE
FNL:546,587
FNA:546,0,_ZN4mlir7cpp2fir5AndOp6createERNS_20ImplicitLocOpBuilderENS_9TypeRangeENS_10ValueRangeEN4llvm8ArrayRefINS_14NamedAttributeEEE
FNL:547,5870
FNA:547,0,_ZZN4mlir7cpp2fir13ParallelForOp5parseERNS_11OpAsmParserERNS_14OperationStateEENK3$_0clEv
FNL:548,5886
FNA:548,0,_ZN4mlir7cpp2fir13ParallelForOp5printERNS_12OpAsmPrinterE
FNL:549,591
FNA:549,0,_ZN4mlir7cpp2fir5AndOp5buildERNS_9OpBuilderERNS_14OperationStateENS_9TypeRangeENS_10ValueRangeERKNS_15EmptyPropertiesEN4llvm8ArrayRefINS_14NamedAttributeEEE
FNL:550,5917
FNA:550,0,_ZN4mlir7cpp2fir6detail23PhiOpGenericAdaptorBaseC1ENS0_5PhiOpE
FNA:550,0,_ZN4mlir7cpp2fir6detail23PhiOpGenericAdaptorBaseC2ENS0_5PhiOpE
FNL:551,5919
FNA:551,0,_ZN4mlir7cpp2fir6detail23PhiOpGenericAdaptorBase27getODSOperandIndexAndLengthEjj
FNL:552,5938
FNA:552,0,_ZN4mlir7cpp2fir12PhiOpAdaptorC1ENS0_5PhiOpE
FNA:552,0,_ZN4mlir7cpp2fir12PhiOpAdaptorC2ENS0_5PhiOpE
FNL:553,5940
FNA:553,0,_ZN4mlir7cpp2fir12PhiOpAdaptor6verifyENS_8LocationE
FNL:554,5944
FNA:554,0,_ZN4mlir7cpp2fir5PhiOp27getODSOperandIndexAndLengthEj
FNL:555,5962
FNA:555,0,_ZN4mlir7cpp2fir5PhiOp16getValuesMutableEv
FNL:556,5968
FNA:556,0,_ZN4mlir7cpp2fir5PhiOp21setPropertiesFromAttrERNS_15EmptyPropertiesENS_9AttributeEN4llvm12function_refIFNS_18InFlightDiagnosticEvEEE
FNL:557,5977
FNA:557,0,_ZN4mlir7cpp2fir5PhiOp19getPropertiesAsAttrEPNS_11MLIRContextERKNS_15EmptyPropertiesE
FNL:558,5986
FNA:558,0,_ZN4mlir7cpp2fir5PhiOp21computePropertiesHashERKNS_15EmptyPropertiesE
FNL:559,5991
FNA:559,0,_ZN4mlir7cpp2fir5PhiOp15getInherentAttrEPNS_11MLIRContextERKNS_15EmptyPropertiesEN4llvm9StringRefE
FNL:560,5995
FNA:560,0,_ZN4mlir7cpp2fir5PhiOp15setInherentAttrERNS_15EmptyPropertiesEN4llvm9StringRefENS_9AttributeE
FNL:561,5998
FNA:561,0,_ZN4mlir7cpp2fir5PhiOp21populateInherentAttrsEPNS_11MLIRContextERKNS_15EmptyPropertiesERNS_13NamedAttrListE
FNL:562,600
FNA:562,0,_ZN4mlir7cpp2fir5AndOp6createERNS_9OpBuilderENS_8LocationENS_9TypeRangeENS_10ValueRangeERKNS_15EmptyPropertiesEN4llvm8ArrayRefINS_14NamedAttributeEEE
FNL:563,6001
FNA:563,0,_ZN4mlir7cpp2fir5PhiOp19verifyInherentAttrsENS_13OperationNameERNS_13NamedAttrListEN4llvm12function_refIFNS_18InFlightDiagnosticEvEEE
FNL:564,6005
FNA:564,1,_ZN4mlir7cpp2fir5PhiOp5buildERNS_9OpBuilderERNS_14OperationStateENS_4TypeENS_10ValueRangeE
FNL:565,6010
FNA:565,0,_ZN4mlir7cpp2fir5PhiOp6createERNS_9OpBuilderENS_8LocationENS_4TypeENS_10ValueRangeE
FNL:566,6018
FNA:566,0,_ZN4mlir7cpp2fir5PhiOp6createERNS_20ImplicitLocOpBuilderENS_4TypeENS_10ValueRangeE
FNL:567,6022
FNA:567,0,_ZN4mlir7cpp2fir5PhiOp5buildERNS_9OpBuilderERNS_14OperationStateENS_9TypeRangeENS_10ValueRangeEN4llvm8ArrayRefINS_14NamedAttributeEEE
FNL:568,6029
FNA:568,0,_ZN4mlir7cpp2fir5PhiOp6createERNS_9OpBuilderENS_8LocationENS_9TypeRangeENS_10ValueRangeEN4llvm8ArrayRefINS_14NamedAttributeEEE
FNL:569,6037
FNA:569,0,_ZN4mlir7cpp2fir5PhiOp6createERNS_20ImplicitLocOpBuilderENS_9TypeRangeENS_10ValueRangeEN4llvm8ArrayRefINS_14NamedAttributeEEE
FNL:570,6041
FNA:570,0,_ZN4mlir7cpp2fir5PhiOp5buildERNS_9OpBuilderERNS_14OperationStateENS_9TypeRangeENS_10ValueRangeERKNS_15EmptyPropertiesEN4llvm8ArrayRefINS_14NamedAttributeEEE
FNL:571,6049
FNA:571,0,_ZN4mlir7cpp2fir5PhiOp6createERNS_9OpBuilderENS_8LocationENS_9TypeRangeENS_10ValueRangeERKNS_15EmptyPropertiesEN4llvm8ArrayRefINS_14NamedAttributeEEE
FNL:572,6057
FNA:572,0,_ZN4mlir7cpp2fir5PhiOp6createERNS_20ImplicitLocOpBuilderENS_9TypeRangeENS_10ValueRangeERKNS_15EmptyPropertiesEN4llvm8ArrayRefINS_14NamedAttributeEEE
FNL:573,6061
FNA:573,0,_ZN4mlir7cpp2fir5PhiOp20verifyInvariantsImplEv
FNL:574,608
FNA:574,0,_ZN4mlir7cpp2fir5AndOp6createERNS_20ImplicitLocOpBuilderENS_9TypeRangeENS_10ValueRangeERKNS_15EmptyPropertiesEN4llvm8ArrayRefINS_14NamedAttributeEEE
FNL:575,6083
FNA:575,0,_ZN4mlir7cpp2fir5PhiOp16verifyInvariantsEv
FNL:576,6087
FNA:576,0,_ZN4mlir7cpp2fir5PhiOp5parseERNS_11OpAsmParserERNS_14OperationStateE
FNL:577,61
FNA:577,0,_ZN4mlir7cpp2firL48__mlir_ods_local_type_constraint_Cpp2FIRDialect2EPNS_9OperationENS_4TypeEN4llvm9StringRefEj
FNL:578,6102
FNA:578,0,_ZZN4mlir7cpp2fir5PhiOp5parseERNS_11OpAsmParserERNS_14OperationStateEENK3$_0clEv
FNL:579,612
FNA:579,2,_ZN4mlir7cpp2fir5AndOp20verifyInvariantsImplEv
FNL:580,6127
FNA:580,0,_ZN4mlir7cpp2fir5PhiOp5printERNS_12OpAsmPrinterE
FNL:581,6146
FNA:581,0,_ZN4mlir7cpp2fir5PhiOp10getEffectsERN4llvm15SmallVectorImplINS_11SideEffects14EffectInstanceINS_13MemoryEffects6EffectEEEEE
FNL:582,6161
FNA:582,0,_ZN4mlir7cpp2fir6detail33PostconditionOpGenericAdaptorBaseC1ENS0_15PostconditionOpE
FNA:582,0,_ZN4mlir7cpp2fir6detail33PostconditionOpGenericAdaptorBaseC2ENS0_15PostconditionOpE
FNL:583,6163
FNA:583,0,_ZN4mlir7cpp2fir6detail33PostconditionOpGenericAdaptorBase10getMessageEv
FNL:584,6168
FNA:584,0,_ZN4mlir7cpp2fir6detail33PostconditionOpGenericAdaptorBase13getCategoriesEv
FNL:585,6173
FNA:585,0,_ZN4mlir7cpp2fir6detail33PostconditionOpGenericAdaptorBase12getAuditAttrEv
FNL:586,6180
FNA:586,0,_ZN4mlir7cpp2fir6detail33PostconditionOpGenericAdaptorBase8getAuditEv
FNL:587,6188
FNA:587,0,_ZN4mlir7cpp2fir22PostconditionOpAdaptorC1ENS0_15PostconditionOpE
FNA:587,0,_ZN4mlir7cpp2fir22PostconditionOpAdaptorC2ENS0_15PostconditionOpE
FNL:588,6190
FNA:588,0,_ZN4mlir7cpp2fir22PostconditionOpAdaptor6verifyENS_8LocationE
FNL:589,6206
FNA:589,0,_ZN4mlir7cpp2fir15PostconditionOp21setPropertiesFromAttrERNS0_6detail33PostconditionOpGenericAdaptorBase10PropertiesENS_9AttributeEN4llvm12function_refIFNS_18InFlightDiagnosticEvEEE
FNL:590,6257
FNA:590,0,_ZN4mlir7cpp2fir15PostconditionOp19getPropertiesAsAttrEPNS_11MLIRContextERKNS0_6detail33PostconditionOpGenericAdaptorBase10PropertiesE
FNL:591,6287
FNA:591,0,_ZN4mlir7cpp2fir15PostconditionOp21computePropertiesHashERKNS0_6detail33PostconditionOpGenericAdaptorBase10PropertiesE
FNL:592,6295
FNA:592,0,_ZN4mlir7cpp2fir15PostconditionOp15getInherentAttrEPNS_11MLIRContextERKNS0_6detail33PostconditionOpGenericAdaptorBase10PropertiesEN4llvm9StringRefE
FNL:593,6307
FNA:593,0,_ZN4mlir7cpp2fir15PostconditionOp15setInherentAttrERNS0_6detail33PostconditionOpGenericAdaptorBase10PropertiesEN4llvm9StringRefENS_9AttributeE
FNL:594,6324
FNA:594,0,_ZN4mlir7cpp2fir15PostconditionOp21populateInherentAttrsEPNS_11MLIRContextERKNS0_6detail33PostconditionOpGenericAdaptorBase10PropertiesERNS_13NamedAttrListE
FNL:595,6332
FNA:595,0,_ZN4mlir7cpp2fir15PostconditionOp19verifyInherentAttrsENS_13OperationNameERNS_13NamedAttrListEN4llvm12function_refIFNS_18InFlightDiagnosticEvEEE
FNL:596,6353
FNA:596,0,_ZN4mlir7cpp2fir15PostconditionOp14readPropertiesERNS_21DialectBytecodeReaderERNS_14OperationStateE
FNL:597,6366
FNA:597,0,_ZN4mlir7cpp2fir15PostconditionOp15writePropertiesERNS_21DialectBytecodeWriterE
FNL:598,6376
FNA:598,0,_ZN4mlir7cpp2fir15PostconditionOp10getMessageEv
FNL:599,6381
FNA:599,0,_ZN4mlir7cpp2fir15PostconditionOp13getCategoriesEv
FNL:600,6386
FNA:600,0,_ZN4mlir7cpp2fir15PostconditionOp8getAuditEv
FNL:601,6393
FNA:601,0,_ZN4mlir7cpp2fir15PostconditionOp10setMessageENSt3__18optionalIN4llvm9StringRefEEE
FNL:602,640
FNA:602,0,_ZN4mlir7cpp2fir5AndOp16verifyInvariantsEv
FNL:603,6401
FNA:603,0,_ZN4mlir7cpp2fir15PostconditionOp8setAuditEb
FNL:604,6409
FNA:604,0,_ZN4mlir7cpp2fir15PostconditionOp5buildERNS_9OpBuilderERNS_14OperationStateENS_5ValueENS_10StringAttrENS_9ArrayAttrENS_8UnitAttrE
FNL:605,6422
FNA:605,0,_ZN4mlir7cpp2fir15PostconditionOp6createERNS_9OpBuilderENS_8LocationENS_5ValueENS_10StringAttrENS_9ArrayAttrENS_8UnitAttrE
FNL:606,6430
FNA:606,0,_ZN4mlir7cpp2fir15PostconditionOp6createERNS_20ImplicitLocOpBuilderENS_5ValueENS_10StringAttrENS_9ArrayAttrENS_8UnitAttrE
FNL:607,6434
FNA:607,0,_ZN4mlir7cpp2fir15PostconditionOp5buildERNS_9OpBuilderERNS_14OperationStateENS_9TypeRangeENS_5ValueENS_10StringAttrENS_9ArrayAttrENS_8UnitAttrE
FNL:608,644
FNA:608,0,_ZN4mlir7cpp2fir5AndOp5parseERNS_11OpAsmParserERNS_14OperationStateE
FNL:609,6449
FNA:609,0,_ZN4mlir7cpp2fir15PostconditionOp6createERNS_9OpBuilderENS_8LocationENS_9TypeRangeENS_5ValueENS_10StringAttrENS_9ArrayAttrENS_8UnitAttrE
FNL:610,6457
FNA:610,0,_ZN4mlir7cpp2fir15PostconditionOp6createERNS_20ImplicitLocOpBuilderENS_9TypeRangeENS_5ValueENS_10StringAttrENS_9ArrayAttrENS_8UnitAttrE
FNL:611,6461
FNA:611,0,_ZN4mlir7cpp2fir15PostconditionOp5buildERNS_9OpBuilderERNS_14OperationStateENS_5ValueENS_10StringAttrENS_9ArrayAttrEb
FNL:612,6474
FNA:612,0,_ZN4mlir7cpp2fir15PostconditionOp6createERNS_9OpBuilderENS_8LocationENS_5ValueENS_10StringAttrENS_9ArrayAttrEb
FNL:613,6482
FNA:613,0,_ZN4mlir7cpp2fir15PostconditionOp6createERNS_20ImplicitLocOpBuilderENS_5ValueENS_10StringAttrENS_9ArrayAttrEb
FNL:614,6486
FNA:614,0,_ZN4mlir7cpp2fir15PostconditionOp5buildERNS_9OpBuilderERNS_14OperationStateENS_9TypeRangeENS_5ValueENS_10StringAttrENS_9ArrayAttrEb
FNL:615,6501
FNA:615,0,_ZN4mlir7cpp2fir15PostconditionOp6createERNS_9OpBuilderENS_8LocationENS_9TypeRangeENS_5ValueENS_10StringAttrENS_9ArrayAttrEb
FNL:616,6509
FNA:616,0,_ZN4mlir7cpp2fir15PostconditionOp6createERNS_20ImplicitLocOpBuilderENS_9TypeRangeENS_5ValueENS_10StringAttrENS_9ArrayAttrEb
FNL:617,6513
FNA:617,0,_ZN4mlir7cpp2fir15PostconditionOp5buildERNS_9OpBuilderERNS_14OperationStateENS_9TypeRangeENS_10ValueRangeEN4llvm8ArrayRefINS_14NamedAttributeEEE
FNL:618,6531
FNA:618,0,_ZN4mlir7cpp2fir15PostconditionOp6createERNS_9OpBuilderENS_8LocationENS_9TypeRangeENS_10ValueRangeEN4llvm8ArrayRefINS_14NamedAttributeEEE
FNL:619,6539
FNA:619,0,_ZN4mlir7cpp2fir15PostconditionOp6createERNS_20ImplicitLocOpBuilderENS_9TypeRangeENS_10ValueRangeEN4llvm8ArrayRefINS_14NamedAttributeEEE
FNL:620,6543
FNA:620,0,_ZN4mlir7cpp2fir15PostconditionOp5buildERNS_9OpBuilderERNS_14OperationStateENS_9TypeRangeENS_10ValueRangeERKNS0_6detail33PostconditionOpGenericAdaptorBase10PropertiesEN4llvm8ArrayRefINS_14NamedAttributeEEE
FNL:621,6552
FNA:621,0,_ZN4mlir7cpp2fir15PostconditionOp6createERNS_9OpBuilderENS_8LocationENS_9TypeRangeENS_10ValueRangeERKNS0_6detail33PostconditionOpGenericAdaptorBase10PropertiesEN4llvm8ArrayRefINS_14NamedAttributeEEE
FNL:622,6560
FNA:622,0,_ZN4mlir7cpp2fir15PostconditionOp6createERNS_20ImplicitLocOpBuilderENS_9TypeRangeENS_10ValueRangeERKNS0_6detail33PostconditionOpGenericAdaptorBase10PropertiesEN4llvm8ArrayRefINS_14NamedAttributeEEE
FNL:623,6564
FNA:623,0,_ZN4mlir7cpp2fir15PostconditionOp20verifyInvariantsImplEv
FNL:624,6589
FNA:624,0,_ZN4mlir7cpp2fir15PostconditionOp16verifyInvariantsEv
FNL:625,6593
FNA:625,0,_ZN4mlir7cpp2fir15PostconditionOp5parseERNS_11OpAsmParserERNS_14OperationStateE
FNL:626,6608
FNA:626,0,_ZZN4mlir7cpp2fir15PostconditionOp5parseERNS_11OpAsmParserERNS_14OperationStateEENK3$_0clEv
FNL:627,6634
FNA:627,0,_ZN4mlir7cpp2fir15PostconditionOp5printERNS_12OpAsmPrinterE
FNL:628,6674
FNA:628,0,_ZN4mlir7cpp2fir6detail32PreconditionOpGenericAdaptorBaseC1ENS0_14PreconditionOpE
FNA:628,0,_ZN4mlir7cpp2fir6detail32PreconditionOpGenericAdaptorBaseC2ENS0_14PreconditionOpE
FNL:629,6676
FNA:629,0,_ZN4mlir7cpp2fir6detail32PreconditionOpGenericAdaptorBase10getMessageEv
FNL:630,6681
FNA:630,0,_ZN4mlir7cpp2fir6detail32PreconditionOpGenericAdaptorBase13getCategoriesEv
FNL:631,6686
FNA:631,0,_ZN4mlir7cpp2fir6detail32PreconditionOpGenericAdaptorBase12getAuditAttrEv
FNL:632,6693
FNA:632,0,_ZN4mlir7cpp2fir6detail32PreconditionOpGenericAdaptorBase8getAuditEv
FNL:633,6701
FNA:633,0,_ZN4mlir7cpp2fir21PreconditionOpAdaptorC1ENS0_14PreconditionOpE
FNA:633,0,_ZN4mlir7cpp2fir21PreconditionOpAdaptorC2ENS0_14PreconditionOpE
FNL:634,6703
FNA:634,0,_ZN4mlir7cpp2fir21PreconditionOpAdaptor6verifyENS_8LocationE
FNL:635,671
FNA:635,0,_ZZN4mlir7cpp2fir5AndOp5parseERNS_11OpAsmParserERNS_14OperationStateEENK3$_0clEv
FNL:636,6719
FNA:636,0,_ZN4mlir7cpp2fir14PreconditionOp21setPropertiesFromAttrERNS0_6detail32PreconditionOpGenericAdaptorBase10PropertiesENS_9AttributeEN4llvm12function_refIFNS_18InFlightDiagnosticEvEEE
FNL:637,6770
FNA:637,0,_ZN4mlir7cpp2fir14PreconditionOp19getPropertiesAsAttrEPNS_11MLIRContextERKNS0_6detail32PreconditionOpGenericAdaptorBase10PropertiesE
FNL:638,6800
FNA:638,0,_ZN4mlir7cpp2fir14PreconditionOp21computePropertiesHashERKNS0_6detail32PreconditionOpGenericAdaptorBase10PropertiesE
FNL:639,6808
FNA:639,0,_ZN4mlir7cpp2fir14PreconditionOp15getInherentAttrEPNS_11MLIRContextERKNS0_6detail32PreconditionOpGenericAdaptorBase10PropertiesEN4llvm9StringRefE
FNL:640,6820
FNA:640,0,_ZN4mlir7cpp2fir14PreconditionOp15setInherentAttrERNS0_6detail32PreconditionOpGenericAdaptorBase10PropertiesEN4llvm9StringRefENS_9AttributeE
FNL:641,6837
FNA:641,0,_ZN4mlir7cpp2fir14PreconditionOp21populateInherentAttrsEPNS_11MLIRContextERKNS0_6detail32PreconditionOpGenericAdaptorBase10PropertiesERNS_13NamedAttrListE
FNL:642,6845
FNA:642,0,_ZN4mlir7cpp2fir14PreconditionOp19verifyInherentAttrsENS_13OperationNameERNS_13NamedAttrListEN4llvm12function_refIFNS_18InFlightDiagnosticEvEEE
FNL:643,6866
FNA:643,0,_ZN4mlir7cpp2fir14PreconditionOp14readPropertiesERNS_21DialectBytecodeReaderERNS_14OperationStateE
FNL:644,6879
FNA:644,0,_ZN4mlir7cpp2fir14PreconditionOp15writePropertiesERNS_21DialectBytecodeWriterE
FNL:645,6889
FNA:645,0,_ZN4mlir7cpp2fir14PreconditionOp10getMessageEv
FNL:646,6894
FNA:646,0,_ZN4mlir7cpp2fir14PreconditionOp13getCategoriesEv
FNL:647,6899
FNA:647,0,_ZN4mlir7cpp2fir14PreconditionOp8getAuditEv
FNL:648,6906
FNA:648,0,_ZN4mlir7cpp2fir14PreconditionOp10setMessageENSt3__18optionalIN4llvm9StringRefEEE
FNL:649,6914
FNA:649,0,_ZN4mlir7cpp2fir14PreconditionOp8setAuditEb
FNL:650,6922
FNA:650,0,_ZN4mlir7cpp2fir14PreconditionOp5buildERNS_9OpBuilderERNS_14OperationStateENS_5ValueENS_10StringAttrENS_9ArrayAttrENS_8UnitAttrE
FNL:651,6935
FNA:651,0,_ZN4mlir7cpp2fir14PreconditionOp6createERNS_9OpBuilderENS_8LocationENS_5ValueENS_10StringAttrENS_9ArrayAttrENS_8UnitAttrE
FNL:652,6943
FNA:652,0,_ZN4mlir7cpp2fir14PreconditionOp6createERNS_20ImplicitLocOpBuilderENS_5ValueENS_10StringAttrENS_9ArrayAttrENS_8UnitAttrE
FNL:653,6947
FNA:653,0,_ZN4mlir7cpp2fir14PreconditionOp5buildERNS_9OpBuilderERNS_14OperationStateENS_9TypeRangeENS_5ValueENS_10StringAttrENS_9ArrayAttrENS_8UnitAttrE
FNL:654,6962
FNA:654,0,_ZN4mlir7cpp2fir14PreconditionOp6createERNS_9OpBuilderENS_8LocationENS_9TypeRangeENS_5ValueENS_10StringAttrENS_9ArrayAttrENS_8UnitAttrE
FNL:655,6970
FNA:655,0,_ZN4mlir7cpp2fir14PreconditionOp6createERNS_20ImplicitLocOpBuilderENS_9TypeRangeENS_5ValueENS_10StringAttrENS_9ArrayAttrENS_8UnitAttrE
FNL:656,6974
FNA:656,0,_ZN4mlir7cpp2fir14PreconditionOp5buildERNS_9OpBuilderERNS_14OperationStateENS_5ValueENS_10StringAttrENS_9ArrayAttrEb
FNL:657,6987
FNA:657,0,_ZN4mlir7cpp2fir14PreconditionOp6createERNS_9OpBuilderENS_8LocationENS_5ValueENS_10StringAttrENS_9ArrayAttrEb
FNL:658,6995
FNA:658,0,_ZN4mlir7cpp2fir14PreconditionOp6createERNS_20ImplicitLocOpBuilderENS_5ValueENS_10StringAttrENS_9ArrayAttrEb
FNL:659,6999
FNA:659,0,_ZN4mlir7cpp2fir14PreconditionOp5buildERNS_9OpBuilderERNS_14OperationStateENS_9TypeRangeENS_5ValueENS_10StringAttrENS_9ArrayAttrEb
FNL:660,7014
FNA:660,0,_ZN4mlir7cpp2fir14PreconditionOp6createERNS_9OpBuilderENS_8LocationENS_9TypeRangeENS_5ValueENS_10StringAttrENS_9ArrayAttrEb
FNL:661,7022
FNA:661,0,_ZN4mlir7cpp2fir14PreconditionOp6createERNS_20ImplicitLocOpBuilderENS_9TypeRangeENS_5ValueENS_10StringAttrENS_9ArrayAttrEb
FNL:662,7026
FNA:662,0,_ZN4mlir7cpp2fir14PreconditionOp5buildERNS_9OpBuilderERNS_14OperationStateENS_9TypeRangeENS_10ValueRangeEN4llvm8ArrayRefINS_14NamedAttributeEEE
FNL:663,7044
FNA:663,0,_ZN4mlir7cpp2fir14PreconditionOp6createERNS_9OpBuilderENS_8LocationENS_9TypeRangeENS_10ValueRangeEN4llvm8ArrayRefINS_14NamedAttributeEEE
FNL:664,7052
FNA:664,0,_ZN4mlir7cpp2fir14PreconditionOp6createERNS_20ImplicitLocOpBuilderENS_9TypeRangeENS_10ValueRangeEN4llvm8ArrayRefINS_14NamedAttributeEEE
FNL:665,7056
FNA:665,0,_ZN4mlir7cpp2fir14PreconditionOp5buildERNS_9OpBuilderERNS_14OperationStateENS_9TypeRangeENS_10ValueRangeERKNS0_6detail32PreconditionOpGenericAdaptorBase10PropertiesEN4llvm8ArrayRefINS_14NamedAttributeEEE
FNL:666,7065
FNA:666,0,_ZN4mlir7cpp2fir14PreconditionOp6createERNS_9OpBuilderENS_8LocationENS_9TypeRangeENS_10ValueRangeERKNS0_6detail32PreconditionOpGenericAdaptorBase10PropertiesEN4llvm8ArrayRefINS_14NamedAttributeEEE
FNL:667,7073
FNA:667,0,_ZN4mlir7cpp2fir14PreconditionOp6createERNS_20ImplicitLocOpBuilderENS_9TypeRangeENS_10ValueRangeERKNS0_6detail32PreconditionOpGenericAdaptorBase10PropertiesEN4llvm8ArrayRefINS_14NamedAttributeEEE
FNL:668,7077
FNA:668,0,_ZN4mlir7cpp2fir14PreconditionOp20verifyInvariantsImplEv
FNL:669,71
FNA:669,24,_ZN4mlir7cpp2firL48__mlir_ods_local_type_constraint_Cpp2FIRDialect3EPNS_9OperationENS_4TypeEN4llvm9StringRefEj
FNL:670,7102
FNA:670,0,_ZN4mlir7cpp2fir14PreconditionOp16verifyInvariantsEv
FNL:671,7106
FNA:671,0,_ZN4mlir7cpp2fir14PreconditionOp5parseERNS_11OpAsmParserERNS_14OperationStateE
FNL:672,711
FNA:672,2,_ZN4mlir7cpp2fir5AndOp5printERNS_12OpAsmPrinterE
FNL:673,7121
FNA:673,0,_ZZN4mlir7cpp2fir14PreconditionOp5parseERNS_11OpAsmParserERNS_14OperationStateEENK3$_0clEv
FNL:674,7147
FNA:674,0,_ZN4mlir7cpp2fir14PreconditionOp5printERNS_12OpAsmPrinterE
FNL:675,7187
FNA:675,0,_ZN4mlir7cpp2fir6detail24RecvOpGenericAdaptorBaseC1ENS0_6RecvOpE
FNA:675,0,_ZN4mlir7cpp2fir6detail24RecvOpGenericAdaptorBaseC2ENS0_6RecvOpE
FNL:676,7189
FNA:676,0,_ZN4mlir7cpp2fir6detail24RecvOpGenericAdaptorBase18getNonBlockingAttrEv
FNL:677,7196
FNA:677,0,_ZN4mlir7cpp2fir6detail24RecvOpGenericAdaptorBase14getNonBlockingEv
FNL:678,7204
FNA:678,0,_ZN4mlir7cpp2fir13RecvOpAdaptorC1ENS0_6RecvOpE
FNA:678,0,_ZN4mlir7cpp2fir13RecvOpAdaptorC2ENS0_6RecvOpE
FNL:679,7206
FNA:679,0,_ZN4mlir7cpp2fir13RecvOpAdaptor6verifyENS_8LocationE
FNL:680,7214
FNA:680,0,_ZN4mlir7cpp2fir6RecvOp17getAsmResultNamesEN4llvm12function_refIFvNS_5ValueENS2_9StringRefEEEE
FNL:681,7223
FNA:681,0,_ZN4mlir7cpp2fir6RecvOp21setPropertiesFromAttrERNS0_6detail24RecvOpGenericAdaptorBase10PropertiesENS_9AttributeEN4llvm12function_refIFNS_18InFlightDiagnosticEvEEE
FNL:682,7246
FNA:682,0,_ZN4mlir7cpp2fir6RecvOp19getPropertiesAsAttrEPNS_11MLIRContextERKNS0_6detail24RecvOpGenericAdaptorBase10PropertiesE
FNL:683,7262
FNA:683,0,_ZN4mlir7cpp2fir6RecvOp21computePropertiesHashERKNS0_6detail24RecvOpGenericAdaptorBase10PropertiesE
FNL:684,7268
FNA:684,0,_ZN4mlir7cpp2fir6RecvOp15getInherentAttrEPNS_11MLIRContextERKNS0_6detail24RecvOpGenericAdaptorBase10PropertiesEN4llvm9StringRefE
FNL:685,7274
FNA:685,0,_ZN4mlir7cpp2fir6RecvOp15setInherentAttrERNS0_6detail24RecvOpGenericAdaptorBase10PropertiesEN4llvm9StringRefENS_9AttributeE
FNL:686,7281
FNA:686,0,_ZN4mlir7cpp2fir6RecvOp21populateInherentAttrsEPNS_11MLIRContextERKNS0_6detail24RecvOpGenericAdaptorBase10PropertiesERNS_13NamedAttrListE
FNL:687,7285
FNA:687,0,_ZN4mlir7cpp2fir6RecvOp19verifyInherentAttrsENS_13OperationNameERNS_13NamedAttrListEN4llvm12function_refIFNS_18InFlightDiagnosticEvEEE
FNL:688,7294
FNA:688,0,_ZN4mlir7cpp2fir6RecvOp14readPropertiesERNS_21DialectBytecodeReaderERNS_14OperationStateE
FNL:689,7301
FNA:689,0,_ZN4mlir7cpp2fir6RecvOp15writePropertiesERNS_21DialectBytecodeWriterE
FNL:690,7307
FNA:690,0,_ZN4mlir7cpp2fir6RecvOp14getNonBlockingEv
FNL:691,7314
FNA:691,0,_ZN4mlir7cpp2fir6RecvOp14setNonBlockingEb
FNL:692,7322
FNA:692,0,_ZN4mlir7cpp2fir6RecvOp5buildERNS_9OpBuilderERNS_14OperationStateENS_4TypeES6_NS_5ValueENS_8UnitAttrE
FNL:693,7331
FNA:693,0,_ZN4mlir7cpp2fir6RecvOp6createERNS_9OpBuilderENS_8LocationENS_4TypeES5_NS_5ValueENS_8UnitAttrE
FNL:694,7339
FNA:694,0,_ZN4mlir7cpp2fir6RecvOp6createERNS_20ImplicitLocOpBuilderENS_4TypeES4_NS_5ValueENS_8UnitAttrE
FNL:695,7343
FNA:695,0,_ZN4mlir7cpp2fir6RecvOp5buildERNS_9OpBuilderERNS_14OperationStateENS_9TypeRangeENS_5ValueENS_8UnitAttrE
FNL:696,7352
FNA:696,0,_ZN4mlir7cpp2fir6RecvOp6createERNS_9OpBuilderENS_8LocationENS_9TypeRangeENS_5ValueENS_8UnitAttrE
FNL:697,7360
FNA:697,0,_ZN4mlir7cpp2fir6RecvOp6createERNS_20ImplicitLocOpBuilderENS_9TypeRangeENS_5ValueENS_8UnitAttrE
FNL:698,7364
FNA:698,0,_ZN4mlir7cpp2fir6RecvOp5buildERNS_9OpBuilderERNS_14OperationStateENS_4TypeES6_NS_5ValueEb
FNL:699,7373
FNA:699,0,_ZN4mlir7cpp2fir6RecvOp6createERNS_9OpBuilderENS_8LocationENS_4TypeES5_NS_5ValueEb
FNL:700,7381
FNA:700,0,_ZN4mlir7cpp2fir6RecvOp6createERNS_20ImplicitLocOpBuilderENS_4TypeES4_NS_5ValueEb
FNL:701,7385
FNA:701,0,_ZN4mlir7cpp2fir6RecvOp5buildERNS_9OpBuilderERNS_14OperationStateENS_9TypeRangeENS_5ValueEb
FNL:702,7394
FNA:702,0,_ZN4mlir7cpp2fir6RecvOp6createERNS_9OpBuilderENS_8LocationENS_9TypeRangeENS_5ValueEb
FNL:703,7402
FNA:703,0,_ZN4mlir7cpp2fir6RecvOp6createERNS_20ImplicitLocOpBuilderENS_9TypeRangeENS_5ValueEb
FNL:704,7406
FNA:704,0,_ZN4mlir7cpp2fir6RecvOp5buildERNS_9OpBuilderERNS_14OperationStateENS_9TypeRangeENS_10ValueRangeEN4llvm8ArrayRefINS_14NamedAttributeEEE
FNL:705,7424
FNA:705,0,_ZN4mlir7cpp2fir6RecvOp6createERNS_9OpBuilderENS_8LocationENS_9TypeRangeENS_10ValueRangeEN4llvm8ArrayRefINS_14NamedAttributeEEE
FNL:706,7432
FNA:706,0,_ZN4mlir7cpp2fir6RecvOp6createERNS_20ImplicitLocOpBuilderENS_9TypeRangeENS_10ValueRangeEN4llvm8ArrayRefINS_14NamedAttributeEEE
FNL:707,7436
FNA:707,0,_ZN4mlir7cpp2fir6RecvOp5buildERNS_9OpBuilderERNS_14OperationStateENS_9TypeRangeENS_10ValueRangeERKNS0_6detail24RecvOpGenericAdaptorBase10PropertiesEN4llvm8ArrayRefINS_14NamedAttributeEEE
FNL:708,7445
FNA:708,0,_ZN4mlir7cpp2fir6RecvOp6createERNS_9OpBuilderENS_8LocationENS_9TypeRangeENS_10ValueRangeERKNS0_6detail24RecvOpGenericAdaptorBase10PropertiesEN4llvm8ArrayRefINS_14NamedAttributeEEE
FNL:709,7453
FNA:709,0,_ZN4mlir7cpp2fir6RecvOp6createERNS_20ImplicitLocOpBuilderENS_9TypeRangeENS_10ValueRangeERKNS0_6detail24RecvOpGenericAdaptorBase10PropertiesEN4llvm8ArrayRefINS_14NamedAttributeEEE
FNL:710,7457
FNA:710,0,_ZN4mlir7cpp2fir6RecvOp20verifyInvariantsImplEv
FNL:711,748
FNA:711,0,_ZN4mlir7cpp2fir5AndOp10getEffectsERN4llvm15SmallVectorImplINS_11SideEffects14EffectInstanceINS_13MemoryEffects6EffectEEEEE
FNL:712,7489
FNA:712,0,_ZN4mlir7cpp2fir6RecvOp16verifyInvariantsEv
FNL:713,7493
FNA:713,0,_ZN4mlir7cpp2fir6RecvOp5parseERNS_11OpAsmParserERNS_14OperationStateE
FNL:714,7520
FNA:714,0,_ZZN4mlir7cpp2fir6RecvOp5parseERNS_11OpAsmParserERNS_14OperationStateEENK3$_0clEv
FNL:715,7552
FNA:715,0,_ZN4mlir7cpp2fir6RecvOp5printERNS_12OpAsmPrinterE
FNL:716,7608
FNA:716,0,_ZN4mlir7cpp2fir6detail26ReturnOpGenericAdaptorBaseC1ENS0_8ReturnOpE
FNA:716,0,_ZN4mlir7cpp2fir6detail26ReturnOpGenericAdaptorBaseC2ENS0_8ReturnOpE
FNL:717,7610
FNA:717,0,_ZN4mlir7cpp2fir6detail26ReturnOpGenericAdaptorBase27getODSOperandIndexAndLengthEjj
FNL:718,7629
FNA:718,0,_ZN4mlir7cpp2fir15ReturnOpAdaptorC1ENS0_8ReturnOpE
FNA:718,0,_ZN4mlir7cpp2fir15ReturnOpAdaptorC2ENS0_8ReturnOpE
FNL:719,763
FNA:719,0,_ZN4mlir7cpp2fir6detail26AssertOpGenericAdaptorBaseC1ENS0_8AssertOpE
FNA:719,0,_ZN4mlir7cpp2fir6detail26AssertOpGenericAdaptorBaseC2ENS0_8AssertOpE
FNL:720,7631
FNA:720,0,_ZN4mlir7cpp2fir15ReturnOpAdaptor6verifyENS_8LocationE
FNL:721,7635
FNA:721,90,_ZN4mlir7cpp2fir8ReturnOp27getODSOperandIndexAndLengthEj
FNL:722,765
FNA:722,0,_ZN4mlir7cpp2fir6detail26AssertOpGenericAdaptorBase10getMessageEv
FNL:723,7653
FNA:723,0,_ZN4mlir7cpp2fir8ReturnOp18getOperandsMutableEv
FNL:724,7659
FNA:724,0,_ZN4mlir7cpp2fir8ReturnOp21setPropertiesFromAttrERNS_15EmptyPropertiesENS_9AttributeEN4llvm12function_refIFNS_18InFlightDiagnosticEvEEE
FNL:725,7668
FNA:725,0,_ZN4mlir7cpp2fir8ReturnOp19getPropertiesAsAttrEPNS_11MLIRContextERKNS_15EmptyPropertiesE
FNL:726,7677
FNA:726,0,_ZN4mlir7cpp2fir8ReturnOp21computePropertiesHashERKNS_15EmptyPropertiesE
FNL:727,7682
FNA:727,0,_ZN4mlir7cpp2fir8ReturnOp15getInherentAttrEPNS_11MLIRContextERKNS_15EmptyPropertiesEN4llvm9StringRefE
FNL:728,7686
FNA:728,0,_ZN4mlir7cpp2fir8ReturnOp15setInherentAttrERNS_15EmptyPropertiesEN4llvm9StringRefENS_9AttributeE
FNL:729,7689
FNA:729,0,_ZN4mlir7cpp2fir8ReturnOp21populateInherentAttrsEPNS_11MLIRContextERKNS_15EmptyPropertiesERNS_13NamedAttrListE
FNL:730,7692
FNA:730,0,_ZN4mlir7cpp2fir8ReturnOp19verifyInherentAttrsENS_13OperationNameERNS_13NamedAttrListEN4llvm12function_refIFNS_18InFlightDiagnosticEvEEE
FNL:731,7696
FNA:731,20,_ZN4mlir7cpp2fir8ReturnOp5buildERNS_9OpBuilderERNS_14OperationStateENS_10ValueRangeE
FNL:732,770
FNA:732,0,_ZN4mlir7cpp2fir6detail26AssertOpGenericAdaptorBase13getCategoriesEv
FNL:733,7700
FNA:733,0,_ZN4mlir7cpp2fir8ReturnOp6createERNS_9OpBuilderENS_8LocationENS_10ValueRangeE
FNL:734,7708
FNA:734,0,_ZN4mlir7cpp2fir8ReturnOp6createERNS_20ImplicitLocOpBuilderENS_10ValueRangeE
FNL:735,7712
FNA:735,0,_ZN4mlir7cpp2fir8ReturnOp5buildERNS_9OpBuilderERNS_14OperationStateENS_9TypeRangeENS_10ValueRangeEN4llvm8ArrayRefINS_14NamedAttributeEEE
FNL:736,7719
FNA:736,0,_ZN4mlir7cpp2fir8ReturnOp6createERNS_9OpBuilderENS_8LocationENS_9TypeRangeENS_10ValueRangeEN4llvm8ArrayRefINS_14NamedAttributeEEE
FNL:737,7727
FNA:737,0,_ZN4mlir7cpp2fir8ReturnOp6createERNS_20ImplicitLocOpBuilderENS_9TypeRangeENS_10ValueRangeEN4llvm8ArrayRefINS_14NamedAttributeEEE
FNL:738,7731
FNA:738,0,_ZN4mlir7cpp2fir8ReturnOp5buildERNS_9OpBuilderERNS_14OperationStateENS_9TypeRangeENS_10ValueRangeERKNS_15EmptyPropertiesEN4llvm8ArrayRefINS_14NamedAttributeEEE
FNL:739,7739
FNA:739,0,_ZN4mlir7cpp2fir8ReturnOp6createERNS_9OpBuilderENS_8LocationENS_9TypeRangeENS_10ValueRangeERKNS_15EmptyPropertiesEN4llvm8ArrayRefINS_14NamedAttributeEEE
FNL:740,7747
FNA:740,0,_ZN4mlir7cpp2fir8ReturnOp6createERNS_20ImplicitLocOpBuilderENS_9TypeRangeENS_10ValueRangeERKNS_15EmptyPropertiesEN4llvm8ArrayRefINS_14NamedAttributeEEE
FNL:741,775
FNA:741,0,_ZN4mlir7cpp2fir6detail26AssertOpGenericAdaptorBase12getAuditAttrEv
FNL:742,7751
FNA:742,24,_ZN4mlir7cpp2fir8ReturnOp20verifyInvariantsImplEv
FNL:743,7764
FNA:743,0,_ZN4mlir7cpp2fir8ReturnOp16verifyInvariantsEv
FNL:744,7768
FNA:744,0,_ZN4mlir7cpp2fir8ReturnOp5parseERNS_11OpAsmParserERNS_14OperationStateE
FNL:745,7777
FNA:745,0,_ZZN4mlir7cpp2fir8ReturnOp5parseERNS_11OpAsmParserERNS_14OperationStateEENK3$_0clEv
FNL:746,7798
FNA:746,22,_ZN4mlir7cpp2fir8ReturnOp5printERNS_12OpAsmPrinterE
FNL:747,7810
FNA:747,0,_ZN4mlir7cpp2fir8ReturnOp27getMutableSuccessorOperandsENS_17RegionBranchPointE
FNL:748,782
FNA:748,0,_ZN4mlir7cpp2fir6detail26AssertOpGenericAdaptorBase8getAuditEv
FNL:749,7827
FNA:749,0,_ZN4mlir7cpp2fir6detail24SendOpGenericAdaptorBaseC1ENS0_6SendOpE
FNA:749,0,_ZN4mlir7cpp2fir6detail24SendOpGenericAdaptorBaseC2ENS0_6SendOpE
FNL:750,7830
FNA:750,0,_ZN4mlir7cpp2fir13SendOpAdaptorC1ENS0_6SendOpE
FNA:750,0,_ZN4mlir7cpp2fir13SendOpAdaptorC2ENS0_6SendOpE
FNL:751,7832
FNA:751,0,_ZN4mlir7cpp2fir13SendOpAdaptor6verifyENS_8LocationE
FNL:752,7836
FNA:752,0,_ZN4mlir7cpp2fir6SendOp21setPropertiesFromAttrERNS_15EmptyPropertiesENS_9AttributeEN4llvm12function_refIFNS_18InFlightDiagnosticEvEEE
FNL:753,7845
FNA:753,0,_ZN4mlir7cpp2fir6SendOp19getPropertiesAsAttrEPNS_11MLIRContextERKNS_15EmptyPropertiesE
FNL:754,7854
FNA:754,0,_ZN4mlir7cpp2fir6SendOp21computePropertiesHashERKNS_15EmptyPropertiesE
FNL:755,7859
FNA:755,0,_ZN4mlir7cpp2fir6SendOp15getInherentAttrEPNS_11MLIRContextERKNS_15EmptyPropertiesEN4llvm9StringRefE
FNL:756,7863
FNA:756,0,_ZN4mlir7cpp2fir6SendOp15setInherentAttrERNS_15EmptyPropertiesEN4llvm9StringRefENS_9AttributeE
FNL:757,7866
FNA:757,0,_ZN4mlir7cpp2fir6SendOp21populateInherentAttrsEPNS_11MLIRContextERKNS_15EmptyPropertiesERNS_13NamedAttrListE
FNL:758,7869
FNA:758,0,_ZN4mlir7cpp2fir6SendOp19verifyInherentAttrsENS_13OperationNameERNS_13NamedAttrListEN4llvm12function_refIFNS_18InFlightDiagnosticEvEEE
FNL:759,7873
FNA:759,0,_ZN4mlir7cpp2fir6SendOp5buildERNS_9OpBuilderERNS_14OperationStateENS_5ValueES6_
FNL:760,7878
FNA:760,0,_ZN4mlir7cpp2fir6SendOp6createERNS_9OpBuilderENS_8LocationENS_5ValueES5_
FNL:761,7886
FNA:761,0,_ZN4mlir7cpp2fir6SendOp6createERNS_20ImplicitLocOpBuilderENS_5ValueES4_
FNL:762,7890
FNA:762,0,_ZN4mlir7cpp2fir6SendOp5buildERNS_9OpBuilderERNS_14OperationStateENS_9TypeRangeENS_5ValueES7_
FNL:763,7897
FNA:763,0,_ZN4mlir7cpp2fir6SendOp6createERNS_9OpBuilderENS_8LocationENS_9TypeRangeENS_5ValueES6_
FNL:764,790
FNA:764,0,_ZN4mlir7cpp2fir15AssertOpAdaptorC1ENS0_8AssertOpE
FNA:764,0,_ZN4mlir7cpp2fir15AssertOpAdaptorC2ENS0_8AssertOpE
FNL:765,7905
FNA:765,0,_ZN4mlir7cpp2fir6SendOp6createERNS_20ImplicitLocOpBuilderENS_9TypeRangeENS_5ValueES5_
FNL:766,7909
FNA:766,0,_ZN4mlir7cpp2fir6SendOp5buildERNS_9OpBuilderERNS_14OperationStateENS_9TypeRangeENS_10ValueRangeEN4llvm8ArrayRefINS_14NamedAttributeEEE
FNL:767,7917
FNA:767,0,_ZN4mlir7cpp2fir6SendOp6createERNS_9OpBuilderENS_8LocationENS_9TypeRangeENS_10ValueRangeEN4llvm8ArrayRefINS_14NamedAttributeEEE
FNL:768,792
FNA:768,0,_ZN4mlir7cpp2fir15AssertOpAdaptor6verifyENS_8LocationE
FNL:769,7925
FNA:769,0,_ZN4mlir7cpp2fir6SendOp6createERNS_20ImplicitLocOpBuilderENS_9TypeRangeENS_10ValueRangeEN4llvm8ArrayRefINS_14NamedAttributeEEE
FNL:770,7929
FNA:770,0,_ZN4mlir7cpp2fir6SendOp5buildERNS_9OpBuilderERNS_14OperationStateENS_9TypeRangeENS_10ValueRangeERKNS_15EmptyPropertiesEN4llvm8ArrayRefINS_14NamedAttributeEEE
FNL:771,7938
FNA:771,0,_ZN4mlir7cpp2fir6SendOp6createERNS_9OpBuilderENS_8LocationENS_9TypeRangeENS_10ValueRangeERKNS_15EmptyPropertiesEN4llvm8ArrayRefINS_14NamedAttributeEEE
FNL:772,7946
FNA:772,0,_ZN4mlir7cpp2fir6SendOp6createERNS_20ImplicitLocOpBuilderENS_9TypeRangeENS_10ValueRangeERKNS_15EmptyPropertiesEN4llvm8ArrayRefINS_14NamedAttributeEEE
FNL:773,7950
FNA:773,0,_ZN4mlir7cpp2fir6SendOp20verifyInvariantsImplEv
FNL:774,7969
FNA:774,0,_ZN4mlir7cpp2fir6SendOp16verifyInvariantsEv
FNL:775,7973
FNA:775,0,_ZN4mlir7cpp2fir6SendOp5parseERNS_11OpAsmParserERNS_14OperationStateE
FNL:776,7998
FNA:776,0,_ZZN4mlir7cpp2fir6SendOp5parseERNS_11OpAsmParserERNS_14OperationStateEENK3$_0clEv
FNL:777,8028
FNA:777,0,_ZN4mlir7cpp2fir6SendOp5printERNS_12OpAsmPrinterE
FNL:778,8068
FNA:778,0,_ZN4mlir7cpp2fir6detail25SpawnOpGenericAdaptorBaseC1ENS0_7SpawnOpE
FNA:778,0,_ZN4mlir7cpp2fir6detail25SpawnOpGenericAdaptorBaseC2ENS0_7SpawnOpE
FNL:779,8070
FNA:779,0,_ZN4mlir7cpp2fir6detail25SpawnOpGenericAdaptorBase16getResultChannelEv
FNL:780,8076
FNA:780,0,_ZN4mlir7cpp2fir14SpawnOpAdaptorC1ENS0_7SpawnOpE
FNA:780,0,_ZN4mlir7cpp2fir14SpawnOpAdaptorC2ENS0_7SpawnOpE
FNL:781,8078
FNA:781,0,_ZN4mlir7cpp2fir14SpawnOpAdaptor6verifyENS_8LocationE
FNL:782,808
FNA:782,0,_ZN4mlir7cpp2fir8AssertOp21setPropertiesFromAttrERNS0_6detail26AssertOpGenericAdaptorBase10PropertiesENS_9AttributeEN4llvm12function_refIFNS_18InFlightDiagnosticEvEEE
FNL:783,8086
FNA:783,0,_ZN4mlir7cpp2fir7SpawnOp21setPropertiesFromAttrERNS0_6detail25SpawnOpGenericAdaptorBase10PropertiesENS_9AttributeEN4llvm12function_refIFNS_18InFlightDiagnosticEvEEE
FNL:784,81
FNA:784,25,_ZN4mlir7cpp2firL48__mlir_ods_local_attr_constraint_Cpp2FIRDialect1ENS_9AttributeEN4llvm9StringRefENS2_12function_refIFNS_18InFlightDiagnosticEvEEE
FNL:785,8109
FNA:785,0,_ZN4mlir7cpp2fir7SpawnOp19getPropertiesAsAttrEPNS_11MLIRContextERKNS0_6detail25SpawnOpGenericAdaptorBase10PropertiesE
FNL:786,8125
FNA:786,0,_ZN4mlir7cpp2fir7SpawnOp21computePropertiesHashERKNS0_6detail25SpawnOpGenericAdaptorBase10PropertiesE
FNL:787,8131
FNA:787,0,_ZN4mlir7cpp2fir7SpawnOp15getInherentAttrEPNS_11MLIRContextERKNS0_6detail25SpawnOpGenericAdaptorBase10PropertiesEN4llvm9StringRefE
FNL:788,8137
FNA:788,0,_ZN4mlir7cpp2fir7SpawnOp15setInherentAttrERNS0_6detail25SpawnOpGenericAdaptorBase10PropertiesEN4llvm9StringRefENS_9AttributeE
FNL:789,8144
FNA:789,0,_ZN4mlir7cpp2fir7SpawnOp21populateInherentAttrsEPNS_11MLIRContextERKNS0_6detail25SpawnOpGenericAdaptorBase10PropertiesERNS_13NamedAttrListE
FNL:790,8148
FNA:790,0,_ZN4mlir7cpp2fir7SpawnOp19verifyInherentAttrsENS_13OperationNameERNS_13NamedAttrListEN4llvm12function_refIFNS_18InFlightDiagnosticEvEEE
FNL:791,8157
FNA:791,0,_ZN4mlir7cpp2fir7SpawnOp14readPropertiesERNS_21DialectBytecodeReaderERNS_14OperationStateE
FNL:792,8164
FNA:792,0,_ZN4mlir7cpp2fir7SpawnOp15writePropertiesERNS_21DialectBytecodeWriterE
FNL:793,8170
FNA:793,0,_ZN4mlir7cpp2fir7SpawnOp16getResultChannelEv
FNL:794,8175
FNA:794,0,_ZN4mlir7cpp2fir7SpawnOp16setResultChannelENSt3__18optionalIN4llvm9StringRefEEE
FNL:795,8183
FNA:795,0,_ZN4mlir7cpp2fir7SpawnOp5buildERNS_9OpBuilderERNS_14OperationStateENS_4TypeENS_5ValueENS_10StringAttrE
FNL:796,8191
FNA:796,0,_ZN4mlir7cpp2fir7SpawnOp6createERNS_9OpBuilderENS_8LocationENS_4TypeENS_5ValueENS_10StringAttrE
FNL:797,8199
FNA:797,0,_ZN4mlir7cpp2fir7SpawnOp6createERNS_20ImplicitLocOpBuilderENS_4TypeENS_5ValueENS_10StringAttrE
FNL:798,8203
FNA:798,0,_ZN4mlir7cpp2fir7SpawnOp5buildERNS_9OpBuilderERNS_14OperationStateENS_9TypeRangeENS_5ValueENS_10StringAttrE
FNL:799,8212
FNA:799,0,_ZN4mlir7cpp2fir7SpawnOp6createERNS_9OpBuilderENS_8LocationENS_9TypeRangeENS_5ValueENS_10StringAttrE
FNL:800,8220
FNA:800,0,_ZN4mlir7cpp2fir7SpawnOp6createERNS_20ImplicitLocOpBuilderENS_9TypeRangeENS_5ValueENS_10StringAttrE
FNL:801,8224
FNA:801,0,_ZN4mlir7cpp2fir7SpawnOp5buildERNS_9OpBuilderERNS_14OperationStateENS_9TypeRangeENS_10ValueRangeEN4llvm8ArrayRefINS_14NamedAttributeEEE
FNL:802,8242
FNA:802,0,_ZN4mlir7cpp2fir7SpawnOp6createERNS_9OpBuilderENS_8LocationENS_9TypeRangeENS_10ValueRangeEN4llvm8ArrayRefINS_14NamedAttributeEEE
FNL:803,8250
FNA:803,0,_ZN4mlir7cpp2fir7SpawnOp6createERNS_20ImplicitLocOpBuilderENS_9TypeRangeENS_10ValueRangeEN4llvm8ArrayRefINS_14NamedAttributeEEE
FNL:804,8254
FNA:804,0,_ZN4mlir7cpp2fir7SpawnOp5buildERNS_9OpBuilderERNS_14OperationStateENS_9TypeRangeENS_10ValueRangeERKNS0_6detail25SpawnOpGenericAdaptorBase10PropertiesEN4llvm8ArrayRefINS_14NamedAttributeEEE
FNL:805,8263
FNA:805,0,_ZN4mlir7cpp2fir7SpawnOp6createERNS_9OpBuilderENS_8LocationENS_9TypeRangeENS_10ValueRangeERKNS0_6detail25SpawnOpGenericAdaptorBase10PropertiesEN4llvm8ArrayRefINS_14NamedAttributeEEE
FNL:806,8271
FNA:806,0,_ZN4mlir7cpp2fir7SpawnOp6createERNS_20ImplicitLocOpBuilderENS_9TypeRangeENS_10ValueRangeERKNS0_6detail25SpawnOpGenericAdaptorBase10PropertiesEN4llvm8ArrayRefINS_14NamedAttributeEEE
FNL:807,8275
FNA:807,0,_ZN4mlir7cpp2fir7SpawnOp20verifyInvariantsImplEv
FNL:808,8301
FNA:808,0,_ZN4mlir7cpp2fir7SpawnOp16verifyInvariantsEv
FNL:809,8305
FNA:809,0,_ZN4mlir7cpp2fir7SpawnOp5parseERNS_11OpAsmParserERNS_14OperationStateE
FNL:810,8322
FNA:810,0,_ZZN4mlir7cpp2fir7SpawnOp5parseERNS_11OpAsmParserERNS_14OperationStateEENK3$_0clEv
FNL:811,8358
FNA:811,0,_ZN4mlir7cpp2fir7SpawnOp5printERNS_12OpAsmPrinterE
FNL:812,8401
FNA:812,0,_ZN4mlir7cpp2fir6detail23SubOpGenericAdaptorBaseC1ENS0_5SubOpE
FNA:812,0,_ZN4mlir7cpp2fir6detail23SubOpGenericAdaptorBaseC2ENS0_5SubOpE
FNL:813,8404
FNA:813,0,_ZN4mlir7cpp2fir12SubOpAdaptorC1ENS0_5SubOpE
FNA:813,0,_ZN4mlir7cpp2fir12SubOpAdaptorC2ENS0_5SubOpE
FNL:814,8406
FNA:814,0,_ZN4mlir7cpp2fir12SubOpAdaptor6verifyENS_8LocationE
FNL:815,8410
FNA:815,0,_ZN4mlir7cpp2fir5SubOp21setPropertiesFromAttrERNS_15EmptyPropertiesENS_9AttributeEN4llvm12function_refIFNS_18InFlightDiagnosticEvEEE
FNL:816,8419
FNA:816,0,_ZN4mlir7cpp2fir5SubOp19getPropertiesAsAttrEPNS_11MLIRContextERKNS_15EmptyPropertiesE
FNL:817,8428
FNA:817,0,_ZN4mlir7cpp2fir5SubOp21computePropertiesHashERKNS_15EmptyPropertiesE
FNL:818,8433
FNA:818,0,_ZN4mlir7cpp2fir5SubOp15getInherentAttrEPNS_11MLIRContextERKNS_15EmptyPropertiesEN4llvm9StringRefE
FNL:819,8437
FNA:819,0,_ZN4mlir7cpp2fir5SubOp15setInherentAttrERNS_15EmptyPropertiesEN4llvm9StringRefENS_9AttributeE
FNL:820,8440
FNA:820,0,_ZN4mlir7cpp2fir5SubOp21populateInherentAttrsEPNS_11MLIRContextERKNS_15EmptyPropertiesERNS_13NamedAttrListE
FNL:821,8443
FNA:821,0,_ZN4mlir7cpp2fir5SubOp19verifyInherentAttrsENS_13OperationNameERNS_13NamedAttrListEN4llvm12function_refIFNS_18InFlightDiagnosticEvEEE
FNL:822,8447
FNA:822,2,_ZN4mlir7cpp2fir5SubOp5buildERNS_9OpBuilderERNS_14OperationStateENS_4TypeENS_5ValueES7_
FNL:823,8453
FNA:823,0,_ZN4mlir7cpp2fir5SubOp6createERNS_9OpBuilderENS_8LocationENS_4TypeENS_5ValueES6_
FNL:824,8461
FNA:824,0,_ZN4mlir7cpp2fir5SubOp6createERNS_20ImplicitLocOpBuilderENS_4TypeENS_5ValueES5_
FNL:825,8465
FNA:825,0,_ZN4mlir7cpp2fir5SubOp5buildERNS_9OpBuilderERNS_14OperationStateENS_9TypeRangeENS_5ValueES7_
FNL:826,8472
FNA:826,0,_ZN4mlir7cpp2fir5SubOp6createERNS_9OpBuilderENS_8LocationENS_9TypeRangeENS_5ValueES6_
FNL:827,8480
FNA:827,0,_ZN4mlir7cpp2fir5SubOp6createERNS_20ImplicitLocOpBuilderENS_9TypeRangeENS_5ValueES5_
FNL:828,8484
FNA:828,0,_ZN4mlir7cpp2fir5SubOp5buildERNS_9OpBuilderERNS_14OperationStateENS_9TypeRangeENS_10ValueRangeEN4llvm8ArrayRefINS_14NamedAttributeEEE
FNL:829,8492
FNA:829,0,_ZN4mlir7cpp2fir5SubOp6createERNS_9OpBuilderENS_8LocationENS_9TypeRangeENS_10ValueRangeEN4llvm8ArrayRefINS_14NamedAttributeEEE
FNL:830,8500
FNA:830,0,_ZN4mlir7cpp2fir5SubOp6createERNS_20ImplicitLocOpBuilderENS_9TypeRangeENS_10ValueRangeEN4llvm8ArrayRefINS_14NamedAttributeEEE
FNL:831,8504
FNA:831,0,_ZN4mlir7cpp2fir5SubOp5buildERNS_9OpBuilderERNS_14OperationStateENS_9TypeRangeENS_10ValueRangeERKNS_15EmptyPropertiesEN4llvm8ArrayRefINS_14NamedAttributeEEE
FNL:832,8513
FNA:832,0,_ZN4mlir7cpp2fir5SubOp6createERNS_9OpBuilderENS_8LocationENS_9TypeRangeENS_10ValueRangeERKNS_15EmptyPropertiesEN4llvm8ArrayRefINS_14NamedAttributeEEE
FNL:833,8521
FNA:833,0,_ZN4mlir7cpp2fir5SubOp6createERNS_20ImplicitLocOpBuilderENS_9TypeRangeENS_10ValueRangeERKNS_15EmptyPropertiesEN4llvm8ArrayRefINS_14NamedAttributeEEE
FNL:834,8525
FNA:834,1,_ZN4mlir7cpp2fir5SubOp20verifyInvariantsImplEv
FNL:835,8553
FNA:835,0,_ZN4mlir7cpp2fir5SubOp16verifyInvariantsEv
FNL:836,8557
FNA:836,0,_ZN4mlir7cpp2fir5SubOp5parseERNS_11OpAsmParserERNS_14OperationStateE
FNL:837,8584
FNA:837,0,_ZZN4mlir7cpp2fir5SubOp5parseERNS_11OpAsmParserERNS_14OperationStateEENK3$_0clEv
FNL:838,859
FNA:838,0,_ZN4mlir7cpp2fir8AssertOp19getPropertiesAsAttrEPNS_11MLIRContextERKNS0_6detail26AssertOpGenericAdaptorBase10PropertiesE
FNL:839,8624
FNA:839,2,_ZN4mlir7cpp2fir5SubOp5printERNS_12OpAsmPrinterE
FNL:840,8661
FNA:840,0,_ZN4mlir7cpp2fir5SubOp10getEffectsERN4llvm15SmallVectorImplINS_11SideEffects14EffectInstanceINS_13MemoryEffects6EffectEEEEE
FNL:841,8676
FNA:841,0,_ZN4mlir7cpp2fir6detail28UfcsCallOpGenericAdaptorBaseC1ENS0_10UfcsCallOpE
FNA:841,0,_ZN4mlir7cpp2fir6detail28UfcsCallOpGenericAdaptorBaseC2ENS0_10UfcsCallOpE
FNL:842,8678
FNA:842,0,_ZN4mlir7cpp2fir6detail28UfcsCallOpGenericAdaptorBase27getODSOperandIndexAndLengthEjj
FNL:843,8697
FNA:843,0,_ZN4mlir7cpp2fir17UfcsCallOpAdaptorC1ENS0_10UfcsCallOpE
FNA:843,0,_ZN4mlir7cpp2fir17UfcsCallOpAdaptorC2ENS0_10UfcsCallOpE
FNL:844,8699
FNA:844,0,_ZN4mlir7cpp2fir17UfcsCallOpAdaptor6verifyENS_8LocationE
FNL:845,8703
FNA:845,0,_ZN4mlir7cpp2fir10UfcsCallOp27getODSOperandIndexAndLengthEj
FNL:846,8721
FNA:846,0,_ZN4mlir7cpp2fir10UfcsCallOp14getArgsMutableEv
FNL:847,8727
FNA:847,0,_ZN4mlir7cpp2fir10UfcsCallOp21setPropertiesFromAttrERNS_15EmptyPropertiesENS_9AttributeEN4llvm12function_refIFNS_18InFlightDiagnosticEvEEE
FNL:848,8736
FNA:848,0,_ZN4mlir7cpp2fir10UfcsCallOp19getPropertiesAsAttrEPNS_11MLIRContextERKNS_15EmptyPropertiesE
FNL:849,8745
FNA:849,0,_ZN4mlir7cpp2fir10UfcsCallOp21computePropertiesHashERKNS_15EmptyPropertiesE
FNL:850,8750
FNA:850,0,_ZN4mlir7cpp2fir10UfcsCallOp15getInherentAttrEPNS_11MLIRContextERKNS_15EmptyPropertiesEN4llvm9StringRefE
FNL:851,8754
FNA:851,0,_ZN4mlir7cpp2fir10UfcsCallOp15setInherentAttrERNS_15EmptyPropertiesEN4llvm9StringRefENS_9AttributeE
FNL:852,8757
FNA:852,0,_ZN4mlir7cpp2fir10UfcsCallOp21populateInherentAttrsEPNS_11MLIRContextERKNS_15EmptyPropertiesERNS_13NamedAttrListE
FNL:853,8760
FNA:853,0,_ZN4mlir7cpp2fir10UfcsCallOp19verifyInherentAttrsENS_13OperationNameERNS_13NamedAttrListEN4llvm12function_refIFNS_18InFlightDiagnosticEvEEE
FNL:854,8764
FNA:854,0,_ZN4mlir7cpp2fir10UfcsCallOp5buildERNS_9OpBuilderERNS_14OperationStateENS_4TypeENS_10ValueRangeE
FNL:855,8769
FNA:855,0,_ZN4mlir7cpp2fir10UfcsCallOp6createERNS_9OpBuilderENS_8LocationENS_4TypeENS_10ValueRangeE
FNL:856,8777
FNA:856,0,_ZN4mlir7cpp2fir10UfcsCallOp6createERNS_20ImplicitLocOpBuilderENS_4TypeENS_10ValueRangeE
FNL:857,8781
FNA:857,0,_ZN4mlir7cpp2fir10UfcsCallOp5buildERNS_9OpBuilderERNS_14OperationStateENS_9TypeRangeENS_10ValueRangeEN4llvm8ArrayRefINS_14NamedAttributeEEE
FNL:858,8788
FNA:858,0,_ZN4mlir7cpp2fir10UfcsCallOp6createERNS_9OpBuilderENS_8LocationENS_9TypeRangeENS_10ValueRangeEN4llvm8ArrayRefINS_14NamedAttributeEEE
FNL:859,8796
FNA:859,0,_ZN4mlir7cpp2fir10UfcsCallOp6createERNS_20ImplicitLocOpBuilderENS_9TypeRangeENS_10ValueRangeEN4llvm8ArrayRefINS_14NamedAttributeEEE
FNL:860,88
FNA:860,25,_ZN4mlir7cpp2firL48__mlir_ods_local_attr_constraint_Cpp2FIRDialect1EPNS_9OperationENS_9AttributeEN4llvm9StringRefE
FNL:861,8800
FNA:861,0,_ZN4mlir7cpp2fir10UfcsCallOp5buildERNS_9OpBuilderERNS_14OperationStateENS_9TypeRangeENS_10ValueRangeERKNS_15EmptyPropertiesEN4llvm8ArrayRefINS_14NamedAttributeEEE
FNL:862,8808
FNA:862,0,_ZN4mlir7cpp2fir10UfcsCallOp6createERNS_9OpBuilderENS_8LocationENS_9TypeRangeENS_10ValueRangeERKNS_15EmptyPropertiesEN4llvm8ArrayRefINS_14NamedAttributeEEE
FNL:863,8816
FNA:863,0,_ZN4mlir7cpp2fir10UfcsCallOp6createERNS_20ImplicitLocOpBuilderENS_9TypeRangeENS_10ValueRangeERKNS_15EmptyPropertiesEN4llvm8ArrayRefINS_14NamedAttributeEEE
FNL:864,8820
FNA:864,0,_ZN4mlir7cpp2fir10UfcsCallOp20verifyInvariantsImplEv
FNL:865,8842
FNA:865,0,_ZN4mlir7cpp2fir10UfcsCallOp16verifyInvariantsEv
FNL:866,8846
FNA:866,0,_ZN4mlir7cpp2fir10UfcsCallOp5parseERNS_11OpAsmParserERNS_14OperationStateE
FNL:867,8861
FNA:867,0,_ZZN4mlir7cpp2fir10UfcsCallOp5parseERNS_11OpAsmParserERNS_14OperationStateEENK3$_0clEv
FNL:868,8886
FNA:868,0,_ZN4mlir7cpp2fir10UfcsCallOp5printERNS_12OpAsmPrinterE
FNL:869,889
FNA:869,0,_ZN4mlir7cpp2fir8AssertOp21computePropertiesHashERKNS0_6detail26AssertOpGenericAdaptorBase10PropertiesE
FNL:870,897
FNA:870,0,_ZN4mlir7cpp2fir8AssertOp15getInherentAttrEPNS_11MLIRContextERKNS0_6detail26AssertOpGenericAdaptorBase10PropertiesEN4llvm9StringRefE
FNL:871,90
FNA:871,0,_ZZN4mlir7cpp2firL48__mlir_ods_local_attr_constraint_Cpp2FIRDialect1EPNS_9OperationENS_9AttributeEN4llvm9StringRefEENK3$_0clEv
FNL:872,909
FNA:872,0,_ZN4mlir7cpp2fir8AssertOp15setInherentAttrERNS0_6detail26AssertOpGenericAdaptorBase10PropertiesEN4llvm9StringRefENS_9AttributeE
FNL:873,926
FNA:873,0,_ZN4mlir7cpp2fir8AssertOp21populateInherentAttrsEPNS_11MLIRContextERKNS0_6detail26AssertOpGenericAdaptorBase10PropertiesERNS_13NamedAttrListE
FNL:874,934
FNA:874,0,_ZN4mlir7cpp2fir8AssertOp19verifyInherentAttrsENS_13OperationNameERNS_13NamedAttrListEN4llvm12function_refIFNS_18InFlightDiagnosticEvEEE
FNL:875,95
FNA:875,48,_ZN4mlir7cpp2firL48__mlir_ods_local_attr_constraint_Cpp2FIRDialect2ENS_9AttributeEN4llvm9StringRefENS2_12function_refIFNS_18InFlightDiagnosticEvEEE
FNL:876,955
FNA:876,0,_ZN4mlir7cpp2fir8AssertOp14readPropertiesERNS_21DialectBytecodeReaderERNS_14OperationStateE
FNL:877,968
FNA:877,0,_ZN4mlir7cpp2fir8AssertOp15writePropertiesERNS_21DialectBytecodeWriterE
FNL:878,978
FNA:878,0,_ZN4mlir7cpp2fir8AssertOp10getMessageEv
FNL:879,983
FNA:879,0,_ZN4mlir7cpp2fir8AssertOp13getCategoriesEv
FNL:880,988
FNA:880,0,_ZN4mlir7cpp2fir8AssertOp8getAuditEv
FNL:881,995
FNA:881,0,_ZN4mlir7cpp2fir8AssertOp10setMessageENSt3__18optionalIN4llvm9StringRefEEE
FNF:882
FNH:51
DA:51,96
DA:58,96
DA:61,0
DA:64,0
DA:65,0
DA:66,0
DA:68,0
DA:69,0
DA:71,24
DA:78,24
DA:81,25
DA:83,25
DA:84,0
DA:85,0
DA:86,25
DA:87,25
DA:88,25
DA:90,25
DA:91,0
DA:95,48
DA:97,48
DA:98,0
DA:99,0
DA:100,48
DA:101,48
DA:102,48
DA:104,48
DA:105,0
DA:109,0
DA:111,0
DA:112,0
DA:113,0
DA:114,0
DA:115,0
DA:116,0
DA:118,0
DA:119,0
DA:123,0
DA:125,0
DA:126,0
DA:127,0
DA:128,0
DA:129,0
DA:130,0
DA:132,0
DA:133,0
DA:137,0
DA:139,0
DA:140,0
DA:141,0
DA:142,0
DA:143,0
DA:144,0
DA:146,0
DA:147,0
DA:151,51
DA:153,51
DA:154,0
DA:155,0
DA:156,51
DA:157,51
DA:158,51
DA:160,51
DA:161,0
DA:165,24
DA:167,24
DA:168,0
DA:169,0
DA:170,24
DA:171,24
DA:172,24
DA:174,24
DA:175,0
DA:179,0
DA:181,0
DA:182,0
DA:183,0
DA:184,0
DA:185,0
DA:186,0
DA:188,0
DA:189,0
DA:193,24
DA:201,24
DA:213,0
DA:216,0
DA:218,0
DA:219,0
DA:222,0
DA:223,0
DA:224,0
DA:225,0
DA:226,0
DA:228,0
DA:229,0
DA:231,0
DA:232,0
DA:233,0
DA:235,0
DA:236,0
DA:237,0
DA:238,0
DA:240,0
DA:242,0
DA:245,0
DA:246,0
DA:249,0
DA:250,0
DA:252,0
DA:253,0
DA:255,0
DA:256,0
DA:259,3
DA:260,3
DA:261,3
DA:262,3
DA:263,3
DA:265,0
DA:266,0
DA:267,0
DA:268,0
DA:269,0
DA:271,0
DA:273,0
DA:274,0
DA:277,0
DA:278,0
DA:279,0
DA:280,0
DA:281,0
DA:282,0
DA:284,0
DA:285,0
DA:286,0
DA:287,0
DA:288,0
DA:290,0
DA:292,0
DA:293,0
DA:296,0
DA:297,0
DA:298,0
DA:299,0
DA:300,0
DA:301,0
DA:302,0
DA:304,0
DA:305,0
DA:306,0
DA:307,0
DA:308,0
DA:310,0
DA:312,0
DA:313,0
DA:316,0
DA:317,0
DA:318,0
DA:319,0
DA:320,0
DA:321,0
DA:322,0
DA:323,0
DA:325,0
DA:326,0
DA:327,0
DA:328,0
DA:329,0
DA:331,0
DA:333,0
DA:334,0
DA:337,6
DA:339,6
DA:340,6
DA:342,12
DA:343,6
DA:344,0
DA:346,6
DA:348,12
DA:349,6
DA:350,0
DA:354,6
DA:355,6
DA:357,12
DA:358,6
DA:359,0
DA:362,6
DA:363,6
DA:365,0
DA:366,0
DA:369,0
DA:370,0
DA:371,0
DA:373,0
DA:374,0
DA:376,0
DA:377,0
DA:378,0
DA:379,0
DA:380,0
DA:381,0
DA:383,0
DA:384,0
DA:385,0
DA:386,0
DA:387,0
DA:389,0
DA:390,0
DA:391,0
DA:393,0
DA:394,0
DA:395,0
DA:396,0
DA:397,0
DA:398,0
DA:399,0
DA:401,0
DA:402,0
DA:405,0
DA:406,0
DA:407,0
DA:408,0
DA:410,0
DA:411,0
DA:414,0
DA:415,0
DA:416,0
DA:417,0
DA:419,0
DA:420,0
DA:423,0
DA:424,0
DA:425,0
DA:426,0
DA:428,0
DA:429,0
DA:430,0
DA:431,0
DA:432,0
DA:433,0
DA:434,0
DA:436,8
DA:437,8
DA:438,8
DA:439,8
DA:440,8
DA:441,8
DA:442,8
DA:443,8
DA:444,8
DA:445,8
DA:447,8
DA:448,8
DA:449,8
DA:451,0
DA:453,8
DA:454,8
DA:456,8
DA:457,8
DA:458,8
DA:460,0
DA:462,8
DA:463,8
DA:465,8
DA:466,8
DA:467,8
DA:469,0
DA:471,8
DA:473,0
DA:474,0
DA:488,0
DA:491,0
DA:493,0
DA:494,0
DA:497,0
DA:498,0
DA:499,0
DA:500,0
DA:501,0
DA:503,0
DA:504,0
DA:506,0
DA:507,0
DA:508,0
DA:510,0
DA:511,0
DA:512,0
DA:513,0
DA:515,0
DA:517,0
DA:520,0
DA:521,0
DA:524,0
DA:525,0
DA:527,0
DA:528,0
DA:530,0
DA:531,0
DA:534,2
DA:535,2
DA:536,2
DA:537,2
DA:538,2
DA:540,0
DA:541,0
DA:542,0
DA:543,0
DA:544,0
DA:546,0
DA:548,0
DA:549,0
DA:552,0
DA:553,0
DA:554,0
DA:555,0
DA:556,0
DA:557,0
DA:559,0
DA:560,0
DA:561,0
DA:562,0
DA:563,0
DA:565,0
DA:567,0
DA:568,0
DA:571,0
DA:572,0
DA:573,0
DA:574,0
DA:575,0
DA:576,0
DA:577,0
DA:579,0
DA:580,0
DA:581,0
DA:582,0
DA:583,0
DA:585,0
DA:587,0
DA:588,0
DA:591,0
DA:592,0
DA:593,0
DA:594,0
DA:595,0
DA:596,0
DA:597,0
DA:598,0
DA:600,0
DA:601,0
DA:602,0
DA:603,0
DA:604,0
DA:606,0
DA:608,0
DA:609,0
DA:612,2
DA:614,2
DA:615,2
DA:617,4
DA:618,2
DA:619,0
DA:621,2
DA:623,4
DA:624,2
DA:625,0
DA:629,2
DA:630,2
DA:632,4
DA:633,2
DA:634,0
DA:637,2
DA:638,2
DA:640,0
DA:641,0
DA:644,0
DA:645,0
DA:646,0
DA:648,0
DA:649,0
DA:651,0
DA:652,0
DA:653,0
DA:654,0
DA:655,0
DA:656,0
DA:658,0
DA:659,0
DA:660,0
DA:661,0
DA:662,0
DA:664,0
DA:665,0
DA:666,0
DA:668,0
DA:669,0
DA:670,0
DA:671,0
DA:672,0
DA:673,0
DA:674,0
DA:676,0
DA:677,0
DA:680,0
DA:681,0
DA:682,0
DA:683,0
DA:685,0
DA:686,0
DA:689,0
DA:690,0
DA:691,0
DA:692,0
DA:694,0
DA:695,0
DA:698,0
DA:699,0
DA:700,0
DA:701,0
DA:703,0
DA:704,0
DA:705,0
DA:706,0
DA:707,0
DA:708,0
DA:709,0
DA:711,2
DA:712,2
DA:713,2
DA:714,2
DA:715,2
DA:716,2
DA:717,2
DA:718,2
DA:719,2
DA:720,2
DA:722,2
DA:723,2
DA:724,2
DA:726,0
DA:728,2
DA:729,2
DA:731,2
DA:732,2
DA:733,2
DA:735,0
DA:737,2
DA:738,2
DA:740,2
DA:741,2
DA:742,2
DA:744,0
DA:746,2
DA:748,0
DA:749,0
DA:763,0
DA:765,0
DA:766,0
DA:767,0
DA:770,0
DA:771,0
DA:772,0
DA:775,0
DA:776,0
DA:777,0
DA:778,0
DA:779,0
DA:782,0
DA:783,0
DA:784,0
DA:785,0
DA:786,0
DA:787,0
DA:790,0
DA:792,0
DA:793,0
DA:794,0
DA:795,0
DA:797,0
DA:798,0
DA:800,0
DA:801,0
DA:803,0
DA:804,0
DA:805,0
DA:806,0
DA:808,0
DA:809,0
DA:810,0
DA:811,0
DA:812,0
DA:816,0
DA:817,0
DA:818,0
DA:819,0
DA:820,0
DA:821,0
DA:822,0
DA:823,0
DA:824,0
DA:826,0
DA:830,0
DA:831,0
DA:832,0
DA:833,0
DA:834,0
DA:835,0
DA:836,0
DA:837,0
DA:838,0
DA:840,0
DA:844,0
DA:845,0
DA:846,0
DA:847,0
DA:848,0
DA:849,0
DA:850,0
DA:851,0
DA:852,0
DA:854,0
DA:856,0
DA:857,0
DA:859,0
DA:860,0
DA:861,0
DA:864,0
DA:865,0
DA:866,0
DA:867,0
DA:871,0
DA:872,0
DA:873,0
DA:874,0
DA:878,0
DA:879,0
DA:880,0
DA:881,0
DA:884,0
DA:885,0
DA:886,0
DA:887,0
DA:889,0
DA:891,0
DA:892,0
DA:893,0
DA:894,0
DA:897,0
DA:898,0
DA:899,0
DA:901,0
DA:902,0
DA:904,0
DA:905,0
DA:906,0
DA:907,0
DA:909,0
DA:910,0
DA:911,0
DA:912,0
DA:915,0
DA:916,0
DA:917,0
DA:920,0
DA:921,0
DA:922,0
DA:924,0
DA:926,0
DA:927,0
DA:929,0
DA:931,0
DA:932,0
DA:934,0
DA:936,0
DA:937,0
DA:938,0
DA:942,0
DA:943,0
DA:944,0
DA:948,0
DA:949,0
DA:950,0
DA:952,0
DA:953,0
DA:955,0
DA:956,0
DA:957,0
DA:958,0
DA:960,0
DA:961,0
DA:963,0
DA:964,0
DA:965,0
DA:966,0
DA:968,0
DA:969,0
DA:971,0
DA:973,0
DA:975,0
DA:976,0
DA:978,0
DA:979,0
DA:980,0
DA:983,0
DA:984,0
DA:985,0
DA:988,0
DA:989,0
DA:990,0
DA:991,0
DA:992,0
DA:993,0
DA:995,0
DA:996,0
DA:997,0
DA:998,0
DA:1000,0
DA:1001,0
DA:1003,0
DA:1004,0
DA:1005,0
DA:1006,0
DA:1008,0
DA:1009,0
DA:1011,0
DA:1012,0
DA:1013,0
DA:1014,0
DA:1015,0
DA:1016,0
DA:1017,0
DA:1018,0
DA:1019,0
DA:1020,0
DA:1021,0
DA:1022,0
DA:1024,0
DA:1025,0
DA:1026,0
DA:1027,0
DA:1028,0
DA:1030,0
DA:1032,0
DA:1033,0
DA:1036,0
DA:1037,0
DA:1038,0
DA:1039,0
DA:1040,0
DA:1041,0
DA:1042,0
DA:1043,0
DA:1044,0
DA:1045,0
DA:1046,0
DA:1047,0
DA:1048,0
DA:1049,0
DA:1051,0
DA:1052,0
DA:1053,0
DA:1054,0
DA:1055,0
DA:1057,0
DA:1059,0
DA:1060,0
DA:1063,0
DA:1064,0
DA:1065,0
DA:1066,0
DA:1067,0
DA:1068,0
DA:1069,0
DA:1070,0
DA:1071,0
DA:1072,0
DA:1073,0
DA:1074,0
DA:1076,0
DA:1077,0
DA:1078,0
DA:1079,0
DA:1080,0
DA:1082,0
DA:1084,0
DA:1085,0
DA:1088,0
DA:1089,0
DA:1090,0
DA:1091,0
DA:1092,0
DA:1093,0
DA:1094,0
DA:1095,0
DA:1096,0
DA:1097,0
DA:1098,0
DA:1099,0
DA:1100,0
DA:1101,0
DA:1103,0
DA:1104,0
DA:1105,0
DA:1106,0
DA:1107,0
DA:1109,0
DA:1111,0
DA:1112,0
DA:1115,0
DA:1116,0
DA:1117,0
DA:1118,0
DA:1119,0
DA:1120,0
DA:1122,0
DA:1124,0
DA:1126,0
DA:1127,0
DA:1128,0
DA:1129,0
DA:1130,0
DA:1131,0
DA:1133,0
DA:1134,0
DA:1135,0
DA:1136,0
DA:1137,0
DA:1139,0
DA:1141,0
DA:1142,0
DA:1145,0
DA:1146,0
DA:1147,0
DA:1148,0
DA:1149,0
DA:1150,0
DA:1151,0
DA:1152,0
DA:1154,0
DA:1155,0
DA:1156,0
DA:1157,0
DA:1158,0
DA:1160,0
DA:1162,0
DA:1163,0
DA:1166,0
DA:1167,0
DA:1168,0
DA:1169,0
DA:1171,0
DA:1172,0
DA:1174,0
DA:1175,0
DA:1177,0
DA:1178,0
DA:1180,0
DA:1181,0
DA:1183,0
DA:1184,0
DA:1185,0
DA:1188,0
DA:1189,0
DA:1191,0
DA:1192,0
DA:1195,0
DA:1196,0
DA:1197,0
DA:1199,0
DA:1200,0
DA:1201,0
DA:1203,0
DA:1204,0
DA:1205,0
DA:1207,0
DA:1208,0
DA:1209,0
DA:1210,0
DA:1211,0
DA:1212,0
DA:1213,0
DA:1215,0
DA:1216,0
DA:1219,0
DA:1220,0
DA:1221,0
DA:1222,0
DA:1224,0
DA:1226,0
DA:1227,0
DA:1229,0
DA:1230,0
DA:1231,0
DA:1232,0
DA:1233,0
DA:1234,0
DA:1236,0
DA:1237,0
DA:1238,0
DA:1239,0
DA:1240,0
DA:1242,0
DA:1243,0
DA:1244,0
DA:1245,0
DA:1247,0
DA:1248,0
DA:1249,0
DA:1251,0
DA:1252,0
DA:1253,0
DA:1255,0
DA:1257,0
DA:1258,0
DA:1259,0
DA:1260,0
DA:1261,0
DA:1262,0
DA:1276,0
DA:1278,0
DA:1279,0
DA:1280,0
DA:1284,0
DA:1286,0
DA:1287,0
DA:1289,0
DA:1290,0
DA:1291,0
DA:1292,0
DA:1294,0
DA:1295,0
DA:1296,0
DA:1297,0
DA:1298,0
DA:1302,0
DA:1303,0
DA:1304,0
DA:1305,0
DA:1306,0
DA:1307,0
DA:1308,0
DA:1309,0
DA:1310,0
DA:1312,0
DA:1314,0
DA:1315,0
DA:1317,0
DA:1318,0
DA:1319,0
DA:1322,0
DA:1323,0
DA:1324,0
DA:1325,0
DA:1328,0
DA:1329,0
DA:1330,0
DA:1331,0
DA:1333,0
DA:1335,0
DA:1336,0
DA:1339,0
DA:1340,0
DA:1341,0
DA:1342,0
DA:1343,0
DA:1345,0
DA:1346,0
DA:1347,0
DA:1348,0
DA:1350,0
DA:1352,0
DA:1353,0
DA:1354,0
DA:1356,0
DA:1358,0
DA:1359,0
DA:1360,0
DA:1362,0
DA:1363,0
DA:1365,0
DA:1366,0
DA:1367,0
DA:1368,0
DA:1369,0
DA:1370,0
DA:1372,0
DA:1373,0
DA:1375,0
DA:1376,0
DA:1378,0
DA:1379,0
DA:1380,0
DA:1383,0
DA:1384,0
DA:1385,0
DA:1386,0
DA:1388,0
DA:1389,0
DA:1391,0
DA:1392,0
DA:1393,0
DA:1394,0
DA:1395,0
DA:1396,0
DA:1397,0
DA:1399,0
DA:1400,0
DA:1401,0
DA:1402,0
DA:1403,0
DA:1405,0
DA:1407,0
DA:1408,0
DA:1411,0
DA:1412,0
DA:1413,0
DA:1414,0
DA:1415,0
DA:1416,0
DA:1417,0
DA:1418,0
DA:1420,0
DA:1421,0
DA:1422,0
DA:1423,0
DA:1424,0
DA:1426,0
DA:1428,0
DA:1429,0
DA:1432,0
DA:1433,0
DA:1434,0
DA:1435,0
DA:1436,0
DA:1437,0
DA:1439,0
DA:1441,0
DA:1443,0
DA:1444,0
DA:1445,0
DA:1446,0
DA:1447,0
DA:1448,0
DA:1450,0
DA:1451,0
DA:1452,0
DA:1453,0
DA:1454,0
DA:1456,0
DA:1458,0
DA:1459,0
DA:1462,0
DA:1463,0
DA:1464,0
DA:1465,0
DA:1466,0
DA:1467,0
DA:1468,0
DA:1469,0
DA:1471,0
DA:1472,0
DA:1473,0
DA:1474,0
DA:1475,0
DA:1477,0
DA:1479,0
DA:1480,0
DA:1483,0
DA:1484,0
DA:1486,0
DA:1487,0
DA:1489,0
DA:1490,0
DA:1492,0
DA:1493,0
DA:1494,0
DA:1498,0
DA:1499,0
DA:1501,0
DA:1502,0
DA:1503,0
DA:1506,0
DA:1507,0
DA:1509,0
DA:1510,0
DA:1513,0
DA:1514,0
DA:1515,0
DA:1517,0
DA:1518,0
DA:1519,0
DA:1520,0
DA:1521,0
DA:1523,0
DA:1524,0
DA:1525,0
DA:1527,0
DA:1528,0
DA:1529,0
DA:1530,0
DA:1531,0
DA:1532,0
DA:1533,0
DA:1535,0
DA:1536,0
DA:1539,0
DA:1540,0
DA:1541,0
DA:1542,0
DA:1544,0
DA:1545,0
DA:1548,0
DA:1549,0
DA:1550,0
DA:1551,0
DA:1553,0
DA:1555,0
DA:1556,0
DA:1558,0
DA:1559,0
DA:1560,0
DA:1561,0
DA:1562,0
DA:1563,0
DA:1564,0
DA:1566,0
DA:1567,0
DA:1568,0
DA:1569,0
DA:1570,0
DA:1571,0
DA:1572,0
DA:1573,0
DA:1575,0
DA:1576,0
DA:1577,0
DA:1579,0
DA:1581,0
DA:1582,0
DA:1584,0
DA:1585,0
DA:1586,0
DA:1588,0
DA:1590,0
DA:1591,0
DA:1592,0
DA:1593,0
DA:1594,0
DA:1595,0
DA:1609,0
DA:1611,0
DA:1612,0
DA:1613,0
DA:1616,0
DA:1617,0
DA:1618,0
DA:1619,0
DA:1622,0
DA:1624,0
DA:1625,0
DA:1626,0
DA:1627,0
DA:1629,0
DA:1630,0
DA:1632,0
DA:1633,0
DA:1634,0
DA:1635,0
DA:1637,0
DA:1638,0
DA:1639,0
DA:1640,0
DA:1641,0
DA:1645,0
DA:1646,0
DA:1647,0
DA:1648,0
DA:1649,0
DA:1650,0
DA:1651,0
DA:1652,0
DA:1653,0
DA:1655,0
DA:1659,0
DA:1660,0
DA:1661,0
DA:1662,0
DA:1663,0
DA:1664,0
DA:1665,0
DA:1666,0
DA:1667,0
DA:1669,0
DA:1671,0
DA:1672,0
DA:1674,0
DA:1675,0
DA:1676,0
DA:1679,0
DA:1680,0
DA:1681,0
DA:1682,0
DA:1686,0
DA:1687,0
DA:1688,0
DA:1689,0
DA:1692,0
DA:1693,0
DA:1694,0
DA:1695,0
DA:1697,0
DA:1699,0
DA:1700,0
DA:1701,0
DA:1704,0
DA:1705,0
DA:1706,0
DA:1708,0
DA:1709,0
DA:1710,0
DA:1711,0
DA:1713,0
DA:1714,0
DA:1715,0
DA:1716,0
DA:1719,0
DA:1720,0
DA:1721,0
DA:1723,0
DA:1725,0
DA:1726,0
DA:1728,0
DA:1729,0
DA:1731,0
DA:1733,0
DA:1734,0
DA:1735,0
DA:1739,0
DA:1740,0
DA:1741,0
DA:1743,0
DA:1744,0
DA:1746,0
DA:1747,0
DA:1748,0
DA:1749,0
DA:1751,0
DA:1752,0
DA:1753,0
DA:1754,0
DA:1756,0
DA:1757,0
DA:1759,0
DA:1760,0
DA:1761,0
DA:1763,0
DA:1764,0
DA:1765,0
DA:1768,0
DA:1769,0
DA:1770,0
DA:1771,0
DA:1773,0
DA:1774,0
DA:1775,0
DA:1777,0
DA:1778,0
DA:1779,0
DA:1780,0
DA:1782,0
DA:1783,0
DA:1785,0
DA:1786,0
DA:1787,0
DA:1788,0
DA:1789,0
DA:1790,0
DA:1791,0
DA:1793,0
DA:1794,0
DA:1795,0
DA:1796,0
DA:1797,0
DA:1799,0
DA:1801,0
DA:1802,0
DA:1805,0
DA:1806,0
DA:1807,0
DA:1808,0
DA:1809,0
DA:1810,0
DA:1811,0
DA:1812,0
DA:1814,0
DA:1815,0
DA:1816,0
DA:1817,0
DA:1818,0
DA:1820,0
DA:1822,0
DA:1823,0
DA:1826,0
DA:1827,0
DA:1828,0
DA:1829,0
DA:1830,0
DA:1831,0
DA:1832,0
DA:1834,0
DA:1835,0
DA:1836,0
DA:1837,0
DA:1838,0
DA:1840,0
DA:1842,0
DA:1843,0
DA:1846,0
DA:1847,0
DA:1848,0
DA:1849,0
DA:1850,0
DA:1851,0
DA:1852,0
DA:1853,0
DA:1855,0
DA:1856,0
DA:1857,0
DA:1858,0
DA:1859,0
DA:1861,0
DA:1863,0
DA:1864,0
DA:1867,0
DA:1868,0
DA:1869,0
DA:1870,0
DA:1871,0
DA:1872,0
DA:1874,0
DA:1876,0
DA:1878,0
DA:1879,0
DA:1880,0
DA:1881,0
DA:1882,0
DA:1883,0
DA:1885,0
DA:1886,0
DA:1887,0
DA:1888,0
DA:1889,0
DA:1891,0
DA:1893,0
DA:1894,0
DA:1897,0
DA:1898,0
DA:1899,0
DA:1900,0
DA:1901,0
DA:1902,0
DA:1903,0
DA:1904,0
DA:1906,0
DA:1907,0
DA:1908,0
DA:1909,0
DA:1910,0
DA:1912,0
DA:1914,0
DA:1915,0
DA:1918,0
DA:1919,0
DA:1920,0
DA:1921,0
DA:1923,0
DA:1924,0
DA:1926,0
DA:1927,0
DA:1929,0
DA:1930,0
DA:1932,0
DA:1933,0
DA:1934,0
DA:1937,0
DA:1938,0
DA:1940,0
DA:1941,0
DA:1944,0
DA:1945,0
DA:1946,0
DA:1947,0
DA:1948,0
DA:1950,0
DA:1951,0
DA:1953,0
DA:1955,0
DA:1956,0
DA:1957,0
DA:1958,0
DA:1959,0
DA:1960,0
DA:1961,0
DA:1963,0
DA:1965,0
DA:1966,0
DA:1968,0
DA:1969,0
DA:1970,0
DA:1971,0
DA:1974,0
DA:1975,0
DA:1976,0
DA:1977,0
DA:1979,0
DA:1980,0
DA:1981,0
DA:1983,0
DA:1984,0
DA:1985,0
DA:1986,0
DA:1987,0
DA:1988,0
DA:1989,0
DA:1990,0
DA:1991,0
DA:1992,0
DA:1993,0
DA:1994,0
DA:1995,0
DA:1996,0
DA:1998,0
DA:1999,0
DA:2000,0
DA:2002,0
DA:2004,0
DA:2018,0
DA:2020,0
DA:2021,0
DA:2022,0
DA:2026,0
DA:2028,0
DA:2029,0
DA:2030,0
DA:2032,0
DA:2033,0
DA:2034,0
DA:2035,0
DA:2037,0
DA:2038,0
DA:2039,0
DA:2040,0
DA:2041,0
DA:2045,0
DA:2046,0
DA:2047,0
DA:2048,0
DA:2049,0
DA:2050,0
DA:2051,0
DA:2052,0
DA:2053,0
DA:2055,0
DA:2057,0
DA:2058,0
DA:2060,0
DA:2061,0
DA:2062,0
DA:2065,0
DA:2066,0
DA:2067,0
DA:2068,0
DA:2071,0
DA:2072,0
DA:2073,0
DA:2074,0
DA:2076,0
DA:2078,0
DA:2079,0
DA:2082,0
DA:2083,0
DA:2084,0
DA:2085,0
DA:2086,0
DA:2088,0
DA:2089,0
DA:2090,0
DA:2091,0
DA:2093,0
DA:2095,2
DA:2096,2
DA:2097,2
DA:2099,0
DA:2101,0
DA:2102,0
DA:2103,0
DA:2105,0
DA:2106,0
DA:2108,0
DA:2109,0
DA:2110,0
DA:2111,0
DA:2112,0
DA:2113,0
DA:2115,0
DA:2116,0
DA:2117,0
DA:2118,0
DA:2120,1
DA:2121,1
DA:2122,1
DA:2125,0
DA:2126,0
DA:2127,0
DA:2129,2
DA:2130,2
DA:2131,2
DA:2132,2
DA:2133,2
DA:2134,2
DA:2136,0
DA:2137,0
DA:2138,0
DA:2139,0
DA:2140,0
DA:2142,0
DA:2144,0
DA:2145,0
DA:2148,0
DA:2149,0
DA:2150,0
DA:2151,0
DA:2152,0
DA:2153,0
DA:2154,0
DA:2156,0
DA:2157,0
DA:2158,0
DA:2159,0
DA:2160,0
DA:2162,0
DA:2164,0
DA:2165,0
DA:2168,0
DA:2169,0
DA:2170,0
DA:2171,0
DA:2172,0
DA:2173,0
DA:2175,0
DA:2176,0
DA:2177,0
DA:2178,0
DA:2179,0
DA:2181,0
DA:2183,0
DA:2184,0
DA:2187,0
DA:2188,0
DA:2189,0
DA:2190,0
DA:2191,0
DA:2192,0
DA:2193,0
DA:2195,0
DA:2196,0
DA:2197,0
DA:2198,0
DA:2199,0
DA:2201,0
DA:2203,0
DA:2204,0
DA:2207,0
DA:2208,0
DA:2209,0
DA:2210,0
DA:2211,0
DA:2212,0
DA:2214,0
DA:2216,0
DA:2218,0
DA:2219,0
DA:2220,0
DA:2221,0
DA:2222,0
DA:2223,0
DA:2225,0
DA:2226,0
DA:2227,0
DA:2228,0
DA:2229,0
DA:2231,0
DA:2233,0
DA:2234,0
DA:2237,0
DA:2238,0
DA:2239,0
DA:2240,0
DA:2241,0
DA:2242,0
DA:2243,0
DA:2244,0
DA:2246,0
DA:2247,0
DA:2248,0
DA:2249,0
DA:2250,0
DA:2252,0
DA:2254,0
DA:2255,0
DA:2258,1
DA:2259,1
DA:2260,1
DA:2262,1
DA:2263,0
DA:2265,1
DA:2266,1
DA:2268,2
DA:2269,1
DA:2270,0
DA:2272,1
DA:2274,2
DA:2275,1
DA:2276,0
DA:2280,1
DA:2281,1
DA:2283,2
DA:2284,1
DA:2285,0
DA:2288,1
DA:2289,1
DA:2291,0
DA:2292,0
DA:2295,0
DA:2296,0
DA:2297,0
DA:2299,0
DA:2300,0
DA:2302,0
DA:2303,0
DA:2304,0
DA:2305,0
DA:2306,0
DA:2307,0
DA:2308,0
DA:2310,0
DA:2311,0
DA:2312,0
DA:2313,0
DA:2314,0
DA:2316,0
DA:2317,0
DA:2318,0
DA:2319,0
DA:2320,0
DA:2322,0
DA:2323,0
DA:2325,0
DA:2327,0
DA:2328,0
DA:2329,0
DA:2330,0
DA:2331,0
DA:2332,0
DA:2333,0
DA:2335,0
DA:2336,0
DA:2339,0
DA:2340,0
DA:2341,0
DA:2342,0
DA:2344,0
DA:2345,0
DA:2348,0
DA:2349,0
DA:2350,0
DA:2351,0
DA:2353,0
DA:2354,0
DA:2357,0
DA:2358,0
DA:2359,0
DA:2360,0
DA:2362,0
DA:2363,0
DA:2364,0
DA:2365,0
DA:2366,0
DA:2367,0
DA:2368,0
DA:2370,2
DA:2371,2
DA:2372,2
DA:2373,2
DA:2374,2
DA:2375,2
DA:2376,2
DA:2377,2
DA:2378,2
DA:2379,2
DA:2380,2
DA:2381,2
DA:2382,2
DA:2383,2
DA:2385,2
DA:2386,2
DA:2387,2
DA:2389,0
DA:2391,2
DA:2392,2
DA:2394,2
DA:2395,2
DA:2396,2
DA:2398,0
DA:2400,2
DA:2401,2
DA:2403,2
DA:2404,2
DA:2405,2
DA:2407,0
DA:2409,2
DA:2411,0
DA:2412,0
DA:2426,0
DA:2428,0
DA:2429,0
DA:2430,0
DA:2434,0
DA:2436,0
DA:2437,0
DA:2438,0
DA:2440,0
DA:2441,0
DA:2442,0
DA:2443,0
DA:2445,0
DA:2446,0
DA:2447,0
DA:2448,0
DA:2449,0
DA:2453,0
DA:2454,0
DA:2455,0
DA:2456,0
DA:2457,0
DA:2458,0
DA:2459,0
DA:2460,0
DA:2461,0
DA:2463,0
DA:2465,0
DA:2466,0
DA:2468,0
DA:2469,0
DA:2470,0
DA:2473,0
DA:2474,0
DA:2475,0
DA:2476,0
DA:2479,0
DA:2480,0
DA:2481,0
DA:2482,0
DA:2484,0
DA:2486,0
DA:2487,0
DA:2490,41
DA:2491,41
DA:2492,41
DA:2493,0
DA:2494,41
DA:2496,41
DA:2497,41
DA:2498,41
DA:2499,41
DA:2501,41
DA:2503,48
DA:2504,48
DA:2505,48
DA:2507,0
DA:2509,0
DA:2510,0
DA:2511,0
DA:2513,0
DA:2514,0
DA:2516,0
DA:2517,0
DA:2518,0
DA:2519,0
DA:2520,0
DA:2521,0
DA:2523,0
DA:2524,0
DA:2525,0
DA:2526,0
DA:2528,107
DA:2529,107
DA:2530,107
DA:2533,41
DA:2534,41
DA:2535,41
DA:2537,41
DA:2539,0
DA:2540,0
DA:2541,0
DA:2542,0
DA:2543,0
DA:2545,0
DA:2547,0
DA:2548,0
DA:2551,0
DA:2552,0
DA:2553,0
DA:2554,0
DA:2555,0
DA:2557,0
DA:2558,0
DA:2559,0
DA:2560,0
DA:2561,0
DA:2563,0
DA:2565,0
DA:2566,0
DA:2569,0
DA:2570,0
DA:2571,0
DA:2572,0
DA:2573,0
DA:2574,0
DA:2576,0
DA:2578,0
DA:2580,0
DA:2581,0
DA:2582,0
DA:2583,0
DA:2584,0
DA:2585,0
DA:2587,0
DA:2588,0
DA:2589,0
DA:2590,0
DA:2591,0
DA:2593,0
DA:2595,0
DA:2596,0
DA:2599,0
DA:2600,0
DA:2601,0
DA:2602,0
DA:2603,0
DA:2604,0
DA:2605,0
DA:2606,0
DA:2608,0
DA:2609,0
DA:2610,0
DA:2611,0
DA:2612,0
DA:2614,0
DA:2616,0
DA:2617,0
DA:2620,51
DA:2621,51
DA:2622,51
DA:2624,51
DA:2625,0
DA:2627,51
DA:2628,51
DA:2630,102
DA:2631,51
DA:2632,0
DA:2635,51
DA:2636,51
DA:2638,0
DA:2639,0
DA:2642,0
DA:2643,0
DA:2644,0
DA:2645,0
DA:2646,0
DA:2650,0
DA:2651,0
DA:2655,0
DA:2656,0
DA:2657,0
DA:2658,0
DA:2659,0
DA:2660,0
DA:2661,0
DA:2663,0
DA:2665,0
DA:2666,0
DA:2667,0
DA:2668,0
DA:2669,0
DA:2670,0
DA:2672,0
DA:2675,0
DA:2676,0
DA:2677,0
DA:2680,0
DA:2681,0
DA:2683,0
DA:2684,0
DA:2698,0
DA:2701,0
DA:2703,0
DA:2704,0
DA:2707,0
DA:2708,0
DA:2709,0
DA:2710,0
DA:2711,0
DA:2713,0
DA:2714,0
DA:2716,0
DA:2717,0
DA:2718,0
DA:2720,0
DA:2721,0
DA:2722,0
DA:2723,0
DA:2725,0
DA:2727,0
DA:2730,0
DA:2731,0
DA:2734,0
DA:2735,0
DA:2737,0
DA:2738,0
DA:2740,0
DA:2741,0
DA:2744,0
DA:2745,0
DA:2746,0
DA:2748,0
DA:2749,0
DA:2750,0
DA:2751,0
DA:2752,0
DA:2754,0
DA:2756,0
DA:2757,0
DA:2760,0
DA:2761,0
DA:2762,0
DA:2763,0
DA:2764,0
DA:2766,0
DA:2767,0
DA:2768,0
DA:2769,0
DA:2770,0
DA:2772,0
DA:2774,0
DA:2775,0
DA:2778,0
DA:2779,0
DA:2780,0
DA:2781,0
DA:2782,0
DA:2783,0
DA:2784,0
DA:2785,0
DA:2786,0
DA:2788,0
DA:2789,0
DA:2790,0
DA:2791,0
DA:2792,0
DA:2794,0
DA:2796,0
DA:2797,0
DA:2800,0
DA:2801,0
DA:2802,0
DA:2803,0
DA:2804,0
DA:2805,0
DA:2806,0
DA:2807,0
DA:2808,0
DA:2809,0
DA:2811,0
DA:2812,0
DA:2813,0
DA:2814,0
DA:2815,0
DA:2817,0
DA:2819,0
DA:2820,0
DA:2823,0
DA:2825,0
DA:2827,0
DA:2828,0
DA:2829,0
DA:2831,0
DA:2832,0
DA:2834,0
DA:2835,0
DA:2838,0
DA:2839,0
DA:2841,0
DA:2842,0
DA:2844,0
DA:2845,0
DA:2846,0
DA:2847,0
DA:2848,0
DA:2849,0
DA:2850,0
DA:2852,0
DA:2853,0
DA:2854,0
DA:2856,0
DA:2857,0
DA:2858,0
DA:2859,0
DA:2860,0
DA:2861,0
DA:2875,0
DA:2878,0
DA:2880,0
DA:2881,0
DA:2884,0
DA:2885,0
DA:2886,0
DA:2887,0
DA:2888,0
DA:2890,0
DA:2891,0
DA:2893,0
DA:2894,0
DA:2895,0
DA:2897,0
DA:2898,0
DA:2899,0
DA:2900,0
DA:2902,0
DA:2904,0
DA:2907,0
DA:2908,0
DA:2911,0
DA:2912,0
DA:2914,0
DA:2915,0
DA:2917,0
DA:2918,0
DA:2921,1
DA:2922,1
DA:2923,1
DA:2924,1
DA:2925,1
DA:2927,0
DA:2928,0
DA:2929,0
DA:2930,0
DA:2931,0
DA:2933,0
DA:2935,0
DA:2936,0
DA:2939,0
DA:2940,0
DA:2941,0
DA:2942,0
DA:2943,0
DA:2944,0
DA:2946,0
DA:2947,0
DA:2948,0
DA:2949,0
DA:2950,0
DA:2952,0
DA:2954,0
DA:2955,0
DA:2958,0
DA:2959,0
DA:2960,0
DA:2961,0
DA:2962,0
DA:2963,0
DA:2964,0
DA:2966,0
DA:2967,0
DA:2968,0
DA:2969,0
DA:2970,0
DA:2972,0
DA:2974,0
DA:2975,0
DA:2978,0
DA:2979,0
DA:2980,0
DA:2981,0
DA:2982,0
DA:2983,0
DA:2984,0
DA:2985,0
DA:2987,0
DA:2988,0
DA:2989,0
DA:2990,0
DA:2991,0
DA:2993,0
DA:2995,0
DA:2996,0
DA:2999,1
DA:3001,1
DA:3002,1
DA:3004,2
DA:3005,1
DA:3006,0
DA:3008,1
DA:3010,2
DA:3011,1
DA:3012,0
DA:3016,1
DA:3017,1
DA:3019,2
DA:3020,1
DA:3021,0
DA:3024,1
DA:3025,1
DA:3027,0
DA:3028,0
DA:3031,0
DA:3032,0
DA:3033,0
DA:3035,0
DA:3036,0
DA:3038,0
DA:3039,0
DA:3040,0
DA:3041,0
DA:3042,0
DA:3043,0
DA:3045,0
DA:3046,0
DA:3047,0
DA:3048,0
DA:3049,0
DA:3051,0
DA:3052,0
DA:3053,0
DA:3055,0
DA:3056,0
DA:3057,0
DA:3058,0
DA:3059,0
DA:3060,0
DA:3061,0
DA:3063,0
DA:3064,0
DA:3067,0
DA:3068,0
DA:3069,0
DA:3070,0
DA:3072,0
DA:3073,0
DA:3076,0
DA:3077,0
DA:3078,0
DA:3079,0
DA:3081,0
DA:3082,0
DA:3085,0
DA:3086,0
DA:3087,0
DA:3088,0
DA:3090,0
DA:3091,0
DA:3092,0
DA:3093,0
DA:3094,0
DA:3095,0
DA:3096,0
DA:3098,2
DA:3099,2
DA:3100,2
DA:3101,2
DA:3102,2
DA:3103,2
DA:3104,2
DA:3105,2
DA:3106,2
DA:3107,2
DA:3109,2
DA:3110,2
DA:3111,2
DA:3113,0
DA:3115,2
DA:3116,2
DA:3118,2
DA:3119,2
DA:3120,2
DA:3122,0
DA:3124,2
DA:3125,2
DA:3127,2
DA:3128,2
DA:3129,2
DA:3131,0
DA:3133,2
DA:3135,0
DA:3136,0
DA:3150,0
DA:3152,0
DA:3153,0
DA:3154,0
DA:3157,0
DA:3158,0
DA:3159,0
DA:3162,0
DA:3163,0
DA:3164,0
DA:3167,0
DA:3168,0
DA:3169,0
DA:3173,0
DA:3175,0
DA:3176,0
DA:3177,0
DA:3178,0
DA:3179,0
DA:3180,0
DA:3181,0
DA:3183,0
DA:3184,0
DA:3186,0
DA:3187,0
DA:3189,0
DA:3190,0
DA:3192,0
DA:3193,0
DA:3194,0
DA:3195,0
DA:3197,0
DA:3198,0
DA:3199,0
DA:3200,0
DA:3201,0
DA:3205,0
DA:3206,0
DA:3207,0
DA:3208,0
DA:3209,0
DA:3210,0
DA:3211,0
DA:3212,0
DA:3213,0
DA:3215,0
DA:3219,0
DA:3220,0
DA:3221,0
DA:3222,0
DA:3223,0
DA:3224,0
DA:3225,0
DA:3226,0
DA:3227,0
DA:3229,0
DA:3233,0
DA:3234,0
DA:3235,0
DA:3236,0
DA:3237,0
DA:3238,0
DA:3239,0
DA:3240,0
DA:3241,0
DA:3243,0
DA:3247,0
DA:3248,0
DA:3249,0
DA:3250,0
DA:3251,0
DA:3252,0
DA:3253,0
DA:3254,0
DA:3255,0
DA:3257,0
DA:3259,0
DA:3260,0
DA:3262,0
DA:3263,0
DA:3264,0
DA:3267,0
DA:3268,0
DA:3269,0
DA:3270,0
DA:3274,0
DA:3275,0
DA:3276,0
DA:3277,0
DA:3281,0
DA:3282,0
DA:3283,0
DA:3284,0
DA:3288,0
DA:3289,0
DA:3290,0
DA:3291,0
DA:3294,0
DA:3295,0
DA:3296,0
DA:3297,0
DA:3299,0
DA:3301,0
DA:3302,0
DA:3303,0
DA:3304,0
DA:3305,0
DA:3308,78
DA:3309,78
DA:3310,0
DA:3312,78
DA:3313,0
DA:3315,78
DA:3316,0
DA:3318,78
DA:3319,54
DA:3320,24
DA:3321,78
DA:3323,0
DA:3324,0
DA:3325,0
DA:3326,0
DA:3329,0
DA:3330,0
DA:3331,0
DA:3334,0
DA:3335,0
DA:3336,0
DA:3339,0
DA:3340,0
DA:3341,0
DA:3343,0
DA:3345,22
DA:3346,22
DA:3348,22
DA:3350,22
DA:3352,22
DA:3353,22
DA:3355,0
DA:3357,0
DA:3358,0
DA:3359,0
DA:3363,0
DA:3364,0
DA:3365,0
DA:3369,0
DA:3370,0
DA:3371,0
DA:3375,0
DA:3376,0
DA:3377,0
DA:3379,0
DA:3380,0
DA:3382,0
DA:3383,0
DA:3384,0
DA:3385,0
DA:3387,0
DA:3388,0
DA:3390,0
DA:3391,0
DA:3393,0
DA:3394,0
DA:3395,0
DA:3396,0
DA:3398,0
DA:3399,0
DA:3401,0
DA:3402,0
DA:3404,0
DA:3405,0
DA:3406,0
DA:3408,0
DA:3409,0
DA:3410,0
DA:3413,66
DA:3414,66
DA:3415,66
DA:3418,0
DA:3419,0
DA:3420,0
DA:3423,0
DA:3424,0
DA:3425,0
DA:3428,0
DA:3429,0
DA:3430,0
DA:3432,0
DA:3433,0
DA:3434,0
DA:3436,23
DA:3437,23
DA:3438,23
DA:3439,23
DA:3440,18
DA:3441,18
DA:3442,23
DA:3443,0
DA:3444,0
DA:3445,23
DA:3446,23
DA:3448,0
DA:3449,0
DA:3450,0
DA:3451,0
DA:3452,0
DA:3454,0
DA:3456,0
DA:3457,0
DA:3460,0
DA:3461,0
DA:3462,0
DA:3463,0
DA:3464,0
DA:3465,0
DA:3466,0
DA:3467,0
DA:3468,0
DA:3469,0
DA:3470,0
DA:3471,0
DA:3472,0
DA:3474,0
DA:3475,0
DA:3476,0
DA:3477,0
DA:3478,0
DA:3480,0
DA:3482,0
DA:3483,0
DA:3486,0
DA:3487,0
DA:3488,0
DA:3489,0
DA:3490,0
DA:3491,0
DA:3492,0
DA:3493,0
DA:3494,0
DA:3495,0
DA:3496,0
DA:3498,0
DA:3499,0
DA:3500,0
DA:3501,0
DA:3502,0
DA:3504,0
DA:3506,0
DA:3507,0
DA:3510,0
DA:3511,0
DA:3512,0
DA:3513,0
DA:3514,0
DA:3515,0
DA:3516,0
DA:3517,0
DA:3518,0
DA:3519,0
DA:3520,0
DA:3521,0
DA:3522,0
DA:3524,0
DA:3525,0
DA:3526,0
DA:3527,0
DA:3528,0
DA:3530,0
DA:3532,0
DA:3533,0
DA:3536,0
DA:3537,0
DA:3538,0
DA:3539,0
DA:3540,0
DA:3541,0
DA:3542,0
DA:3543,0
DA:3545,0
DA:3547,0
DA:3549,0
DA:3550,0
DA:3551,0
DA:3552,0
DA:3553,0
DA:3554,0
DA:3556,0
DA:3557,0
DA:3558,0
DA:3559,0
DA:3560,0
DA:3562,0
DA:3564,0
DA:3565,0
DA:3568,0
DA:3569,0
DA:3570,0
DA:3571,0
DA:3572,0
DA:3573,0
DA:3574,0
DA:3575,0
DA:3576,0
DA:3577,0
DA:3579,0
DA:3580,0
DA:3581,0
DA:3582,0
DA:3583,0
DA:3585,0
DA:3587,0
DA:3588,0
DA:3591,24
DA:3592,24
DA:3593,24
DA:3594,24
DA:3595,24
DA:3596,24
DA:3597,24
DA:3599,24
DA:3600,0
DA:3602,24
DA:3603,0
DA:3605,24
DA:3606,0
DA:3608,24
DA:3609,0
DA:3611,24
DA:3613,48
DA:3614,24
DA:3615,0
DA:3617,24
DA:3618,24
DA:3620,0
DA:3621,0
DA:3624,0
DA:3625,0
DA:3626,0
DA:3627,0
DA:3629,0
DA:3630,0
DA:3631,0
DA:3632,0
DA:3633,0
DA:3635,0
DA:3636,0
DA:3638,0
DA:3640,0
DA:3641,0
DA:3642,0
DA:3643,0
DA:3644,0
DA:3645,0
DA:3646,0
DA:3649,0
DA:3650,0
DA:3651,0
DA:3652,0
DA:3653,0
DA:3655,22
DA:3656,22
DA:3657,22
DA:3658,22
DA:3659,22
DA:3660,22
DA:3661,22
DA:3662,22
DA:3663,22
DA:3664,22
DA:3665,22
DA:3666,22
DA:3667,22
DA:3681,0
DA:3683,0
DA:3684,0
DA:3685,0
DA:3688,0
DA:3689,0
DA:3690,0
DA:3693,0
DA:3694,0
DA:3695,0
DA:3698,0
DA:3699,0
DA:3700,0
DA:3704,0
DA:3706,0
DA:3707,0
DA:3708,0
DA:3709,0
DA:3710,0
DA:3711,0
DA:3712,0
DA:3714,0
DA:3715,0
DA:3717,0
DA:3718,0
DA:3720,0
DA:3721,0
DA:3723,0
DA:3724,0
DA:3725,0
DA:3726,0
DA:3728,0
DA:3729,0
DA:3730,0
DA:3731,0
DA:3732,0
DA:3736,0
DA:3737,0
DA:3738,0
DA:3739,0
DA:3740,0
DA:3741,0
DA:3742,0
DA:3743,0
DA:3744,0
DA:3746,0
DA:3750,0
DA:3751,0
DA:3752,0
DA:3753,0
DA:3754,0
DA:3755,0
DA:3756,0
DA:3757,0
DA:3758,0
DA:3760,0
DA:3764,0
DA:3765,0
DA:3766,0
DA:3767,0
DA:3768,0
DA:3769,0
DA:3770,0
DA:3771,0
DA:3772,0
DA:3774,0
DA:3778,0
DA:3779,0
DA:3780,0
DA:3781,0
DA:3782,0
DA:3783,0
DA:3784,0
DA:3785,0
DA:3786,0
DA:3788,0
DA:3790,0
DA:3791,0
DA:3793,0
DA:3794,0
DA:3795,0
DA:3798,0
DA:3799,0
DA:3800,0
DA:3801,0
DA:3805,0
DA:3806,0
DA:3807,0
DA:3808,0
DA:3812,0
DA:3813,0
DA:3814,0
DA:3815,0
DA:3819,0
DA:3820,0
DA:3821,0
DA:3822,0
DA:3825,0
DA:3826,0
DA:3827,0
DA:3828,0
DA:3830,0
DA:3832,0
DA:3833,0
DA:3834,0
DA:3835,0
DA:3836,0
DA:3839,0
DA:3840,0
DA:3841,0
DA:3843,0
DA:3844,0
DA:3846,0
DA:3847,0
DA:3849,0
DA:3850,0
DA:3851,0
DA:3852,0
DA:3854,0
DA:3855,0
DA:3856,0
DA:3857,0
DA:3860,0
DA:3861,0
DA:3862,0
DA:3865,0
DA:3866,0
DA:3867,0
DA:3870,0
DA:3871,0
DA:3872,0
DA:3874,0
DA:3876,0
DA:3877,0
DA:3879,0
DA:3881,0
DA:3883,0
DA:3884,0
DA:3886,0
DA:3888,0
DA:3889,0
DA:3890,0
DA:3894,0
DA:3895,0
DA:3896,0
DA:3900,0
DA:3901,0
DA:3902,0
DA:3906,0
DA:3907,0
DA:3908,0
DA:3910,0
DA:3911,0
DA:3913,0
DA:3914,0
DA:3915,0
DA:3916,0
DA:3918,0
DA:3919,0
DA:3921,0
DA:3922,0
DA:3924,0
DA:3925,0
DA:3926,0
DA:3927,0
DA:3929,0
DA:3930,0
DA:3931,0
DA:3933,0
DA:3935,0
DA:3936,0
DA:3937,0
DA:3939,0
DA:3940,0
DA:3941,0
DA:3944,0
DA:3945,0
DA:3946,0
DA:3949,0
DA:3950,0
DA:3951,0
DA:3954,0
DA:3955,0
DA:3956,0
DA:3959,0
DA:3960,0
DA:3961,0
DA:3963,0
DA:3964,0
DA:3965,0
DA:3967,0
DA:3968,0
DA:3969,0
DA:3970,0
DA:3972,0
DA:3973,0
DA:3975,0
DA:3976,0
DA:3977,0
DA:3978,0
DA:3980,0
DA:3981,0
DA:3983,0
DA:3984,0
DA:3985,0
DA:3986,0
DA:3987,0
DA:3988,0
DA:3989,0
DA:3990,0
DA:3991,0
DA:3992,0
DA:3993,0
DA:3995,0
DA:3996,0
DA:3997,0
DA:3998,0
DA:3999,0
DA:4001,0
DA:4003,0
DA:4004,0
DA:4007,0
DA:4008,0
DA:4009,0
DA:4010,0
DA:4011,0
DA:4012,0
DA:4013,0
DA:4014,0
DA:4015,0
DA:4016,0
DA:4017,0
DA:4018,0
DA:4019,0
DA:4021,0
DA:4022,0
DA:4023,0
DA:4024,0
DA:4025,0
DA:4027,0
DA:4029,0
DA:4030,0
DA:4033,0
DA:4034,0
DA:4035,0
DA:4036,0
DA:4037,0
DA:4038,0
DA:4039,0
DA:4040,0
DA:4041,0
DA:4042,0
DA:4043,0
DA:4045,0
DA:4046,0
DA:4047,0
DA:4048,0
DA:4049,0
DA:4051,0
DA:4053,0
DA:4054,0
DA:4057,0
DA:4058,0
DA:4059,0
DA:4060,0
DA:4061,0
DA:4062,0
DA:4063,0
DA:4064,0
DA:4065,0
DA:4066,0
DA:4067,0
DA:4068,0
DA:4069,0
DA:4071,0
DA:4072,0
DA:4073,0
DA:4074,0
DA:4075,0
DA:4077,0
DA:4079,0
DA:4080,0
DA:4083,0
DA:4084,0
DA:4085,0
DA:4086,0
DA:4087,0
DA:4088,0
DA:4089,0
DA:4090,0
DA:4092,0
DA:4094,0
DA:4096,0
DA:4097,0
DA:4098,0
DA:4099,0
DA:4100,0
DA:4101,0
DA:4103,0
DA:4104,0
DA:4105,0
DA:4106,0
DA:4107,0
DA:4109,0
DA:4111,0
DA:4112,0
DA:4115,0
DA:4116,0
DA:4117,0
DA:4118,0
DA:4119,0
DA:4120,0
DA:4121,0
DA:4122,0
DA:4123,0
DA:4124,0
DA:4126,0
DA:4127,0
DA:4128,0
DA:4129,0
DA:4130,0
DA:4132,0
DA:4134,0
DA:4135,0
DA:4138,0
DA:4139,0
DA:4140,0
DA:4141,0
DA:4142,0
DA:4143,0
DA:4144,0
DA:4146,0
DA:4147,0
DA:4149,0
DA:4150,0
DA:4152,0
DA:4153,0
DA:4155,0
DA:4156,0
DA:4158,0
DA:4160,0
DA:4161,0
DA:4162,0
DA:4164,0
DA:4165,0
DA:4167,0
DA:4168,0
DA:4171,0
DA:4172,0
DA:4173,0
DA:4174,0
DA:4175,0
DA:4176,0
DA:4178,0
DA:4179,0
DA:4181,0
DA:4183,0
DA:4184,0
DA:4186,0
DA:4187,0
DA:4189,0
DA:4190,0
DA:4192,0
DA:4193,0
DA:4194,0
DA:4196,0
DA:4197,0
DA:4199,0
DA:4200,0
DA:4202,0
DA:4203,0
DA:4205,0
DA:4206,0
DA:4207,0
DA:4208,0
DA:4209,0
DA:4210,0
DA:4211,0
DA:4213,0
DA:4214,0
DA:4215,0
DA:4217,0
DA:4218,0
DA:4219,0
DA:4220,0
DA:4221,0
DA:4222,0
DA:4223,0
DA:4224,0
DA:4225,0
DA:4226,0
DA:4227,0
DA:4228,0
DA:4229,0
DA:4230,0
DA:4231,0
DA:4232,0
DA:4233,0
DA:4234,0
DA:4235,0
DA:4236,0
DA:4237,0
DA:4238,0
DA:4239,0
DA:4240,0
DA:4254,0
DA:4256,0
DA:4257,0
DA:4258,0
DA:4261,0
DA:4262,0
DA:4263,0
DA:4264,0
DA:4266,0
DA:4267,0
DA:4268,0
DA:4269,0
DA:4270,0
DA:4273,0
DA:4274,0
DA:4275,0
DA:4276,0
DA:4277,0
DA:4278,0
DA:4281,0
DA:4283,0
DA:4284,0
DA:4285,0
DA:4286,0
DA:4287,0
DA:4288,0
DA:4290,0
DA:4291,0
DA:4293,0
DA:4294,0
DA:4296,0
DA:4297,0
DA:4298,0
DA:4299,0
DA:4301,0
DA:4302,0
DA:4303,0
DA:4304,0
DA:4305,0
DA:4309,0
DA:4310,0
DA:4311,0
DA:4312,0
DA:4313,0
DA:4314,0
DA:4315,0
DA:4316,0
DA:4317,0
DA:4319,0
DA:4323,0
DA:4324,0
DA:4325,0
DA:4326,0
DA:4327,0
DA:4328,0
DA:4329,0
DA:4330,0
DA:4331,0
DA:4333,0
DA:4337,0
DA:4338,0
DA:4339,0
DA:4340,0
DA:4341,0
DA:4342,0
DA:4343,0
DA:4344,0
DA:4345,0
DA:4347,0
DA:4349,0
DA:4350,0
DA:4352,0
DA:4353,0
DA:4354,0
DA:4357,0
DA:4358,0
DA:4359,0
DA:4360,0
DA:4364,0
DA:4365,0
DA:4366,0
DA:4367,0
DA:4371,0
DA:4372,0
DA:4373,0
DA:4374,0
DA:4377,0
DA:4378,0
DA:4379,0
DA:4380,0
DA:4382,0
DA:4384,0
DA:4385,0
DA:4386,0
DA:4387,0
DA:4390,0
DA:4391,0
DA:4392,0
DA:4394,0
DA:4395,0
DA:4397,0
DA:4398,0
DA:4399,0
DA:4400,0
DA:4402,0
DA:4403,0
DA:4404,0
DA:4405,0
DA:4408,0
DA:4409,0
DA:4410,0
DA:4413,0
DA:4414,0
DA:4415,0
DA:4417,0
DA:4419,0
DA:4420,0
DA:4422,0
DA:4424,0
DA:4425,0
DA:4427,0
DA:4429,0
DA:4430,0
DA:4431,0
DA:4435,0
DA:4436,0
DA:4437,0
DA:4441,0
DA:4442,0
DA:4443,0
DA:4445,0
DA:4446,0
DA:4448,0
DA:4449,0
DA:4450,0
DA:4451,0
DA:4453,0
DA:4454,0
DA:4456,0
DA:4457,0
DA:4458,0
DA:4459,0
DA:4461,0
DA:4462,0
DA:4464,0
DA:4465,0
DA:4466,0
DA:4467,0
DA:4469,0
DA:4470,0
DA:4471,0
DA:4474,0
DA:4475,0
DA:4476,0
DA:4477,0
DA:4479,0
DA:4480,0
DA:4481,0
DA:4482,0
DA:4483,0
DA:4484,0
DA:4486,0
DA:4487,0
DA:4488,0
DA:4490,0
DA:4491,0
DA:4492,0
DA:4494,0
DA:4495,0
DA:4496,0
DA:4497,0
DA:4499,0
DA:4500,0
DA:4502,0
DA:4503,0
DA:4504,0
DA:4505,0
DA:4506,0
DA:4507,0
DA:4508,0
DA:4509,0
DA:4511,0
DA:4512,0
DA:4513,0
DA:4514,0
DA:4515,0
DA:4517,0
DA:4519,0
DA:4520,0
DA:4523,0
DA:4524,0
DA:4525,0
DA:4526,0
DA:4527,0
DA:4528,0
DA:4529,0
DA:4530,0
DA:4531,0
DA:4533,0
DA:4534,0
DA:4535,0
DA:4536,0
DA:4537,0
DA:4539,0
DA:4541,0
DA:4542,0
DA:4545,0
DA:4546,0
DA:4547,0
DA:4548,0
DA:4549,0
DA:4550,0
DA:4551,0
DA:4552,0
DA:4554,0
DA:4555,0
DA:4556,0
DA:4557,0
DA:4558,0
DA:4560,0
DA:4562,0
DA:4563,0
DA:4566,0
DA:4567,0
DA:4568,0
DA:4569,0
DA:4570,0
DA:4571,0
DA:4572,0
DA:4573,0
DA:4574,0
DA:4576,0
DA:4577,0
DA:4578,0
DA:4579,0
DA:4580,0
DA:4582,0
DA:4584,0
DA:4585,0
DA:4588,0
DA:4589,0
DA:4590,0
DA:4591,0
DA:4592,0
DA:4593,0
DA:4595,0
DA:4597,0
DA:4599,0
DA:4600,0
DA:4601,0
DA:4602,0
DA:4603,0
DA:4604,0
DA:4606,0
DA:4607,0
DA:4608,0
DA:4609,0
DA:4610,0
DA:4612,0
DA:4614,0
DA:4615,0
DA:4618,0
DA:4619,0
DA:4620,0
DA:4621,0
DA:4622,0
DA:4623,0
DA:4624,0
DA:4625,0
DA:4627,0
DA:4628,0
DA:4629,0
DA:4630,0
DA:4631,0
DA:4633,0
DA:4635,0
DA:4636,0
DA:4639,0
DA:4640,0
DA:4641,0
DA:4642,0
DA:4643,0
DA:4644,0
DA:4646,0
DA:4647,0
DA:4649,0
DA:4650,0
DA:4652,0
DA:4653,0
DA:4655,0
DA:4656,0
DA:4658,0
DA:4659,0
DA:4660,0
DA:4663,0
DA:4664,0
DA:4666,0
DA:4667,0
DA:4670,0
DA:4671,0
DA:4672,0
DA:4673,0
DA:4674,0
DA:4676,0
DA:4677,0
DA:4679,0
DA:4680,0
DA:4681,0
DA:4683,0
DA:4684,0
DA:4686,0
DA:4688,0
DA:4689,0
DA:4690,0
DA:4691,0
DA:4692,0
DA:4693,0
DA:4694,0
DA:4696,0
DA:4697,0
DA:4698,0
DA:4699,0
DA:4702,0
DA:4703,0
DA:4704,0
DA:4705,0
DA:4707,0
DA:4708,0
DA:4709,0
DA:4711,0
DA:4712,0
DA:4713,0
DA:4714,0
DA:4715,0
DA:4716,0
DA:4717,0
DA:4718,0
DA:4719,0
DA:4720,0
DA:4722,0
DA:4723,0
DA:4724,0
DA:4725,0
DA:4727,0
DA:4728,0
DA:4729,0
DA:4730,0
DA:4731,0
DA:4732,0
DA:4734,0
DA:4735,0
DA:4736,0
DA:4738,0
DA:4740,0
DA:4754,0
DA:4757,0
DA:4759,0
DA:4760,0
DA:4763,0
DA:4764,0
DA:4765,0
DA:4766,0
DA:4767,0
DA:4769,0
DA:4770,0
DA:4772,0
DA:4773,0
DA:4774,0
DA:4776,0
DA:4777,0
DA:4778,0
DA:4779,0
DA:4781,0
DA:4783,0
DA:4786,0
DA:4787,0
DA:4790,0
DA:4791,0
DA:4793,0
DA:4794,0
DA:4796,0
DA:4797,0
DA:4800,3
DA:4801,3
DA:4802,3
DA:4803,3
DA:4804,3
DA:4806,0
DA:4807,0
DA:4808,0
DA:4809,0
DA:4810,0
DA:4812,0
DA:4814,0
DA:4815,0
DA:4818,0
DA:4819,0
DA:4820,0
DA:4821,0
DA:4822,0
DA:4823,0
DA:4825,0
DA:4826,0
DA:4827,0
DA:4828,0
DA:4829,0
DA:4831,0
DA:4833,0
DA:4834,0
DA:4837,0
DA:4838,0
DA:4839,0
DA:4840,0
DA:4841,0
DA:4842,0
DA:4843,0
DA:4845,0
DA:4846,0
DA:4847,0
DA:4848,0
DA:4849,0
DA:4851,0
DA:4853,0
DA:4854,0
DA:4857,0
DA:4858,0
DA:4859,0
DA:4860,0
DA:4861,0
DA:4862,0
DA:4863,0
DA:4864,0
DA:4866,0
DA:4867,0
DA:4868,0
DA:4869,0
DA:4870,0
DA:4872,0
DA:4874,0
DA:4875,0
DA:4878,3
DA:4880,3
DA:4881,3
DA:4883,6
DA:4884,3
DA:4885,0
DA:4887,3
DA:4889,6
DA:4890,3
DA:4891,0
DA:4895,3
DA:4896,3
DA:4898,6
DA:4899,3
DA:4900,0
DA:4903,3
DA:4904,3
DA:4906,0
DA:4907,0
DA:4910,0
DA:4911,0
DA:4912,0
DA:4914,0
DA:4915,0
DA:4917,0
DA:4918,0
DA:4919,0
DA:4920,0
DA:4921,0
DA:4922,0
DA:4924,0
DA:4925,0
DA:4926,0
DA:4927,0
DA:4928,0
DA:4930,0
DA:4931,0
DA:4932,0
DA:4934,0
DA:4935,0
DA:4936,0
DA:4937,0
DA:4938,0
DA:4939,0
DA:4940,0
DA:4942,0
DA:4943,0
DA:4946,0
DA:4947,0
DA:4948,0
DA:4949,0
DA:4951,0
DA:4952,0
DA:4955,0
DA:4956,0
DA:4957,0
DA:4958,0
DA:4960,0
DA:4961,0
DA:4964,0
DA:4965,0
DA:4966,0
DA:4967,0
DA:4969,0
DA:4970,0
DA:4971,0
DA:4972,0
DA:4973,0
DA:4974,0
DA:4975,0
DA:4977,4
DA:4978,4
DA:4979,4
DA:4980,4
DA:4981,4
DA:4982,4
DA:4983,4
DA:4984,4
DA:4985,4
DA:4986,4
DA:4988,4
DA:4989,4
DA:4990,4
DA:4992,0
DA:4994,4
DA:4995,4
DA:4997,4
DA:4998,4
DA:4999,4
DA:5001,0
DA:5003,4
DA:5004,4
DA:5006,4
DA:5007,4
DA:5008,4
DA:5010,0
DA:5012,4
DA:5014,0
DA:5015,0
DA:5029,0
DA:5032,0
DA:5034,0
DA:5035,0
DA:5038,0
DA:5039,0
DA:5040,0
DA:5041,0
DA:5042,0
DA:5044,0
DA:5045,0
DA:5047,0
DA:5048,0
DA:5049,0
DA:5051,0
DA:5052,0
DA:5053,0
DA:5054,0
DA:5056,0
DA:5058,0
DA:5061,0
DA:5062,0
DA:5065,0
DA:5066,0
DA:5068,0
DA:5069,0
DA:5071,0
DA:5072,0
DA:5075,0
DA:5076,0
DA:5077,0
DA:5078,0
DA:5080,0
DA:5081,0
DA:5082,0
DA:5083,0
DA:5084,0
DA:5086,0
DA:5088,0
DA:5089,0
DA:5092,0
DA:5093,0
DA:5094,0
DA:5095,0
DA:5096,0
DA:5098,0
DA:5099,0
DA:5100,0
DA:5101,0
DA:5102,0
DA:5104,0
DA:5106,0
DA:5107,0
DA:5110,0
DA:5111,0
DA:5112,0
DA:5113,0
DA:5114,0
DA:5115,0
DA:5116,0
DA:5118,0
DA:5119,0
DA:5120,0
DA:5121,0
DA:5122,0
DA:5124,0
DA:5126,0
DA:5127,0
DA:5130,0
DA:5131,0
DA:5132,0
DA:5133,0
DA:5134,0
DA:5135,0
DA:5136,0
DA:5137,0
DA:5139,0
DA:5140,0
DA:5141,0
DA:5142,0
DA:5143,0
DA:5145,0
DA:5147,0
DA:5148,0
DA:5151,0
DA:5153,0
DA:5154,0
DA:5156,0
DA:5157,0
DA:5158,0
DA:5162,0
DA:5163,0
DA:5165,0
DA:5166,0
DA:5167,0
DA:5170,0
DA:5171,0
DA:5173,0
DA:5174,0
DA:5177,0
DA:5178,0
DA:5179,0
DA:5181,0
DA:5182,0
DA:5183,0
DA:5184,0
DA:5186,0
DA:5187,0
DA:5188,0
DA:5190,0
DA:5191,0
DA:5192,0
DA:5193,0
DA:5194,0
DA:5195,0
DA:5196,0
DA:5198,0
DA:5199,0
DA:5202,0
DA:5203,0
DA:5204,0
DA:5205,0
DA:5207,0
DA:5208,0
DA:5211,0
DA:5212,0
DA:5213,0
DA:5214,0
DA:5216,0
DA:5217,0
DA:5218,0
DA:5219,0
DA:5220,0
DA:5222,0
DA:5223,0
DA:5224,0
DA:5225,0
DA:5226,0
DA:5227,0
DA:5228,0
DA:5230,0
DA:5231,0
DA:5232,0
DA:5234,0
DA:5236,0
DA:5237,0
DA:5239,0
DA:5240,0
DA:5241,0
DA:5243,0
DA:5245,0
DA:5247,0
DA:5248,0
DA:5262,0
DA:5265,0
DA:5267,0
DA:5268,0
DA:5271,0
DA:5272,0
DA:5273,0
DA:5274,0
DA:5275,0
DA:5277,0
DA:5278,0
DA:5280,0
DA:5281,0
DA:5282,0
DA:5284,0
DA:5285,0
DA:5286,0
DA:5287,0
DA:5289,0
DA:5291,0
DA:5294,0
DA:5295,0
DA:5298,0
DA:5299,0
DA:5301,0
DA:5302,0
DA:5304,0
DA:5305,0
DA:5308,1
DA:5309,1
DA:5310,1
DA:5311,1
DA:5312,1
DA:5314,0
DA:5315,0
DA:5316,0
DA:5317,0
DA:5318,0
DA:5320,0
DA:5322,0
DA:5323,0
DA:5326,0
DA:5327,0
DA:5328,0
DA:5329,0
DA:5330,0
DA:5331,0
DA:5333,0
DA:5334,0
DA:5335,0
DA:5336,0
DA:5337,0
DA:5339,0
DA:5341,0
DA:5342,0
DA:5345,0
DA:5346,0
DA:5347,0
DA:5348,0
DA:5349,0
DA:5350,0
DA:5351,0
DA:5353,0
DA:5354,0
DA:5355,0
DA:5356,0
DA:5357,0
DA:5359,0
DA:5361,0
DA:5362,0
DA:5365,0
DA:5366,0
DA:5367,0
DA:5368,0
DA:5369,0
DA:5370,0
DA:5371,0
DA:5372,0
DA:5374,0
DA:5375,0
DA:5376,0
DA:5377,0
DA:5378,0
DA:5380,0
DA:5382,0
DA:5383,0
DA:5386,1
DA:5388,1
DA:5389,1
DA:5391,2
DA:5392,1
DA:5393,0
DA:5395,1
DA:5397,2
DA:5398,1
DA:5399,0
DA:5403,1
DA:5404,1
DA:5406,2
DA:5407,1
DA:5408,0
DA:5411,1
DA:5412,1
DA:5414,0
DA:5415,0
DA:5418,0
DA:5419,0
DA:5420,0
DA:5422,0
DA:5423,0
DA:5425,0
DA:5426,0
DA:5427,0
DA:5428,0
DA:5429,0
DA:5430,0
DA:5432,0
DA:5433,0
DA:5434,0
DA:5435,0
DA:5436,0
DA:5438,0
DA:5439,0
DA:5440,0
DA:5442,0
DA:5443,0
DA:5444,0
DA:5445,0
DA:5446,0
DA:5447,0
DA:5448,0
DA:5450,0
DA:5451,0
DA:5454,0
DA:5455,0
DA:5456,0
DA:5457,0
DA:5459,0
DA:5460,0
DA:5463,0
DA:5464,0
DA:5465,0
DA:5466,0
DA:5468,0
DA:5469,0
DA:5472,0
DA:5473,0
DA:5474,0
DA:5475,0
DA:5477,0
DA:5478,0
DA:5479,0
DA:5480,0
DA:5481,0
DA:5482,0
DA:5483,0
DA:5485,2
DA:5486,2
DA:5487,2
DA:5488,2
DA:5489,2
DA:5490,2
DA:5491,2
DA:5492,2
DA:5493,2
DA:5494,2
DA:5496,2
DA:5497,2
DA:5498,2
DA:5500,0
DA:5502,2
DA:5503,2
DA:5505,2
DA:5506,2
DA:5507,2
DA:5509,0
DA:5511,2
DA:5512,2
DA:5514,2
DA:5515,2
DA:5516,2
DA:5518,0
DA:5520,2
DA:5522,0
DA:5523,0
DA:5537,0
DA:5539,0
DA:5540,0
DA:5541,0
DA:5545,0
DA:5547,0
DA:5548,0
DA:5549,0
DA:5551,0
DA:5552,0
DA:5553,0
DA:5554,0
DA:5556,0
DA:5557,0
DA:5558,0
DA:5559,0
DA:5560,0
DA:5564,0
DA:5565,0
DA:5566,0
DA:5567,0
DA:5568,0
DA:5569,0
DA:5570,0
DA:5571,0
DA:5572,0
DA:5574,0
DA:5576,0
DA:5577,0
DA:5579,0
DA:5580,0
DA:5581,0
DA:5584,0
DA:5585,0
DA:5586,0
DA:5587,0
DA:5590,0
DA:5591,0
DA:5592,0
DA:5593,0
DA:5595,0
DA:5597,0
DA:5598,0
DA:5601,0
DA:5602,0
DA:5603,0
DA:5604,0
DA:5605,0
DA:5607,0
DA:5608,0
DA:5609,0
DA:5610,0
DA:5612,0
DA:5614,0
DA:5615,0
DA:5616,0
DA:5618,0
DA:5620,0
DA:5621,0
DA:5622,0
DA:5624,0
DA:5625,0
DA:5627,0
DA:5628,0
DA:5629,0
DA:5630,0
DA:5631,0
DA:5632,0
DA:5634,0
DA:5635,0
DA:5636,0
DA:5637,0
DA:5639,0
DA:5640,0
DA:5641,0
DA:5644,0
DA:5645,0
DA:5646,0
DA:5648,0
DA:5649,0
DA:5650,0
DA:5651,0
DA:5652,0
DA:5653,0
DA:5654,0
DA:5656,0
DA:5657,0
DA:5658,0
DA:5659,0
DA:5660,0
DA:5662,0
DA:5664,0
DA:5665,0
DA:5668,0
DA:5669,0
DA:5670,0
DA:5671,0
DA:5672,0
DA:5673,0
DA:5674,0
DA:5675,0
DA:5676,0
DA:5678,0
DA:5679,0
DA:5680,0
DA:5681,0
DA:5682,0
DA:5684,0
DA:5686,0
DA:5687,0
DA:5690,0
DA:5691,0
DA:5692,0
DA:5693,0
DA:5694,0
DA:5695,0
DA:5696,0
DA:5698,0
DA:5699,0
DA:5700,0
DA:5701,0
DA:5702,0
DA:5704,0
DA:5706,0
DA:5707,0
DA:5710,0
DA:5711,0
DA:5712,0
DA:5713,0
DA:5714,0
DA:5715,0
DA:5716,0
DA:5717,0
DA:5718,0
DA:5720,0
DA:5721,0
DA:5722,0
DA:5723,0
DA:5724,0
DA:5726,0
DA:5728,0
DA:5729,0
DA:5732,0
DA:5733,0
DA:5734,0
DA:5735,0
DA:5736,0
DA:5737,0
DA:5738,0
DA:5739,0
DA:5741,0
DA:5743,0
DA:5745,0
DA:5746,0
DA:5747,0
DA:5748,0
DA:5749,0
DA:5750,0
DA:5752,0
DA:5753,0
DA:5754,0
DA:5755,0
DA:5756,0
DA:5758,0
DA:5760,0
DA:5761,0
DA:5764,0
DA:5765,0
DA:5766,0
DA:5767,0
DA:5768,0
DA:5769,0
DA:5770,0
DA:5771,0
DA:5772,0
DA:5773,0
DA:5775,0
DA:5776,0
DA:5777,0
DA:5778,0
DA:5779,0
DA:5781,0
DA:5783,0
DA:5784,0
DA:5787,0
DA:5788,0
DA:5789,0
DA:5791,0
DA:5792,0
DA:5794,0
DA:5795,0
DA:5797,0
DA:5798,0
DA:5799,0
DA:5801,0
DA:5803,0
DA:5804,0
DA:5805,0
DA:5807,0
DA:5809,0
DA:5810,0
DA:5811,0
DA:5815,0
DA:5817,0
DA:5818,0
DA:5819,0
DA:5821,0
DA:5822,0
DA:5824,0
DA:5825,0
DA:5828,0
DA:5829,0
DA:5830,0
DA:5832,0
DA:5833,0
DA:5835,0
DA:5836,0
DA:5838,0
DA:5839,0
DA:5841,0
DA:5842,0
DA:5843,0
DA:5844,0
DA:5845,0
DA:5847,0
DA:5848,0
DA:5849,0
DA:5850,0
DA:5851,0
DA:5853,0
DA:5854,0
DA:5855,0
DA:5856,0
DA:5857,0
DA:5859,0
DA:5860,0
DA:5862,0
DA:5864,0
DA:5865,0
DA:5867,0
DA:5868,0
DA:5869,0
DA:5870,0
DA:5871,0
DA:5872,0
DA:5873,0
DA:5875,0
DA:5876,0
DA:5877,0
DA:5878,0
DA:5879,0
DA:5880,0
DA:5881,0
DA:5882,0
DA:5883,0
DA:5884,0
DA:5886,0
DA:5887,0
DA:5888,0
DA:5889,0
DA:5890,0
DA:5891,0
DA:5892,0
DA:5893,0
DA:5894,0
DA:5895,0
DA:5896,0
DA:5897,0
DA:5898,0
DA:5899,0
DA:5900,0
DA:5901,0
DA:5902,0
DA:5903,0
DA:5917,0
DA:5919,0
DA:5920,0
DA:5921,0
DA:5922,0
DA:5923,0
DA:5927,0
DA:5932,0
DA:5933,0
DA:5934,0
DA:5938,0
DA:5940,0
DA:5941,0
DA:5944,0
DA:5945,0
DA:5946,0
DA:5947,0
DA:5948,0
DA:5952,0
DA:5957,0
DA:5958,0
DA:5959,0
DA:5962,0
DA:5963,0
DA:5964,0
DA:5965,0
DA:5966,0
DA:5968,0
DA:5969,0
DA:5970,0
DA:5971,0
DA:5972,0
DA:5974,0
DA:5975,0
DA:5977,0
DA:5978,0
DA:5979,0
DA:5981,0
DA:5982,0
DA:5983,0
DA:5984,0
DA:5986,0
DA:5988,0
DA:5991,0
DA:5992,0
DA:5995,0
DA:5996,0
DA:5998,0
DA:5999,0
DA:6001,0
DA:6002,0
DA:6005,1
DA:6006,1
DA:6007,1
DA:6008,1
DA:6010,0
DA:6011,0
DA:6012,0
DA:6013,0
DA:6014,0
DA:6016,0
DA:6018,0
DA:6019,0
DA:6022,0
DA:6023,0
DA:6024,0
DA:6025,0
DA:6026,0
DA:6027,0
DA:6029,0
DA:6030,0
DA:6031,0
DA:6032,0
DA:6033,0
DA:6035,0
DA:6037,0
DA:6038,0
DA:6041,0
DA:6042,0
DA:6043,0
DA:6044,0
DA:6045,0
DA:6046,0
DA:6047,0
DA:6049,0
DA:6050,0
DA:6051,0
DA:6052,0
DA:6053,0
DA:6055,0
DA:6057,0
DA:6058,0
DA:6061,0
DA:6063,0
DA:6064,0
DA:6066,0
DA:6067,0
DA:6068,0
DA:6072,0
DA:6073,0
DA:6075,0
DA:6076,0
DA:6077,0
DA:6080,0
DA:6081,0
DA:6083,0
DA:6084,0
DA:6087,0
DA:6088,0
DA:6089,0
DA:6091,0
DA:6092,0
DA:6093,0
DA:6095,0
DA:6096,0
DA:6097,0
DA:6099,0
DA:6100,0
DA:6101,0
DA:6102,0
DA:6103,0
DA:6104,0
DA:6105,0
DA:6107,0
DA:6108,0
DA:6110,0
DA:6111,0
DA:6112,0
DA:6113,0
DA:6116,0
DA:6117,0
DA:6118,0
DA:6119,0
DA:6121,0
DA:6122,0
DA:6123,0
DA:6124,0
DA:6125,0
DA:6127,0
DA:6128,0
DA:6129,0
DA:6130,0
DA:6131,0
DA:6132,0
DA:6133,0
DA:6134,0
DA:6135,0
DA:6136,0
DA:6138,0
DA:6139,0
DA:6140,0
DA:6142,0
DA:6144,0
DA:6146,0
DA:6147,0
DA:6161,0
DA:6163,0
DA:6164,0
DA:6165,0
DA:6168,0
DA:6169,0
DA:6170,0
DA:6173,0
DA:6174,0
DA:6175,0
DA:6176,0
DA:6177,0
DA:6180,0
DA:6181,0
DA:6182,0
DA:6183,0
DA:6184,0
DA:6185,0
DA:6188,0
DA:6190,0
DA:6191,0
DA:6192,0
DA:6193,0
DA:6195,0
DA:6196,0
DA:6198,0
DA:6199,0
DA:6201,0
DA:6202,0
DA:6203,0
DA:6204,0
DA:6206,0
DA:6207,0
DA:6208,0
DA:6209,0
DA:6210,0
DA:6214,0
DA:6215,0
DA:6216,0
DA:6217,0
DA:6218,0
DA:6219,0
DA:6220,0
DA:6221,0
DA:6222,0
DA:6224,0
DA:6228,0
DA:6229,0
DA:6230,0
DA:6231,0
DA:6232,0
DA:6233,0
DA:6234,0
DA:6235,0
DA:6236,0
DA:6238,0
DA:6242,0
DA:6243,0
DA:6244,0
DA:6245,0
DA:6246,0
DA:6247,0
DA:6248,0
DA:6249,0
DA:6250,0
DA:6252,0
DA:6254,0
DA:6255,0
DA:6257,0
DA:6258,0
DA:6259,0
DA:6262,0
DA:6263,0
DA:6264,0
DA:6265,0
DA:6269,0
DA:6270,0
DA:6271,0
DA:6272,0
DA:6276,0
DA:6277,0
DA:6278,0
DA:6279,0
DA:6282,0
DA:6283,0
DA:6284,0
DA:6285,0
DA:6287,0
DA:6289,0
DA:6290,0
DA:6291,0
DA:6292,0
DA:6295,0
DA:6296,0
DA:6297,0
DA:6299,0
DA:6300,0
DA:6302,0
DA:6303,0
DA:6304,0
DA:6305,0
DA:6307,0
DA:6308,0
DA:6309,0
DA:6310,0
DA:6313,0
DA:6314,0
DA:6315,0
DA:6318,0
DA:6319,0
DA:6320,0
DA:6322,0
DA:6324,0
DA:6325,0
DA:6327,0
DA:6329,0
DA:6330,0
DA:6332,0
DA:6334,0
DA:6335,0
DA:6336,0
DA:6340,0
DA:6341,0
DA:6342,0
DA:6346,0
DA:6347,0
DA:6348,0
DA:6350,0
DA:6351,0
DA:6353,0
DA:6354,0
DA:6355,0
DA:6356,0
DA:6358,0
DA:6359,0
DA:6361,0
DA:6362,0
DA:6363,0
DA:6364,0
DA:6366,0
DA:6367,0
DA:6369,0
DA:6371,0
DA:6373,0
DA:6374,0
DA:6376,0
DA:6377,0
DA:6378,0
DA:6381,0
DA:6382,0
DA:6383,0
DA:6386,0
DA:6387,0
DA:6388,0
DA:6389,0
DA:6390,0
DA:6391,0
DA:6393,0
DA:6394,0
DA:6395,0
DA:6396,0
DA:6398,0
DA:6399,0
DA:6401,0
DA:6402,0
DA:6403,0
DA:6404,0
DA:6406,0
DA:6407,0
DA:6409,0
DA:6410,0
DA:6411,0
DA:6412,0
DA:6413,0
DA:6414,0
DA:6415,0
DA:6416,0
DA:6417,0
DA:6418,0
DA:6419,0
DA:6420,0
DA:6422,0
DA:6423,0
DA:6424,0
DA:6425,0
DA:6426,0
DA:6428,0
DA:6430,0
DA:6431,0
DA:6434,0
DA:6435,0
DA:6436,0
DA:6437,0
DA:6438,0
DA:6439,0
DA:6440,0
DA:6441,0
DA:6442,0
DA:6443,0
DA:6444,0
DA:6445,0
DA:6446,0
DA:6447,0
DA:6449,0
DA:6450,0
DA:6451,0
DA:6452,0
DA:6453,0
DA:6455,0
DA:6457,0
DA:6458,0
DA:6461,0
DA:6462,0
DA:6463,0
DA:6464,0
DA:6465,0
DA:6466,0
DA:6467,0
DA:6468,0
DA:6469,0
DA:6470,0
DA:6471,0
DA:6472,0
DA:6474,0
DA:6475,0
DA:6476,0
DA:6477,0
DA:6478,0
DA:6480,0
DA:6482,0
DA:6483,0
DA:6486,0
DA:6487,0
DA:6488,0
DA:6489,0
DA:6490,0
DA:6491,0
DA:6492,0
DA:6493,0
DA:6494,0
DA:6495,0
DA:6496,0
DA:6497,0
DA:6498,0
DA:6499,0
DA:6501,0
DA:6502,0
DA:6503,0
DA:6504,0
DA:6505,0
DA:6507,0
DA:6509,0
DA:6510,0
DA:6513,0
DA:6514,0
DA:6515,0
DA:6516,0
DA:6517,0
DA:6518,0
DA:6520,0
DA:6522,0
DA:6524,0
DA:6525,0
DA:6526,0
DA:6527,0
DA:6528,0
DA:6529,0
DA:6531,0
DA:6532,0
DA:6533,0
DA:6534,0
DA:6535,0
DA:6537,0
DA:6539,0
DA:6540,0
DA:6543,0
DA:6544,0
DA:6545,0
DA:6546,0
DA:6547,0
DA:6548,0
DA:6549,0
DA:6550,0
DA:6552,0
DA:6553,0
DA:6554,0
DA:6555,0
DA:6556,0
DA:6558,0
DA:6560,0
DA:6561,0
DA:6564,0
DA:6565,0
DA:6566,0
DA:6567,0
DA:6569,0
DA:6570,0
DA:6572,0
DA:6573,0
DA:6575,0
DA:6576,0
DA:6578,0
DA:6579,0
DA:6581,0
DA:6582,0
DA:6583,0
DA:6586,0
DA:6587,0
DA:6589,0
DA:6590,0
DA:6593,0
DA:6594,0
DA:6595,0
DA:6597,0
DA:6598,0
DA:6599,0
DA:6601,0
DA:6602,0
DA:6603,0
DA:6605,0
DA:6606,0
DA:6607,0
DA:6608,0
DA:6609,0
DA:6610,0
DA:6611,0
DA:6613,0
DA:6614,0
DA:6617,0
DA:6618,0
DA:6619,0
DA:6620,0
DA:6622,0
DA:6624,0
DA:6625,0
DA:6627,0
DA:6628,0
DA:6629,0
DA:6630,0
DA:6631,0
DA:6632,0
DA:6634,0
DA:6635,0
DA:6636,0
DA:6637,0
DA:6638,0
DA:6640,0
DA:6641,0
DA:6642,0
DA:6643,0
DA:6645,0
DA:6646,0
DA:6647,0
DA:6649,0
DA:6650,0
DA:6651,0
DA:6653,0
DA:6655,0
DA:6656,0
DA:6657,0
DA:6658,0
DA:6659,0
DA:6660,0
DA:6674,0
DA:6676,0
DA:6677,0
DA:6678,0
DA:6681,0
DA:6682,0
DA:6683,0
DA:6686,0
DA:6687,0
DA:6688,0
DA:6689,0
DA:6690,0
DA:6693,0
DA:6694,0
DA:6695,0
DA:6696,0
DA:6697,0
DA:6698,0
DA:6701,0
DA:6703,0
DA:6704,0
DA:6705,0
DA:6706,0
DA:6708,0
DA:6709,0
DA:6711,0
DA:6712,0
DA:6714,0
DA:6715,0
DA:6716,0
DA:6717,0
DA:6719,0
DA:6720,0
DA:6721,0
DA:6722,0
DA:6723,0
DA:6727,0
DA:6728,0
DA:6729,0
DA:6730,0
DA:6731,0
DA:6732,0
DA:6733,0
DA:6734,0
DA:6735,0
DA:6737,0
DA:6741,0
DA:6742,0
DA:6743,0
DA:6744,0
DA:6745,0
DA:6746,0
DA:6747,0
DA:6748,0
DA:6749,0
DA:6751,0
DA:6755,0
DA:6756,0
DA:6757,0
DA:6758,0
DA:6759,0
DA:6760,0
DA:6761,0
DA:6762,0
DA:6763,0
DA:6765,0
DA:6767,0
DA:6768,0
DA:6770,0
DA:6771,0
DA:6772,0
DA:6775,0
DA:6776,0
DA:6777,0
DA:6778,0
DA:6782,0
DA:6783,0
DA:6784,0
DA:6785,0
DA:6789,0
DA:6790,0
DA:6791,0
DA:6792,0
DA:6795,0
DA:6796,0
DA:6797,0
DA:6798,0
DA:6800,0
DA:6802,0
DA:6803,0
DA:6804,0
DA:6805,0
DA:6808,0
DA:6809,0
DA:6810,0
DA:6812,0
DA:6813,0
DA:6815,0
DA:6816,0
DA:6817,0
DA:6818,0
DA:6820,0
DA:6821,0
DA:6822,0
DA:6823,0
DA:6826,0
DA:6827,0
DA:6828,0
DA:6831,0
DA:6832,0
DA:6833,0
DA:6835,0
DA:6837,0
DA:6838,0
DA:6840,0
DA:6842,0
DA:6843,0
DA:6845,0
DA:6847,0
DA:6848,0
DA:6849,0
DA:6853,0
DA:6854,0
DA:6855,0
DA:6859,0
DA:6860,0
DA:6861,0
DA:6863,0
DA:6864,0
DA:6866,0
DA:6867,0
DA:6868,0
DA:6869,0
DA:6871,0
DA:6872,0
DA:6874,0
DA:6875,0
DA:6876,0
DA:6877,0
DA:6879,0
DA:6880,0
DA:6882,0
DA:6884,0
DA:6886,0
DA:6887,0
DA:6889,0
DA:6890,0
DA:6891,0
DA:6894,0
DA:6895,0
DA:6896,0
DA:6899,0
DA:6900,0
DA:6901,0
DA:6902,0
DA:6903,0
DA:6904,0
DA:6906,0
DA:6907,0
DA:6908,0
DA:6909,0
DA:6911,0
DA:6912,0
DA:6914,0
DA:6915,0
DA:6916,0
DA:6917,0
DA:6919,0
DA:6920,0
DA:6922,0
DA:6923,0
DA:6924,0
DA:6925,0
DA:6926,0
DA:6927,0
DA:6928,0
DA:6929,0
DA:6930,0
DA:6931,0
DA:6932,0
DA:6933,0
DA:6935,0
DA:6936,0
DA:6937,0
DA:6938,0
DA:6939,0
DA:6941,0
DA:6943,0
DA:6944,0
DA:6947,0
DA:6948,0
DA:6949,0
DA:6950,0
DA:6951,0
DA:6952,0
DA:6953,0
DA:6954,0
DA:6955,0
DA:6956,0
DA:6957,0
DA:6958,0
DA:6959,0
DA:6960,0
DA:6962,0
DA:6963,0
DA:6964,0
DA:6965,0
DA:6966,0
DA:6968,0
DA:6970,0
DA:6971,0
DA:6974,0
DA:6975,0
DA:6976,0
DA:6977,0
DA:6978,0
DA:6979,0
DA:6980,0
DA:6981,0
DA:6982,0
DA:6983,0
DA:6984,0
DA:6985,0
DA:6987,0
DA:6988,0
DA:6989,0
DA:6990,0
DA:6991,0
DA:6993,0
DA:6995,0
DA:6996,0
DA:6999,0
DA:7000,0
DA:7001,0
DA:7002,0
DA:7003,0
DA:7004,0
DA:7005,0
DA:7006,0
DA:7007,0
DA:7008,0
DA:7009,0
DA:7010,0
DA:7011,0
DA:7012,0
DA:7014,0
DA:7015,0
DA:7016,0
DA:7017,0
DA:7018,0
DA:7020,0
DA:7022,0
DA:7023,0
DA:7026,0
DA:7027,0
DA:7028,0
DA:7029,0
DA:7030,0
DA:7031,0
DA:7033,0
DA:7035,0
DA:7037,0
DA:7038,0
DA:7039,0
DA:7040,0
DA:7041,0
DA:7042,0
DA:7044,0
DA:7045,0
DA:7046,0
DA:7047,0
DA:7048,0
DA:7050,0
DA:7052,0
DA:7053,0
DA:7056,0
DA:7057,0
DA:7058,0
DA:7059,0
DA:7060,0
DA:7061,0
DA:7062,0
DA:7063,0
DA:7065,0
DA:7066,0
DA:7067,0
DA:7068,0
DA:7069,0
DA:7071,0
DA:7073,0
DA:7074,0
DA:7077,0
DA:7078,0
DA:7079,0
DA:7080,0
DA:7082,0
DA:7083,0
DA:7085,0
DA:7086,0
DA:7088,0
DA:7089,0
DA:7091,0
DA:7092,0
DA:7094,0
DA:7095,0
DA:7096,0
DA:7099,0
DA:7100,0
DA:7102,0
DA:7103,0
DA:7106,0
DA:7107,0
DA:7108,0
DA:7110,0
DA:7111,0
DA:7112,0
DA:7114,0
DA:7115,0
DA:7116,0
DA:7118,0
DA:7119,0
DA:7120,0
DA:7121,0
DA:7122,0
DA:7123,0
DA:7124,0
DA:7126,0
DA:7127,0
DA:7130,0
DA:7131,0
DA:7132,0
DA:7133,0
DA:7135,0
DA:7137,0
DA:7138,0
DA:7140,0
DA:7141,0
DA:7142,0
DA:7143,0
DA:7144,0
DA:7145,0
DA:7147,0
DA:7148,0
DA:7149,0
DA:7150,0
DA:7151,0
DA:7153,0
DA:7154,0
DA:7155,0
DA:7156,0
DA:7158,0
DA:7159,0
DA:7160,0
DA:7162,0
DA:7163,0
DA:7164,0
DA:7166,0
DA:7168,0
DA:7169,0
DA:7170,0
DA:7171,0
DA:7172,0
DA:7173,0
DA:7187,0
DA:7189,0
DA:7190,0
DA:7191,0
DA:7192,0
DA:7193,0
DA:7196,0
DA:7197,0
DA:7198,0
DA:7199,0
DA:7200,0
DA:7201,0
DA:7204,0
DA:7206,0
DA:7207,0
DA:7209,0
DA:7210,0
DA:7211,0
DA:7212,0
DA:7214,0
DA:7215,0
DA:7216,0
DA:7217,0
DA:7218,0
DA:7219,0
DA:7220,0
DA:7221,0
DA:7223,0
DA:7224,0
DA:7225,0
DA:7226,0
DA:7227,0
DA:7231,0
DA:7232,0
DA:7233,0
DA:7234,0
DA:7235,0
DA:7236,0
DA:7237,0
DA:7238,0
DA:7239,0
DA:7241,0
DA:7243,0
DA:7244,0
DA:7246,0
DA:7247,0
DA:7248,0
DA:7251,0
DA:7252,0
DA:7253,0
DA:7254,0
DA:7257,0
DA:7258,0
DA:7259,0
DA:7260,0
DA:7262,0
DA:7264,0
DA:7265,0
DA:7268,0
DA:7269,0
DA:7270,0
DA:7271,0
DA:7272,0
DA:7274,0
DA:7275,0
DA:7276,0
DA:7277,0
DA:7279,0
DA:7281,0
DA:7282,0
DA:7283,0
DA:7285,0
DA:7287,0
DA:7288,0
DA:7289,0
DA:7291,0
DA:7292,0
DA:7294,0
DA:7295,0
DA:7296,0
DA:7297,0
DA:7298,0
DA:7299,0
DA:7301,0
DA:7302,0
DA:7304,0
DA:7305,0
DA:7307,0
DA:7308,0
DA:7309,0
DA:7310,0
DA:7311,0
DA:7312,0
DA:7314,0
DA:7315,0
DA:7316,0
DA:7317,0
DA:7319,0
DA:7320,0
DA:7322,0
DA:7323,0
DA:7324,0
DA:7325,0
DA:7326,0
DA:7327,0
DA:7328,0
DA:7329,0
DA:7331,0
DA:7332,0
DA:7333,0
DA:7334,0
DA:7335,0
DA:7337,0
DA:7339,0
DA:7340,0
DA:7343,0
DA:7344,0
DA:7345,0
DA:7346,0
DA:7347,0
DA:7348,0
DA:7349,0
DA:7350,0
DA:7352,0
DA:7353,0
DA:7354,0
DA:7355,0
DA:7356,0
DA:7358,0
DA:7360,0
DA:7361,0
DA:7364,0
DA:7365,0
DA:7366,0
DA:7367,0
DA:7368,0
DA:7369,0
DA:7370,0
DA:7371,0
DA:7373,0
DA:7374,0
DA:7375,0
DA:7376,0
DA:7377,0
DA:7379,0
DA:7381,0
DA:7382,0
DA:7385,0
DA:7386,0
DA:7387,0
DA:7388,0
DA:7389,0
DA:7390,0
DA:7391,0
DA:7392,0
DA:7394,0
DA:7395,0
DA:7396,0
DA:7397,0
DA:7398,0
DA:7400,0
DA:7402,0
DA:7403,0
DA:7406,0
DA:7407,0
DA:7408,0
DA:7409,0
DA:7410,0
DA:7411,0
DA:7413,0
DA:7415,0
DA:7417,0
DA:7418,0
DA:7419,0
DA:7420,0
DA:7421,0
DA:7422,0
DA:7424,0
DA:7425,0
DA:7426,0
DA:7427,0
DA:7428,0
DA:7430,0
DA:7432,0
DA:7433,0
DA:7436,0
DA:7437,0
DA:7438,0
DA:7439,0
DA:7440,0
DA:7441,0
DA:7442,0
DA:7443,0
DA:7445,0
DA:7446,0
DA:7447,0
DA:7448,0
DA:7449,0
DA:7451,0
DA:7453,0
DA:7454,0
DA:7457,0
DA:7458,0
DA:7460,0
DA:7461,0
DA:7463,0
DA:7464,0
DA:7466,0
DA:7467,0
DA:7468,0
DA:7472,0
DA:7473,0
DA:7475,0
DA:7476,0
DA:7477,0
DA:7479,0
DA:7481,0
DA:7482,0
DA:7483,0
DA:7486,0
DA:7487,0
DA:7489,0
DA:7490,0
DA:7493,0
DA:7494,0
DA:7495,0
DA:7497,0
DA:7498,0
DA:7499,0
DA:7500,0
DA:7501,0
DA:7502,0
DA:7504,0
DA:7505,0
DA:7506,0
DA:7507,0
DA:7508,0
DA:7511,0
DA:7512,0
DA:7513,0
DA:7514,0
DA:7517,0
DA:7518,0
DA:7519,0
DA:7520,0
DA:7521,0
DA:7522,0
DA:7523,0
DA:7525,0
DA:7526,0
DA:7527,0
DA:7528,0
DA:7531,0
DA:7532,0
DA:7533,0
DA:7534,0
DA:7536,0
DA:7537,0
DA:7540,0
DA:7541,0
DA:7542,0
DA:7543,0
DA:7545,0
DA:7546,0
DA:7547,0
DA:7548,0
DA:7549,0
DA:7550,0
DA:7552,0
DA:7553,0
DA:7554,0
DA:7555,0
DA:7556,0
DA:7558,0
DA:7559,0
DA:7560,0
DA:7562,0
DA:7564,0
DA:7565,0
DA:7567,0
DA:7568,0
DA:7569,0
DA:7570,0
DA:7572,0
DA:7573,0
DA:7574,0
DA:7575,0
DA:7576,0
DA:7577,0
DA:7579,0
DA:7580,0
DA:7581,0
DA:7583,0
DA:7585,0
DA:7586,0
DA:7588,0
DA:7589,0
DA:7590,0
DA:7592,0
DA:7594,0
DA:7608,0
DA:7610,0
DA:7611,0
DA:7612,0
DA:7613,0
DA:7614,0
DA:7618,0
DA:7623,0
DA:7624,0
DA:7625,0
DA:7629,0
DA:7631,0
DA:7632,0
DA:7635,90
DA:7636,90
DA:7637,90
DA:7638,90
DA:7639,0
DA:7643,90
DA:7648,90
DA:7649,90
DA:7650,90
DA:7653,0
DA:7654,0
DA:7655,0
DA:7656,0
DA:7657,0
DA:7659,0
DA:7660,0
DA:7661,0
DA:7662,0
DA:7663,0
DA:7665,0
DA:7666,0
DA:7668,0
DA:7669,0
DA:7670,0
DA:7672,0
DA:7673,0
DA:7674,0
DA:7675,0
DA:7677,0
DA:7679,0
DA:7682,0
DA:7683,0
DA:7686,0
DA:7687,0
DA:7689,0
DA:7690,0
DA:7692,0
DA:7693,0
DA:7696,20
DA:7697,20
DA:7698,20
DA:7700,0
DA:7701,0
DA:7702,0
DA:7703,0
DA:7704,0
DA:7706,0
DA:7708,0
DA:7709,0
DA:7712,0
DA:7713,0
DA:7714,0
DA:7715,0
DA:7716,0
DA:7717,0
DA:7719,0
DA:7720,0
DA:7721,0
DA:7722,0
DA:7723,0
DA:7725,0
DA:7727,0
DA:7728,0
DA:7731,0
DA:7732,0
DA:7733,0
DA:7734,0
DA:7735,0
DA:7736,0
DA:7737,0
DA:7739,0
DA:7740,0
DA:7741,0
DA:7742,0
DA:7743,0
DA:7745,0
DA:7747,0
DA:7748,0
DA:7751,24
DA:7753,24
DA:7754,24
DA:7756,48
DA:7757,24
DA:7758,0
DA:7761,24
DA:7762,24
DA:7764,0
DA:7765,0
DA:7768,0
DA:7769,0
DA:7770,0
DA:7772,0
DA:7774,0
DA:7775,0
DA:7776,0
DA:7777,0
DA:7778,0
DA:7779,0
DA:7780,0
DA:7783,0
DA:7784,0
DA:7785,0
DA:7786,0
DA:7787,0
DA:7788,0
DA:7790,0
DA:7791,0
DA:7792,0
DA:7793,0
DA:7794,0
DA:7795,0
DA:7796,0
DA:7798,22
DA:7799,22
DA:7800,22
DA:7801,22
DA:7802,22
DA:7803,22
DA:7804,22
DA:7805,22
DA:7806,22
DA:7807,22
DA:7808,22
DA:7810,0
DA:7812,0
DA:7827,0
DA:7830,0
DA:7832,0
DA:7833,0
DA:7836,0
DA:7837,0
DA:7838,0
DA:7839,0
DA:7840,0
DA:7842,0
DA:7843,0
DA:7845,0
DA:7846,0
DA:7847,0
DA:7849,0
DA:7850,0
DA:7851,0
DA:7852,0
DA:7854,0
DA:7856,0
DA:7859,0
DA:7860,0
DA:7863,0
DA:7864,0
DA:7866,0
DA:7867,0
DA:7869,0
DA:7870,0
DA:7873,0
DA:7874,0
DA:7875,0
DA:7876,0
DA:7878,0
DA:7879,0
DA:7880,0
DA:7881,0
DA:7882,0
DA:7884,0
DA:7886,0
DA:7887,0
DA:7890,0
DA:7891,0
DA:7892,0
DA:7893,0
DA:7894,0
DA:7895,0
DA:7897,0
DA:7898,0
DA:7899,0
DA:7900,0
DA:7901,0
DA:7903,0
DA:7905,0
DA:7906,0
DA:7909,0
DA:7910,0
DA:7911,0
DA:7912,0
DA:7913,0
DA:7914,0
DA:7915,0
DA:7917,0
DA:7918,0
DA:7919,0
DA:7920,0
DA:7921,0
DA:7923,0
DA:7925,0
DA:7926,0
DA:7929,0
DA:7930,0
DA:7931,0
DA:7932,0
DA:7933,0
DA:7934,0
DA:7935,0
DA:7936,0
DA:7938,0
DA:7939,0
DA:7940,0
DA:7941,0
DA:7942,0
DA:7944,0
DA:7946,0
DA:7947,0
DA:7950,0
DA:7952,0
DA:7953,0
DA:7955,0
DA:7956,0
DA:7957,0
DA:7959,0
DA:7961,0
DA:7962,0
DA:7963,0
DA:7966,0
DA:7967,0
DA:7969,0
DA:7970,0
DA:7973,0
DA:7974,0
DA:7975,0
DA:7977,0
DA:7978,0
DA:7980,0
DA:7981,0
DA:7982,0
DA:7983,0
DA:7985,0
DA:7986,0
DA:7987,0
DA:7988,0
DA:7989,0
DA:7991,0
DA:7992,0
DA:7993,0
DA:7995,0
DA:7996,0
DA:7997,0
DA:7998,0
DA:7999,0
DA:8000,0
DA:8001,0
DA:8003,0
DA:8004,0
DA:8007,0
DA:8008,0
DA:8009,0
DA:8010,0
DA:8012,0
DA:8013,0
DA:8016,0
DA:8017,0
DA:8018,0
DA:8019,0
DA:8021,0
DA:8022,0
DA:8023,0
DA:8024,0
DA:8025,0
DA:8026,0
DA:8028,0
DA:8029,0
DA:8030,0
DA:8031,0
DA:8032,0
DA:8033,0
DA:8034,0
DA:8035,0
DA:8036,0
DA:8037,0
DA:8039,0
DA:8040,0
DA:8041,0
DA:8043,0
DA:8045,0
DA:8046,0
DA:8048,0
DA:8049,0
DA:8050,0
DA:8052,0
DA:8054,0
DA:8068,0
DA:8070,0
DA:8071,0
DA:8072,0
DA:8076,0
DA:8078,0
DA:8079,0
DA:8081,0
DA:8082,0
DA:8083,0
DA:8084,0
DA:8086,0
DA:8087,0
DA:8088,0
DA:8089,0
DA:8090,0
DA:8094,0
DA:8095,0
DA:8096,0
DA:8097,0
DA:8098,0
DA:8099,0
DA:8100,0
DA:8101,0
DA:8102,0
DA:8104,0
DA:8106,0
DA:8107,0
DA:8109,0
DA:8110,0
DA:8111,0
DA:8114,0
DA:8115,0
DA:8116,0
DA:8117,0
DA:8120,0
DA:8121,0
DA:8122,0
DA:8123,0
DA:8125,0
DA:8127,0
DA:8128,0
DA:8131,0
DA:8132,0
DA:8133,0
DA:8134,0
DA:8135,0
DA:8137,0
DA:8138,0
DA:8139,0
DA:8140,0
DA:8142,0
DA:8144,0
DA:8145,0
DA:8146,0
DA:8148,0
DA:8150,0
DA:8151,0
DA:8152,0
DA:8154,0
DA:8155,0
DA:8157,0
DA:8158,0
DA:8159,0
DA:8160,0
DA:8161,0
DA:8162,0
DA:8164,0
DA:8165,0
DA:8167,0
DA:8168,0
DA:8170,0
DA:8171,0
DA:8172,0
DA:8175,0
DA:8176,0
DA:8177,0
DA:8178,0
DA:8180,0
DA:8181,0
DA:8183,0
DA:8184,0
DA:8185,0
DA:8186,0
DA:8187,0
DA:8188,0
DA:8189,0
DA:8191,0
DA:8192,0
DA:8193,0
DA:8194,0
DA:8195,0
DA:8197,0
DA:8199,0
DA:8200,0
DA:8203,0
DA:8204,0
DA:8205,0
DA:8206,0
DA:8207,0
DA:8208,0
DA:8209,0
DA:8210,0
DA:8212,0
DA:8213,0
DA:8214,0
DA:8215,0
DA:8216,0
DA:8218,0
DA:8220,0
DA:8221,0
DA:8224,0
DA:8225,0
DA:8226,0
DA:8227,0
DA:8228,0
DA:8229,0
DA:8231,0
DA:8233,0
DA:8235,0
DA:8236,0
DA:8237,0
DA:8238,0
DA:8239,0
DA:8240,0
DA:8242,0
DA:8243,0
DA:8244,0
DA:8245,0
DA:8246,0
DA:8248,0
DA:8250,0
DA:8251,0
DA:8254,0
DA:8255,0
DA:8256,0
DA:8257,0
DA:8258,0
DA:8259,0
DA:8260,0
DA:8261,0
DA:8263,0
DA:8264,0
DA:8265,0
DA:8266,0
DA:8267,0
DA:8269,0
DA:8271,0
DA:8272,0
DA:8275,0
DA:8276,0
DA:8278,0
DA:8279,0
DA:8281,0
DA:8282,0
DA:8284,0
DA:8285,0
DA:8286,0
DA:8290,0
DA:8291,0
DA:8293,0
DA:8294,0
DA:8295,0
DA:8298,0
DA:8299,0
DA:8301,0
DA:8302,0
DA:8305,0
DA:8306,0
DA:8307,0
DA:8309,0
DA:8310,0
DA:8311,0
DA:8312,0
DA:8313,0
DA:8315,0
DA:8316,0
DA:8317,0
DA:8319,0
DA:8320,0
DA:8321,0
DA:8322,0
DA:8323,0
DA:8324,0
DA:8325,0
DA:8327,0
DA:8328,0
DA:8331,0
DA:8332,0
DA:8333,0
DA:8334,0
DA:8336,0
DA:8337,0
DA:8340,0
DA:8341,0
DA:8342,0
DA:8343,0
DA:8345,0
DA:8347,0
DA:8348,0
DA:8350,0
DA:8351,0
DA:8352,0
DA:8353,0
DA:8354,0
DA:8355,0
DA:8356,0
DA:8358,0
DA:8359,0
DA:8360,0
DA:8361,0
DA:8362,0
DA:8363,0
DA:8364,0
DA:8365,0
DA:8367,0
DA:8368,0
DA:8369,0
DA:8371,0
DA:8373,0
DA:8374,0
DA:8376,0
DA:8377,0
DA:8378,0
DA:8380,0
DA:8382,0
DA:8383,0
DA:8384,0
DA:8385,0
DA:8386,0
DA:8387,0
DA:8401,0
DA:8404,0
DA:8406,0
DA:8407,0
DA:8410,0
DA:8411,0
DA:8412,0
DA:8413,0
DA:8414,0
DA:8416,0
DA:8417,0
DA:8419,0
DA:8420,0
DA:8421,0
DA:8423,0
DA:8424,0
DA:8425,0
DA:8426,0
DA:8428,0
DA:8430,0
DA:8433,0
DA:8434,0
DA:8437,0
DA:8438,0
DA:8440,0
DA:8441,0
DA:8443,0
DA:8444,0
DA:8447,2
DA:8448,2
DA:8449,2
DA:8450,2
DA:8451,2
DA:8453,0
DA:8454,0
DA:8455,0
DA:8456,0
DA:8457,0
DA:8459,0
DA:8461,0
DA:8462,0
DA:8465,0
DA:8466,0
DA:8467,0
DA:8468,0
DA:8469,0
DA:8470,0
DA:8472,0
DA:8473,0
DA:8474,0
DA:8475,0
DA:8476,0
DA:8478,0
DA:8480,0
DA:8481,0
DA:8484,0
DA:8485,0
DA:8486,0
DA:8487,0
DA:8488,0
DA:8489,0
DA:8490,0
DA:8492,0
DA:8493,0
DA:8494,0
DA:8495,0
DA:8496,0
DA:8498,0
DA:8500,0
DA:8501,0
DA:8504,0
DA:8505,0
DA:8506,0
DA:8507,0
DA:8508,0
DA:8509,0
DA:8510,0
DA:8511,0
DA:8513,0
DA:8514,0
DA:8515,0
DA:8516,0
DA:8517,0
DA:8519,0
DA:8521,0
DA:8522,0
DA:8525,1
DA:8527,1
DA:8528,1
DA:8530,2
DA:8531,1
DA:8532,0
DA:8534,1
DA:8536,2
DA:8537,1
DA:8538,0
DA:8542,1
DA:8543,1
DA:8545,2
DA:8546,1
DA:8547,0
DA:8550,1
DA:8551,1
DA:8553,0
DA:8554,0
DA:8557,0
DA:8558,0
DA:8559,0
DA:8561,0
DA:8562,0
DA:8564,0
DA:8565,0
DA:8566,0
DA:8567,0
DA:8568,0
DA:8569,0
DA:8571,0
DA:8572,0
DA:8573,0
DA:8574,0
DA:8575,0
DA:8577,0
DA:8578,0
DA:8579,0
DA:8581,0
DA:8582,0
DA:8583,0
DA:8584,0
DA:8585,0
DA:8586,0
DA:8587,0
DA:8589,0
DA:8590,0
DA:8593,0
DA:8594,0
DA:8595,0
DA:8596,0
DA:8598,0
DA:8599,0
DA:8602,0
DA:8603,0
DA:8604,0
DA:8605,0
DA:8607,0
DA:8608,0
DA:8611,0
DA:8612,0
DA:8613,0
DA:8614,0
DA:8616,0
DA:8617,0
DA:8618,0
DA:8619,0
DA:8620,0
DA:8621,0
DA:8622,0
DA:8624,2
DA:8625,2
DA:8626,2
DA:8627,2
DA:8628,2
DA:8629,2
DA:8630,2
DA:8631,2
DA:8632,2
DA:8633,2
DA:8635,2
DA:8636,2
DA:8637,2
DA:8639,0
DA:8641,2
DA:8642,2
DA:8644,2
DA:8645,2
DA:8646,2
DA:8648,0
DA:8650,2
DA:8651,2
DA:8653,2
DA:8654,2
DA:8655,2
DA:8657,0
DA:8659,2
DA:8661,0
DA:8662,0
DA:8676,0
DA:8678,0
DA:8679,0
DA:8680,0
DA:8681,0
DA:8682,0
DA:8686,0
DA:8691,0
DA:8692,0
DA:8693,0
DA:8697,0
DA:8699,0
DA:8700,0
DA:8703,0
DA:8704,0
DA:8705,0
DA:8706,0
DA:8707,0
DA:8711,0
DA:8716,0
DA:8717,0
DA:8718,0
DA:8721,0
DA:8722,0
DA:8723,0
DA:8724,0
DA:8725,0
DA:8727,0
DA:8728,0
DA:8729,0
DA:8730,0
DA:8731,0
DA:8733,0
DA:8734,0
DA:8736,0
DA:8737,0
DA:8738,0
DA:8740,0
DA:8741,0
DA:8742,0
DA:8743,0
DA:8745,0
DA:8747,0
DA:8750,0
DA:8751,0
DA:8754,0
DA:8755,0
DA:8757,0
DA:8758,0
DA:8760,0
DA:8761,0
DA:8764,0
DA:8765,0
DA:8766,0
DA:8767,0
DA:8769,0
DA:8770,0
DA:8771,0
DA:8772,0
DA:8773,0
DA:8775,0
DA:8777,0
DA:8778,0
DA:8781,0
DA:8782,0
DA:8783,0
DA:8784,0
DA:8785,0
DA:8786,0
DA:8788,0
DA:8789,0
DA:8790,0
DA:8791,0
DA:8792,0
DA:8794,0
DA:8796,0
DA:8797,0
DA:8800,0
DA:8801,0
DA:8802,0
DA:8803,0
DA:8804,0
DA:8805,0
DA:8806,0
DA:8808,0
DA:8809,0
DA:8810,0
DA:8811,0
DA:8812,0
DA:8814,0
DA:8816,0
DA:8817,0
DA:8820,0
DA:8822,0
DA:8823,0
DA:8825,0
DA:8826,0
DA:8827,0
DA:8831,0
DA:8832,0
DA:8834,0
DA:8835,0
DA:8836,0
DA:8839,0
DA:8840,0
DA:8842,0
DA:8843,0
DA:8846,0
DA:8847,0
DA:8848,0
DA:8850,0
DA:8851,0
DA:8852,0
DA:8854,0
DA:8855,0
DA:8856,0
DA:8858,0
DA:8859,0
DA:8860,0
DA:8861,0
DA:8862,0
DA:8863,0
DA:8864,0
DA:8866,0
DA:8867,0
DA:8869,0
DA:8870,0
DA:8871,0
DA:8872,0
DA:8875,0
DA:8876,0
DA:8877,0
DA:8878,0
DA:8880,0
DA:8881,0
DA:8882,0
DA:8883,0
DA:8884,0
DA:8886,0
DA:8887,0
DA:8888,0
DA:8889,0
DA:8890,0
DA:8891,0
DA:8892,0
DA:8893,0
DA:8894,0
DA:8895,0
DA:8897,0
DA:8898,0
DA:8899,0
DA:8901,0
DA:8903,0
LF:6082
LH:462
end_of_record
TN:
SF:/Users/jim/work/cppfort/Cpp2FIROps.h.inc
FNL:0,1000
FNA:0,19,_ZN4mlir7cpp2fir7AwaitOp16getOperationNameEv
FNL:1,1004
FNA:1,0,_ZN4mlir7cpp2fir7AwaitOp27getODSOperandIndexAndLengthEj
FNL:2,1008
FNA:2,0,_ZN4mlir7cpp2fir7AwaitOp14getODSOperandsEj
FNL:3,1014
FNA:3,0,_ZN4mlir7cpp2fir7AwaitOp9getFutureEv
FNL:4,1023
FNA:4,0,_ZN4mlir7cpp2fir7AwaitOp26getODSResultIndexAndLengthEj
FNL:5,1027
FNA:5,0,_ZN4mlir7cpp2fir7AwaitOp13getODSResultsEj
FNL:6,1033
FNA:6,0,_ZN4mlir7cpp2fir7AwaitOp9getResultEv
FNL:7,1046
FNA:7,0,_ZN4mlir7cpp2fir7AwaitOp20getSourceChannelAttrEv
FNL:8,1083
FNA:8,0,_ZN4mlir7cpp2fir7AwaitOp24getAttributeNameForIndexENS_13OperationNameEj
FNL:9,1095
FNA:9,19,_ZN4mlir6detail14TypeIDResolverINS_7cpp2fir7AwaitOpEvE13resolveTypeIDEv
FNL:10,1107
FNA:10,0,_ZN4mlir7cpp2fir6detail27ChannelOpGenericAdaptorBase10PropertiesC1Ev
FNA:10,0,_ZN4mlir7cpp2fir6detail27ChannelOpGenericAdaptorBase10PropertiesC2Ev
FNL:11,1128
FNA:11,0,_ZNK4mlir7cpp2fir6detail27ChannelOpGenericAdaptorBase10PropertieseqERKS3_
FNL:12,1154
FNA:12,0,_ZN4mlir7cpp2fir6detail27ChannelOpGenericAdaptorBase13getPropertiesEv
FNL:13,1162
FNA:13,0,_ZN4mlir7cpp2fir6detail27ChannelOpGenericAdaptorBase18getElementTypeAttrEv
FNL:14,1168
FNA:14,0,_ZN4mlir7cpp2fir6detail27ChannelOpGenericAdaptorBase17getBufferSizeAttrEv
FNL:15,1190
FNA:15,0,_ZN4mlir7cpp2fir23ChannelOpGenericAdaptorINS_10ValueRangeEEC2INS0_9ChannelOpEvEES2_T_
FNL:16,1218
FNA:16,0,_ZN4mlir7cpp2fir9ChannelOpCI1NS_2OpIS1_JNS_7OpTrait11ZeroRegionsENS3_9OneResultENS3_14OneTypedResultINS_4TypeEE4ImplENS3_14ZeroSuccessorsENS3_12ZeroOperandsENS3_12OpInvariantsENS_19BytecodeOpInterface5TraitEEEEEDn
FNA:16,0,_ZN4mlir7cpp2fir9ChannelOpCI1NS_2OpIS1_JNS_7OpTrait11ZeroRegionsENS3_9OneResultENS3_14OneTypedResultINS_4TypeEE4ImplENS3_14ZeroSuccessorsENS3_12ZeroOperandsENS3_12OpInvariantsENS_19BytecodeOpInterface5TraitEEEEEPNS_9OperationE
FNA:16,0,_ZN4mlir7cpp2fir9ChannelOpCI2NS_2OpIS1_JNS_7OpTrait11ZeroRegionsENS3_9OneResultENS3_14OneTypedResultINS_4TypeEE4ImplENS3_14ZeroSuccessorsENS3_12ZeroOperandsENS3_12OpInvariantsENS_19BytecodeOpInterface5TraitEEEEEDn
FNA:16,0,_ZN4mlir7cpp2fir9ChannelOpCI2NS_2OpIS1_JNS_7OpTrait11ZeroRegionsENS3_9OneResultENS3_14OneTypedResultINS_4TypeEE4ImplENS3_14ZeroSuccessorsENS3_12ZeroOperandsENS3_12OpInvariantsENS_19BytecodeOpInterface5TraitEEEEEPNS_9OperationE
FNL:17,1225
FNA:17,19,_ZN4mlir7cpp2fir9ChannelOp17getAttributeNamesEv
FNL:18,1234
FNA:18,0,_ZN4mlir7cpp2fir9ChannelOp21getBufferSizeAttrNameENS_13OperationNameE
FNL:19,1242
FNA:19,0,_ZN4mlir7cpp2fir9ChannelOp22getElementTypeAttrNameENS_13OperationNameE
FNL:20,1246
FNA:20,19,_ZN4mlir7cpp2fir9ChannelOp16getOperationNameEv
FNL:21,1260
FNA:21,0,_ZN4mlir7cpp2fir9ChannelOp26getODSResultIndexAndLengthEj
FNL:22,1264
FNA:22,0,_ZN4mlir7cpp2fir9ChannelOp13getODSResultsEj
FNL:23,1270
FNA:23,0,_ZN4mlir7cpp2fir9ChannelOp10getChannelEv
FNL:24,1283
FNA:24,0,_ZN4mlir7cpp2fir9ChannelOp18getElementTypeAttrEv
FNL:25,1288
FNA:25,0,_ZN4mlir7cpp2fir9ChannelOp17getBufferSizeAttrEv
FNL:26,1336
FNA:26,0,_ZN4mlir7cpp2fir9ChannelOp24getAttributeNameForIndexENS_13OperationNameEj
FNL:27,1348
FNA:27,19,_ZN4mlir6detail14TypeIDResolverINS_7cpp2fir9ChannelOpEvE13resolveTypeIDEv
FNL:28,1360
FNA:28,0,_ZN4mlir7cpp2fir6detail23CmpOpGenericAdaptorBase10PropertiesC1Ev
FNA:28,0,_ZN4mlir7cpp2fir6detail23CmpOpGenericAdaptorBase10PropertiesC2Ev
FNL:29,1371
FNA:29,0,_ZNK4mlir7cpp2fir6detail23CmpOpGenericAdaptorBase10PropertieseqERKS3_
FNL:30,1396
FNA:30,0,_ZN4mlir7cpp2fir6detail23CmpOpGenericAdaptorBase13getPropertiesEv
FNL:31,1404
FNA:31,0,_ZN4mlir7cpp2fir6detail23CmpOpGenericAdaptorBase16getPredicateAttrEv
FNL:32,1428
FNA:32,0,_ZN4mlir7cpp2fir19CmpOpGenericAdaptorINS_10ValueRangeEEC2INS0_5CmpOpEvEES2_T_
FNL:33,1464
FNA:33,1,_ZN4mlir7cpp2fir5CmpOpCI1NS_2OpIS1_JNS_7OpTrait11ZeroRegionsENS3_9OneResultENS3_14OneTypedResultINS_4TypeEE4ImplENS3_14ZeroSuccessorsENS3_9NOperandsILj2EE4ImplENS3_12OpInvariantsENS_19BytecodeOpInterface5TraitENS_25ConditionallySpeculatable5TraitENS3_27AlwaysSpeculatableImplTraitENS_23MemoryEffectOpInterface5TraitEEEEEDn
FNA:33,10,_ZN4mlir7cpp2fir5CmpOpCI1NS_2OpIS1_JNS_7OpTrait11ZeroRegionsENS3_9OneResultENS3_14OneTypedResultINS_4TypeEE4ImplENS3_14ZeroSuccessorsENS3_9NOperandsILj2EE4ImplENS3_12OpInvariantsENS_19BytecodeOpInterface5TraitENS_25ConditionallySpeculatable5TraitENS3_27AlwaysSpeculatableImplTraitENS_23MemoryEffectOpInterface5TraitEEEEEPNS_9OperationE
FNA:33,1,_ZN4mlir7cpp2fir5CmpOpCI2NS_2OpIS1_JNS_7OpTrait11ZeroRegionsENS3_9OneResultENS3_14OneTypedResultINS_4TypeEE4ImplENS3_14ZeroSuccessorsENS3_9NOperandsILj2EE4ImplENS3_12OpInvariantsENS_19BytecodeOpInterface5TraitENS_25ConditionallySpeculatable5TraitENS3_27AlwaysSpeculatableImplTraitENS_23MemoryEffectOpInterface5TraitEEEEEDn
FNA:33,10,_ZN4mlir7cpp2fir5CmpOpCI2NS_2OpIS1_JNS_7OpTrait11ZeroRegionsENS3_9OneResultENS3_14OneTypedResultINS_4TypeEE4ImplENS3_14ZeroSuccessorsENS3_9NOperandsILj2EE4ImplENS3_12OpInvariantsENS_19BytecodeOpInterface5TraitENS_25ConditionallySpeculatable5TraitENS3_27AlwaysSpeculatableImplTraitENS_23MemoryEffectOpInterface5TraitEEEEEPNS_9OperationE
FNL:34,1473
FNA:34,19,_ZN4mlir7cpp2fir5CmpOp17getAttributeNamesEv
FNL:35,1482
FNA:35,0,_ZN4mlir7cpp2fir5CmpOp20getPredicateAttrNameENS_13OperationNameE
FNL:36,1486
FNA:36,19,_ZN4mlir7cpp2fir5CmpOp16getOperationNameEv
FNL:37,1490
FNA:37,10,_ZN4mlir7cpp2fir5CmpOp27getODSOperandIndexAndLengthEj
FNL:38,1494
FNA:38,10,_ZN4mlir7cpp2fir5CmpOp14getODSOperandsEj
FNL:39,1500
FNA:39,4,_ZN4mlir7cpp2fir5CmpOp6getLhsEv
FNL:40,1504
FNA:40,4,_ZN4mlir7cpp2fir5CmpOp6getRhsEv
FNL:41,1518
FNA:41,5,_ZN4mlir7cpp2fir5CmpOp26getODSResultIndexAndLengthEj
FNL:42,1522
FNA:42,5,_ZN4mlir7cpp2fir5CmpOp13getODSResultsEj
FNL:43,1528
FNA:43,4,_ZN4mlir7cpp2fir5CmpOp9getResultEv
FNL:44,1541
FNA:44,3,_ZN4mlir7cpp2fir5CmpOp16getPredicateAttrEv
FNL:45,1579
FNA:45,0,_ZN4mlir7cpp2fir5CmpOp24getAttributeNameForIndexENS_13OperationNameEj
FNL:46,1591
FNA:46,32,_ZN4mlir6detail14TypeIDResolverINS_7cpp2fir5CmpOpEvE13resolveTypeIDEv
FNL:47,1603
FNA:47,41,_ZN4mlir7cpp2fir6detail28ConstantOpGenericAdaptorBase10PropertiesC1Ev
FNA:47,41,_ZN4mlir7cpp2fir6detail28ConstantOpGenericAdaptorBase10PropertiesC2Ev
FNL:48,1614
FNA:48,0,_ZNK4mlir7cpp2fir6detail28ConstantOpGenericAdaptorBase10PropertieseqERKS3_
FNL:49,1639
FNA:49,0,_ZN4mlir7cpp2fir6detail28ConstantOpGenericAdaptorBase13getPropertiesEv
FNL:50,1647
FNA:50,0,_ZN4mlir7cpp2fir6detail28ConstantOpGenericAdaptorBase12getValueAttrEv
FNL:51,1669
FNA:51,0,_ZN4mlir7cpp2fir24ConstantOpGenericAdaptorINS_10ValueRangeEEC2INS0_10ConstantOpEvEES2_T_
FNL:52,1697
FNA:52,11,_ZN4mlir7cpp2fir10ConstantOpCI1NS_2OpIS1_JNS_7OpTrait11ZeroRegionsENS3_9OneResultENS3_14OneTypedResultINS_4TypeEE4ImplENS3_14ZeroSuccessorsENS3_12ZeroOperandsENS3_12OpInvariantsENS_19BytecodeOpInterface5TraitENS_25ConditionallySpeculatable5TraitENS3_27AlwaysSpeculatableImplTraitENS_23MemoryEffectOpInterface5TraitENS3_12ConstantLikeEEEEEDn
FNA:52,383,_ZN4mlir7cpp2fir10ConstantOpCI1NS_2OpIS1_JNS_7OpTrait11ZeroRegionsENS3_9OneResultENS3_14OneTypedResultINS_4TypeEE4ImplENS3_14ZeroSuccessorsENS3_12ZeroOperandsENS3_12OpInvariantsENS_19BytecodeOpInterface5TraitENS_25ConditionallySpeculatable5TraitENS3_27AlwaysSpeculatableImplTraitENS_23MemoryEffectOpInterface5TraitENS3_12ConstantLikeEEEEEPNS_9OperationE
FNA:52,11,_ZN4mlir7cpp2fir10ConstantOpCI2NS_2OpIS1_JNS_7OpTrait11ZeroRegionsENS3_9OneResultENS3_14OneTypedResultINS_4TypeEE4ImplENS3_14ZeroSuccessorsENS3_12ZeroOperandsENS3_12OpInvariantsENS_19BytecodeOpInterface5TraitENS_25ConditionallySpeculatable5TraitENS3_27AlwaysSpeculatableImplTraitENS_23MemoryEffectOpInterface5TraitENS3_12ConstantLikeEEEEEDn
FNA:52,383,_ZN4mlir7cpp2fir10ConstantOpCI2NS_2OpIS1_JNS_7OpTrait11ZeroRegionsENS3_9OneResultENS3_14OneTypedResultINS_4TypeEE4ImplENS3_14ZeroSuccessorsENS3_12ZeroOperandsENS3_12OpInvariantsENS_19BytecodeOpInterface5TraitENS_25ConditionallySpeculatable5TraitENS3_27AlwaysSpeculatableImplTraitENS_23MemoryEffectOpInterface5TraitENS3_12ConstantLikeEEEEEPNS_9OperationE
FNL:53,1704
FNA:53,19,_ZN4mlir7cpp2fir10ConstantOp17getAttributeNamesEv
FNL:54,1713
FNA:54,0,_ZN4mlir7cpp2fir10ConstantOp16getValueAttrNameENS_13OperationNameE
FNL:55,1717
FNA:55,19,_ZN4mlir7cpp2fir10ConstantOp16getOperationNameEv
FNL:56,1731
FNA:56,92,_ZN4mlir7cpp2fir10ConstantOp26getODSResultIndexAndLengthEj
FNL:57,1735
FNA:57,92,_ZN4mlir7cpp2fir10ConstantOp13getODSResultsEj
FNL:58,1741
FNA:58,41,_ZN4mlir7cpp2fir10ConstantOp9getResultEv
FNL:59,1754
FNA:59,107,_ZN4mlir7cpp2fir10ConstantOp12getValueAttrEv
FNL:60,1786
FNA:60,0,_ZN4mlir7cpp2fir10ConstantOp24getAttributeNameForIndexENS_13OperationNameEj
FNL:61,1798
FNA:61,486,_ZN4mlir6detail14TypeIDResolverINS_7cpp2fir10ConstantOpEvE13resolveTypeIDEv
FNL:62,1859
FNA:62,0,_ZN4mlir7cpp2fir30CoroutineScopeOpGenericAdaptorINS_10ValueRangeEEC2INS0_16CoroutineScopeOpEvEES2_T_
FNL:63,1887
FNA:63,0,_ZN4mlir7cpp2fir16CoroutineScopeOpCI1NS_2OpIS1_JNS_7OpTrait9OneRegionENS3_11ZeroResultsENS3_14ZeroSuccessorsENS3_12ZeroOperandsENS3_12OpInvariantsEEEEEDn
FNA:63,0,_ZN4mlir7cpp2fir16CoroutineScopeOpCI1NS_2OpIS1_JNS_7OpTrait9OneRegionENS3_11ZeroResultsENS3_14ZeroSuccessorsENS3_12ZeroOperandsENS3_12OpInvariantsEEEEEPNS_9OperationE
FNA:63,0,_ZN4mlir7cpp2fir16CoroutineScopeOpCI2NS_2OpIS1_JNS_7OpTrait9OneRegionENS3_11ZeroResultsENS3_14ZeroSuccessorsENS3_12ZeroOperandsENS3_12OpInvariantsEEEEEDn
FNA:63,0,_ZN4mlir7cpp2fir16CoroutineScopeOpCI2NS_2OpIS1_JNS_7OpTrait9OneRegionENS3_11ZeroResultsENS3_14ZeroSuccessorsENS3_12ZeroOperandsENS3_12OpInvariantsEEEEEPNS_9OperationE
FNL:64,1894
FNA:64,19,_ZN4mlir7cpp2fir16CoroutineScopeOp17getAttributeNamesEv
FNL:65,1898
FNA:65,19,_ZN4mlir7cpp2fir16CoroutineScopeOp16getOperationNameEv
FNL:66,1922
FNA:66,0,_ZN4mlir7cpp2fir16CoroutineScopeOp7getBodyEv
FNL:67,1953
FNA:67,19,_ZN4mlir6detail14TypeIDResolverINS_7cpp2fir16CoroutineScopeOpEvE13resolveTypeIDEv
FNL:68,2008
FNA:68,0,_ZN4mlir7cpp2fir19DivOpGenericAdaptorINS_10ValueRangeEEC2INS0_5DivOpEvEES2_T_
FNL:69,2044
FNA:69,0,_ZN4mlir7cpp2fir5DivOpCI1NS_2OpIS1_JNS_7OpTrait11ZeroRegionsENS3_9OneResultENS3_14OneTypedResultINS_4TypeEE4ImplENS3_14ZeroSuccessorsENS3_9NOperandsILj2EE4ImplENS3_12OpInvariantsENS_25ConditionallySpeculatable5TraitENS3_27AlwaysSpeculatableImplTraitENS_23MemoryEffectOpInterface5TraitEEEEEDn
FNA:69,6,_ZN4mlir7cpp2fir5DivOpCI1NS_2OpIS1_JNS_7OpTrait11ZeroRegionsENS3_9OneResultENS3_14OneTypedResultINS_4TypeEE4ImplENS3_14ZeroSuccessorsENS3_9NOperandsILj2EE4ImplENS3_12OpInvariantsENS_25ConditionallySpeculatable5TraitENS3_27AlwaysSpeculatableImplTraitENS_23MemoryEffectOpInterface5TraitEEEEEPNS_9OperationE
FNA:69,0,_ZN4mlir7cpp2fir5DivOpCI2NS_2OpIS1_JNS_7OpTrait11ZeroRegionsENS3_9OneResultENS3_14OneTypedResultINS_4TypeEE4ImplENS3_14ZeroSuccessorsENS3_9NOperandsILj2EE4ImplENS3_12OpInvariantsENS_25ConditionallySpeculatable5TraitENS3_27AlwaysSpeculatableImplTraitENS_23MemoryEffectOpInterface5TraitEEEEEDn
FNA:69,6,_ZN4mlir7cpp2fir5DivOpCI2NS_2OpIS1_JNS_7OpTrait11ZeroRegionsENS3_9OneResultENS3_14OneTypedResultINS_4TypeEE4ImplENS3_14ZeroSuccessorsENS3_9NOperandsILj2EE4ImplENS3_12OpInvariantsENS_25ConditionallySpeculatable5TraitENS3_27AlwaysSpeculatableImplTraitENS_23MemoryEffectOpInterface5TraitEEEEEPNS_9OperationE
FNL:70,2053
FNA:70,19,_ZN4mlir7cpp2fir5DivOp17getAttributeNamesEv
FNL:71,2057
FNA:71,19,_ZN4mlir7cpp2fir5DivOp16getOperationNameEv
FNL:72,2061
FNA:72,10,_ZN4mlir7cpp2fir5DivOp27getODSOperandIndexAndLengthEj
FNL:73,2065
FNA:73,10,_ZN4mlir7cpp2fir5DivOp14getODSOperandsEj
FNL:74,2071
FNA:74,4,_ZN4mlir7cpp2fir5DivOp6getLhsEv
FNL:75,2075
FNA:75,4,_ZN4mlir7cpp2fir5DivOp6getRhsEv
FNL:76,2089
FNA:76,4,_ZN4mlir7cpp2fir5DivOp26getODSResultIndexAndLengthEj
FNL:77,2093
FNA:77,4,_ZN4mlir7cpp2fir5DivOp13getODSResultsEj
FNL:78,2099
FNA:78,3,_ZN4mlir7cpp2fir5DivOp9getResultEv
FNL:79,2131
FNA:79,29,_ZN4mlir6detail14TypeIDResolverINS_7cpp2fir5DivOpEvE13resolveTypeIDEv
FNL:80,2143
FNA:80,0,_ZN4mlir7cpp2fir6detail24FuncOpGenericAdaptorBase10PropertiesC1Ev
FNA:80,0,_ZN4mlir7cpp2fir6detail24FuncOpGenericAdaptorBase10PropertiesC2Ev
FNL:81,2184
FNA:81,0,_ZNK4mlir7cpp2fir6detail24FuncOpGenericAdaptorBase10PropertieseqERKS3_
FNL:82,2212
FNA:82,0,_ZN4mlir7cpp2fir6detail24FuncOpGenericAdaptorBase13getPropertiesEv
FNL:83,2220
FNA:83,0,_ZN4mlir7cpp2fir6detail24FuncOpGenericAdaptorBase14getSymNameAttrEv
FNL:84,2226
FNA:84,0,_ZN4mlir7cpp2fir6detail24FuncOpGenericAdaptorBase19getFunctionTypeAttrEv
FNL:85,2232
FNA:85,0,_ZN4mlir7cpp2fir6detail24FuncOpGenericAdaptorBase15getArgAttrsAttrEv
FNL:86,2238
FNA:86,0,_ZN4mlir7cpp2fir6detail24FuncOpGenericAdaptorBase15getResAttrsAttrEv
FNL:87,2268
FNA:87,0,_ZN4mlir7cpp2fir20FuncOpGenericAdaptorINS_10ValueRangeEEC2INS0_6FuncOpEvEES2_T_
FNL:88,2296
FNA:88,27,_ZN4mlir7cpp2fir6FuncOpCI1NS_2OpIS1_JNS_7OpTrait9OneRegionENS3_11ZeroResultsENS3_14ZeroSuccessorsENS3_12ZeroOperandsENS3_12OpInvariantsENS_19BytecodeOpInterface5TraitENS_17SymbolOpInterface5TraitENS_19CallableOpInterface5TraitENS_19FunctionOpInterface5TraitENS3_19IsIsolatedFromAboveEEEEEDn
FNA:88,276,_ZN4mlir7cpp2fir6FuncOpCI1NS_2OpIS1_JNS_7OpTrait9OneRegionENS3_11ZeroResultsENS3_14ZeroSuccessorsENS3_12ZeroOperandsENS3_12OpInvariantsENS_19BytecodeOpInterface5TraitENS_17SymbolOpInterface5TraitENS_19CallableOpInterface5TraitENS_19FunctionOpInterface5TraitENS3_19IsIsolatedFromAboveEEEEEPNS_9OperationE
FNA:88,27,_ZN4mlir7cpp2fir6FuncOpCI2NS_2OpIS1_JNS_7OpTrait9OneRegionENS3_11ZeroResultsENS3_14ZeroSuccessorsENS3_12ZeroOperandsENS3_12OpInvariantsENS_19BytecodeOpInterface5TraitENS_17SymbolOpInterface5TraitENS_19CallableOpInterface5TraitENS_19FunctionOpInterface5TraitENS3_19IsIsolatedFromAboveEEEEEDn
FNA:88,276,_ZN4mlir7cpp2fir6FuncOpCI2NS_2OpIS1_JNS_7OpTrait9OneRegionENS3_11ZeroResultsENS3_14ZeroSuccessorsENS3_12ZeroOperandsENS3_12OpInvariantsENS_19BytecodeOpInterface5TraitENS_17SymbolOpInterface5TraitENS_19CallableOpInterface5TraitENS_19FunctionOpInterface5TraitENS3_19IsIsolatedFromAboveEEEEEPNS_9OperationE
FNL:89,2303
FNA:89,19,_ZN4mlir7cpp2fir6FuncOp17getAttributeNamesEv
FNL:90,2312
FNA:90,0,_ZN4mlir7cpp2fir6FuncOp19getArgAttrsAttrNameENS_13OperationNameE
FNL:91,2320
FNA:91,0,_ZN4mlir7cpp2fir6FuncOp23getFunctionTypeAttrNameENS_13OperationNameE
FNL:92,2328
FNA:92,0,_ZN4mlir7cpp2fir6FuncOp19getResAttrsAttrNameENS_13OperationNameE
FNL:93,2336
FNA:93,0,_ZN4mlir7cpp2fir6FuncOp18getSymNameAttrNameENS_13OperationNameE
FNL:94,2340
FNA:94,19,_ZN4mlir7cpp2fir6FuncOp16getOperationNameEv
FNL:95,2364
FNA:95,37,_ZN4mlir7cpp2fir6FuncOp7getBodyEv
FNL:96,2377
FNA:96,22,_ZN4mlir7cpp2fir6FuncOp14getSymNameAttrEv
FNL:97,2382
FNA:97,88,_ZN4mlir7cpp2fir6FuncOp19getFunctionTypeAttrEv
FNL:98,2387
FNA:98,28,_ZN4mlir7cpp2fir6FuncOp15getArgAttrsAttrEv
FNL:99,2392
FNA:99,24,_ZN4mlir7cpp2fir6FuncOp15getResAttrsAttrEv
FNL:100,2402
FNA:100,0,_ZN4mlir7cpp2fir6FuncOp19setFunctionTypeAttrENS_8TypeAttrE
FNL:101,2407
FNA:101,0,_ZN4mlir7cpp2fir6FuncOp15setArgAttrsAttrENS_9ArrayAttrE
FNL:102,2411
FNA:102,0,_ZN4mlir7cpp2fir6FuncOp15setResAttrsAttrENS_9ArrayAttrE
FNL:103,2415
FNA:103,0,_ZN4mlir7cpp2fir6FuncOp18removeArgAttrsAttrEv
FNL:104,2421
FNA:104,0,_ZN4mlir7cpp2fir6FuncOp18removeResAttrsAttrEv
FNL:105,2454
FNA:105,0,_ZN4mlir7cpp2fir6FuncOp24getAttributeNameForIndexENS_13OperationNameEj
FNL:106,2464
FNA:106,0,_ZN4mlir7cpp2fir6FuncOp17getCallableRegionEv
FNL:107,2465
FNA:107,64,_ZN4mlir7cpp2fir6FuncOp16getArgumentTypesEv
FNL:108,2466
FNA:108,0,_ZN4mlir7cpp2fir6FuncOp14getResultTypesEv
FNL:109,2471
FNA:109,345,_ZN4mlir6detail14TypeIDResolverINS_7cpp2fir6FuncOpEvE13resolveTypeIDEv
FNL:110,2483
FNA:110,0,_ZN4mlir7cpp2fir6detail26KernelOpGenericAdaptorBase10PropertiesC1Ev
FNA:110,0,_ZN4mlir7cpp2fir6detail26KernelOpGenericAdaptorBase10PropertiesC2Ev
FNL:111,2524
FNA:111,0,_ZNK4mlir7cpp2fir6detail26KernelOpGenericAdaptorBase10PropertieseqERKS3_
FNL:112,2552
FNA:112,0,_ZN4mlir7cpp2fir6detail26KernelOpGenericAdaptorBase13getPropertiesEv
FNL:113,2560
FNA:113,0,_ZN4mlir7cpp2fir6detail26KernelOpGenericAdaptorBase14getSymNameAttrEv
FNL:114,2566
FNA:114,0,_ZN4mlir7cpp2fir6detail26KernelOpGenericAdaptorBase19getFunctionTypeAttrEv
FNL:115,2572
FNA:115,0,_ZN4mlir7cpp2fir6detail26KernelOpGenericAdaptorBase19getLaunchConfigAttrEv
FNL:116,2578
FNA:116,0,_ZN4mlir7cpp2fir6detail26KernelOpGenericAdaptorBase19getMemoryPolicyAttrEv
FNL:117,2608
FNA:117,0,_ZN4mlir7cpp2fir22KernelOpGenericAdaptorINS_10ValueRangeEEC2INS0_8KernelOpEvEES2_T_
FNL:118,261
FNA:118,0,_ZN4mlir7cpp2fir19AddOpGenericAdaptorINS_10ValueRangeEEC2INS0_5AddOpEvEES2_T_
FNL:119,2636
FNA:119,0,_ZN4mlir7cpp2fir8KernelOpCI1NS_2OpIS1_JNS_7OpTrait9OneRegionENS3_11ZeroResultsENS3_14ZeroSuccessorsENS3_12ZeroOperandsENS3_12OpInvariantsENS_19BytecodeOpInterface5TraitEEEEEDn
FNA:119,0,_ZN4mlir7cpp2fir8KernelOpCI1NS_2OpIS1_JNS_7OpTrait9OneRegionENS3_11ZeroResultsENS3_14ZeroSuccessorsENS3_12ZeroOperandsENS3_12OpInvariantsENS_19BytecodeOpInterface5TraitEEEEEPNS_9OperationE
FNA:119,0,_ZN4mlir7cpp2fir8KernelOpCI2NS_2OpIS1_JNS_7OpTrait9OneRegionENS3_11ZeroResultsENS3_14ZeroSuccessorsENS3_12ZeroOperandsENS3_12OpInvariantsENS_19BytecodeOpInterface5TraitEEEEEDn
FNA:119,0,_ZN4mlir7cpp2fir8KernelOpCI2NS_2OpIS1_JNS_7OpTrait9OneRegionENS3_11ZeroResultsENS3_14ZeroSuccessorsENS3_12ZeroOperandsENS3_12OpInvariantsENS_19BytecodeOpInterface5TraitEEEEEPNS_9OperationE
FNL:120,2643
FNA:120,19,_ZN4mlir7cpp2fir8KernelOp17getAttributeNamesEv
FNL:121,2652
FNA:121,0,_ZN4mlir7cpp2fir8KernelOp23getFunctionTypeAttrNameENS_13OperationNameE
FNL:122,2660
FNA:122,0,_ZN4mlir7cpp2fir8KernelOp23getLaunchConfigAttrNameENS_13OperationNameE
FNL:123,2668
FNA:123,0,_ZN4mlir7cpp2fir8KernelOp23getMemoryPolicyAttrNameENS_13OperationNameE
FNL:124,2676
FNA:124,0,_ZN4mlir7cpp2fir8KernelOp18getSymNameAttrNameENS_13OperationNameE
FNL:125,2680
FNA:125,19,_ZN4mlir7cpp2fir8KernelOp16getOperationNameEv
FNL:126,2704
FNA:126,0,_ZN4mlir7cpp2fir8KernelOp7getBodyEv
FNL:127,2717
FNA:127,0,_ZN4mlir7cpp2fir8KernelOp14getSymNameAttrEv
FNL:128,2722
FNA:128,0,_ZN4mlir7cpp2fir8KernelOp19getFunctionTypeAttrEv
FNL:129,2727
FNA:129,0,_ZN4mlir7cpp2fir8KernelOp19getLaunchConfigAttrEv
FNL:130,2732
FNA:130,0,_ZN4mlir7cpp2fir8KernelOp19getMemoryPolicyAttrEv
FNL:131,2796
FNA:131,0,_ZN4mlir7cpp2fir8KernelOp24getAttributeNameForIndexENS_13OperationNameEj
FNL:132,2808
FNA:132,19,_ZN4mlir6detail14TypeIDResolverINS_7cpp2fir8KernelOpEvE13resolveTypeIDEv
FNL:133,2820
FNA:133,0,_ZN4mlir7cpp2fir6detail29MemRegionOpGenericAdaptorBase10PropertiesC1Ev
FNA:133,0,_ZN4mlir7cpp2fir6detail29MemRegionOpGenericAdaptorBase10PropertiesC2Ev
FNL:134,2851
FNA:134,0,_ZNK4mlir7cpp2fir6detail29MemRegionOpGenericAdaptorBase10PropertieseqERKS3_
FNL:135,2878
FNA:135,0,_ZN4mlir7cpp2fir6detail29MemRegionOpGenericAdaptorBase13getPropertiesEv
FNL:136,2886
FNA:136,0,_ZN4mlir7cpp2fir6detail29MemRegionOpGenericAdaptorBase17getRegionTypeAttrEv
FNL:137,2892
FNA:137,0,_ZN4mlir7cpp2fir6detail29MemRegionOpGenericAdaptorBase16getSizeBytesAttrEv
FNL:138,2916
FNA:138,0,_ZN4mlir7cpp2fir25MemRegionOpGenericAdaptorINS_10ValueRangeEEC2INS0_11MemRegionOpEvEES2_T_
FNL:139,2944
FNA:139,0,_ZN4mlir7cpp2fir11MemRegionOpCI1NS_2OpIS1_JNS_7OpTrait11ZeroRegionsENS3_9OneResultENS3_14OneTypedResultINS_4TypeEE4ImplENS3_14ZeroSuccessorsENS3_12ZeroOperandsENS3_12OpInvariantsENS_19BytecodeOpInterface5TraitEEEEEDn
FNA:139,0,_ZN4mlir7cpp2fir11MemRegionOpCI1NS_2OpIS1_JNS_7OpTrait11ZeroRegionsENS3_9OneResultENS3_14OneTypedResultINS_4TypeEE4ImplENS3_14ZeroSuccessorsENS3_12ZeroOperandsENS3_12OpInvariantsENS_19BytecodeOpInterface5TraitEEEEEPNS_9OperationE
FNA:139,0,_ZN4mlir7cpp2fir11MemRegionOpCI2NS_2OpIS1_JNS_7OpTrait11ZeroRegionsENS3_9OneResultENS3_14OneTypedResultINS_4TypeEE4ImplENS3_14ZeroSuccessorsENS3_12ZeroOperandsENS3_12OpInvariantsENS_19BytecodeOpInterface5TraitEEEEEDn
FNA:139,0,_ZN4mlir7cpp2fir11MemRegionOpCI2NS_2OpIS1_JNS_7OpTrait11ZeroRegionsENS3_9OneResultENS3_14OneTypedResultINS_4TypeEE4ImplENS3_14ZeroSuccessorsENS3_12ZeroOperandsENS3_12OpInvariantsENS_19BytecodeOpInterface5TraitEEEEEPNS_9OperationE
FNL:140,2951
FNA:140,19,_ZN4mlir7cpp2fir11MemRegionOp17getAttributeNamesEv
FNL:141,2960
FNA:141,0,_ZN4mlir7cpp2fir11MemRegionOp21getDmaEnabledAttrNameENS_13OperationNameE
FNL:142,2968
FNA:142,0,_ZN4mlir7cpp2fir11MemRegionOp21getRegionTypeAttrNameENS_13OperationNameE
FNL:143,297
FNA:143,0,_ZN4mlir7cpp2fir5AddOpCI1NS_2OpIS1_JNS_7OpTrait11ZeroRegionsENS3_9OneResultENS3_14OneTypedResultINS_4TypeEE4ImplENS3_14ZeroSuccessorsENS3_9NOperandsILj2EE4ImplENS3_12OpInvariantsENS_25ConditionallySpeculatable5TraitENS3_27AlwaysSpeculatableImplTraitENS_23MemoryEffectOpInterface5TraitEEEEEDn
FNA:143,29,_ZN4mlir7cpp2fir5AddOpCI1NS_2OpIS1_JNS_7OpTrait11ZeroRegionsENS3_9OneResultENS3_14OneTypedResultINS_4TypeEE4ImplENS3_14ZeroSuccessorsENS3_9NOperandsILj2EE4ImplENS3_12OpInvariantsENS_25ConditionallySpeculatable5TraitENS3_27AlwaysSpeculatableImplTraitENS_23MemoryEffectOpInterface5TraitEEEEEPNS_9OperationE
FNA:143,0,_ZN4mlir7cpp2fir5AddOpCI2NS_2OpIS1_JNS_7OpTrait11ZeroRegionsENS3_9OneResultENS3_14OneTypedResultINS_4TypeEE4ImplENS3_14ZeroSuccessorsENS3_9NOperandsILj2EE4ImplENS3_12OpInvariantsENS_25ConditionallySpeculatable5TraitENS3_27AlwaysSpeculatableImplTraitENS_23MemoryEffectOpInterface5TraitEEEEEDn
FNA:143,29,_ZN4mlir7cpp2fir5AddOpCI2NS_2OpIS1_JNS_7OpTrait11ZeroRegionsENS3_9OneResultENS3_14OneTypedResultINS_4TypeEE4ImplENS3_14ZeroSuccessorsENS3_9NOperandsILj2EE4ImplENS3_12OpInvariantsENS_25ConditionallySpeculatable5TraitENS3_27AlwaysSpeculatableImplTraitENS_23MemoryEffectOpInterface5TraitEEEEEPNS_9OperationE
FNL:144,2976
FNA:144,0,_ZN4mlir7cpp2fir11MemRegionOp20getSizeBytesAttrNameENS_13OperationNameE
FNL:145,2980
FNA:145,19,_ZN4mlir7cpp2fir11MemRegionOp16getOperationNameEv
FNL:146,2994
FNA:146,0,_ZN4mlir7cpp2fir11MemRegionOp26getODSResultIndexAndLengthEj
FNL:147,2998
FNA:147,0,_ZN4mlir7cpp2fir11MemRegionOp13getODSResultsEj
FNL:148,3004
FNA:148,0,_ZN4mlir7cpp2fir11MemRegionOp9getHandleEv
FNL:149,3017
FNA:149,0,_ZN4mlir7cpp2fir11MemRegionOp17getRegionTypeAttrEv
FNL:150,3022
FNA:150,0,_ZN4mlir7cpp2fir11MemRegionOp16getSizeBytesAttrEv
FNL:151,3027
FNA:151,0,_ZN4mlir7cpp2fir11MemRegionOp17getDmaEnabledAttrEv
FNL:152,306
FNA:152,19,_ZN4mlir7cpp2fir5AddOp17getAttributeNamesEv
FNL:153,3080
FNA:153,0,_ZN4mlir7cpp2fir11MemRegionOp24getAttributeNameForIndexENS_13OperationNameEj
FNL:154,3092
FNA:154,19,_ZN4mlir6detail14TypeIDResolverINS_7cpp2fir11MemRegionOpEvE13resolveTypeIDEv
FNL:155,310
FNA:155,19,_ZN4mlir7cpp2fir5AddOp16getOperationNameEv
FNL:156,314
FNA:156,44,_ZN4mlir7cpp2fir5AddOp27getODSOperandIndexAndLengthEj
FNL:157,3147
FNA:157,0,_ZN4mlir7cpp2fir19MulOpGenericAdaptorINS_10ValueRangeEEC2INS0_5MulOpEvEES2_T_
FNL:158,318
FNA:158,44,_ZN4mlir7cpp2fir5AddOp14getODSOperandsEj
FNL:159,3183
FNA:159,0,_ZN4mlir7cpp2fir5MulOpCI1NS_2OpIS1_JNS_7OpTrait11ZeroRegionsENS3_9OneResultENS3_14OneTypedResultINS_4TypeEE4ImplENS3_14ZeroSuccessorsENS3_9NOperandsILj2EE4ImplENS3_12OpInvariantsENS_25ConditionallySpeculatable5TraitENS3_27AlwaysSpeculatableImplTraitENS_23MemoryEffectOpInterface5TraitEEEEEDn
FNA:159,16,_ZN4mlir7cpp2fir5MulOpCI1NS_2OpIS1_JNS_7OpTrait11ZeroRegionsENS3_9OneResultENS3_14OneTypedResultINS_4TypeEE4ImplENS3_14ZeroSuccessorsENS3_9NOperandsILj2EE4ImplENS3_12OpInvariantsENS_25ConditionallySpeculatable5TraitENS3_27AlwaysSpeculatableImplTraitENS_23MemoryEffectOpInterface5TraitEEEEEPNS_9OperationE
FNA:159,0,_ZN4mlir7cpp2fir5MulOpCI2NS_2OpIS1_JNS_7OpTrait11ZeroRegionsENS3_9OneResultENS3_14OneTypedResultINS_4TypeEE4ImplENS3_14ZeroSuccessorsENS3_9NOperandsILj2EE4ImplENS3_12OpInvariantsENS_25ConditionallySpeculatable5TraitENS3_27AlwaysSpeculatableImplTraitENS_23MemoryEffectOpInterface5TraitEEEEEDn
FNA:159,16,_ZN4mlir7cpp2fir5MulOpCI2NS_2OpIS1_JNS_7OpTrait11ZeroRegionsENS3_9OneResultENS3_14OneTypedResultINS_4TypeEE4ImplENS3_14ZeroSuccessorsENS3_9NOperandsILj2EE4ImplENS3_12OpInvariantsENS_25ConditionallySpeculatable5TraitENS3_27AlwaysSpeculatableImplTraitENS_23MemoryEffectOpInterface5TraitEEEEEPNS_9OperationE
FNL:160,3192
FNA:160,19,_ZN4mlir7cpp2fir5MulOp17getAttributeNamesEv
FNL:161,3196
FNA:161,19,_ZN4mlir7cpp2fir5MulOp16getOperationNameEv
FNL:162,3200
FNA:162,22,_ZN4mlir7cpp2fir5MulOp27getODSOperandIndexAndLengthEj
FNL:163,3204
FNA:163,22,_ZN4mlir7cpp2fir5MulOp14getODSOperandsEj
FNL:164,3210
FNA:164,8,_ZN4mlir7cpp2fir5MulOp6getLhsEv
FNL:165,3214
FNA:165,8,_ZN4mlir7cpp2fir5MulOp6getRhsEv
FNL:166,3228
FNA:166,10,_ZN4mlir7cpp2fir5MulOp26getODSResultIndexAndLengthEj
FNL:167,3232
FNA:167,10,_ZN4mlir7cpp2fir5MulOp13getODSResultsEj
FNL:168,3238
FNA:168,7,_ZN4mlir7cpp2fir5MulOp9getResultEv
FNL:169,324
FNA:169,16,_ZN4mlir7cpp2fir5AddOp6getLhsEv
FNL:170,3270
FNA:170,42,_ZN4mlir6detail14TypeIDResolverINS_7cpp2fir5MulOpEvE13resolveTypeIDEv
FNL:171,328
FNA:171,16,_ZN4mlir7cpp2fir5AddOp6getRhsEv
FNL:172,3324
FNA:172,0,_ZN4mlir7cpp2fir19NotOpGenericAdaptorINS_10ValueRangeEEC2INS0_5NotOpEvEES2_T_
FNL:173,3356
FNA:173,0,_ZN4mlir7cpp2fir5NotOpCI1NS_2OpIS1_JNS_7OpTrait11ZeroRegionsENS3_9OneResultENS3_14OneTypedResultINS_4TypeEE4ImplENS3_14ZeroSuccessorsENS3_10OneOperandENS3_12OpInvariantsENS_25ConditionallySpeculatable5TraitENS3_27AlwaysSpeculatableImplTraitENS_23MemoryEffectOpInterface5TraitEEEEEDn
FNA:173,0,_ZN4mlir7cpp2fir5NotOpCI1NS_2OpIS1_JNS_7OpTrait11ZeroRegionsENS3_9OneResultENS3_14OneTypedResultINS_4TypeEE4ImplENS3_14ZeroSuccessorsENS3_10OneOperandENS3_12OpInvariantsENS_25ConditionallySpeculatable5TraitENS3_27AlwaysSpeculatableImplTraitENS_23MemoryEffectOpInterface5TraitEEEEEPNS_9OperationE
FNA:173,0,_ZN4mlir7cpp2fir5NotOpCI2NS_2OpIS1_JNS_7OpTrait11ZeroRegionsENS3_9OneResultENS3_14OneTypedResultINS_4TypeEE4ImplENS3_14ZeroSuccessorsENS3_10OneOperandENS3_12OpInvariantsENS_25ConditionallySpeculatable5TraitENS3_27AlwaysSpeculatableImplTraitENS_23MemoryEffectOpInterface5TraitEEEEEDn
FNA:173,0,_ZN4mlir7cpp2fir5NotOpCI2NS_2OpIS1_JNS_7OpTrait11ZeroRegionsENS3_9OneResultENS3_14OneTypedResultINS_4TypeEE4ImplENS3_14ZeroSuccessorsENS3_10OneOperandENS3_12OpInvariantsENS_25ConditionallySpeculatable5TraitENS3_27AlwaysSpeculatableImplTraitENS_23MemoryEffectOpInterface5TraitEEEEEPNS_9OperationE
FNL:174,3364
FNA:174,19,_ZN4mlir7cpp2fir5NotOp17getAttributeNamesEv
FNL:175,3368
FNA:175,19,_ZN4mlir7cpp2fir5NotOp16getOperationNameEv
FNL:176,3372
FNA:176,0,_ZN4mlir7cpp2fir5NotOp27getODSOperandIndexAndLengthEj
FNL:177,3376
FNA:177,0,_ZN4mlir7cpp2fir5NotOp14getODSOperandsEj
FNL:178,3382
FNA:178,0,_ZN4mlir7cpp2fir5NotOp8getInputEv
FNL:179,3391
FNA:179,0,_ZN4mlir7cpp2fir5NotOp26getODSResultIndexAndLengthEj
FNL:180,3395
FNA:180,0,_ZN4mlir7cpp2fir5NotOp13getODSResultsEj
FNL:181,3401
FNA:181,0,_ZN4mlir7cpp2fir5NotOp9getResultEv
FNL:182,342
FNA:182,17,_ZN4mlir7cpp2fir5AddOp26getODSResultIndexAndLengthEj
FNL:183,3433
FNA:183,24,_ZN4mlir6detail14TypeIDResolverINS_7cpp2fir5NotOpEvE13resolveTypeIDEv
FNL:184,346
FNA:184,17,_ZN4mlir7cpp2fir5AddOp13getODSResultsEj
FNL:185,3488
FNA:185,0,_ZN4mlir7cpp2fir18OrOpGenericAdaptorINS_10ValueRangeEEC2INS0_4OrOpEvEES2_T_
FNL:186,352
FNA:186,11,_ZN4mlir7cpp2fir5AddOp9getResultEv
FNL:187,3524
FNA:187,0,_ZN4mlir7cpp2fir4OrOpCI1NS_2OpIS1_JNS_7OpTrait11ZeroRegionsENS3_9OneResultENS3_14OneTypedResultINS_4TypeEE4ImplENS3_14ZeroSuccessorsENS3_9NOperandsILj2EE4ImplENS3_12OpInvariantsENS_25ConditionallySpeculatable5TraitENS3_27AlwaysSpeculatableImplTraitENS_23MemoryEffectOpInterface5TraitEEEEEDn
FNA:187,6,_ZN4mlir7cpp2fir4OrOpCI1NS_2OpIS1_JNS_7OpTrait11ZeroRegionsENS3_9OneResultENS3_14OneTypedResultINS_4TypeEE4ImplENS3_14ZeroSuccessorsENS3_9NOperandsILj2EE4ImplENS3_12OpInvariantsENS_25ConditionallySpeculatable5TraitENS3_27AlwaysSpeculatableImplTraitENS_23MemoryEffectOpInterface5TraitEEEEEPNS_9OperationE
FNA:187,0,_ZN4mlir7cpp2fir4OrOpCI2NS_2OpIS1_JNS_7OpTrait11ZeroRegionsENS3_9OneResultENS3_14OneTypedResultINS_4TypeEE4ImplENS3_14ZeroSuccessorsENS3_9NOperandsILj2EE4ImplENS3_12OpInvariantsENS_25ConditionallySpeculatable5TraitENS3_27AlwaysSpeculatableImplTraitENS_23MemoryEffectOpInterface5TraitEEEEEDn
FNA:187,6,_ZN4mlir7cpp2fir4OrOpCI2NS_2OpIS1_JNS_7OpTrait11ZeroRegionsENS3_9OneResultENS3_14OneTypedResultINS_4TypeEE4ImplENS3_14ZeroSuccessorsENS3_9NOperandsILj2EE4ImplENS3_12OpInvariantsENS_25ConditionallySpeculatable5TraitENS3_27AlwaysSpeculatableImplTraitENS_23MemoryEffectOpInterface5TraitEEEEEPNS_9OperationE
FNL:188,3533
FNA:188,19,_ZN4mlir7cpp2fir4OrOp17getAttributeNamesEv
FNL:189,3537
FNA:189,19,_ZN4mlir7cpp2fir4OrOp16getOperationNameEv
FNL:190,3541
FNA:190,10,_ZN4mlir7cpp2fir4OrOp27getODSOperandIndexAndLengthEj
FNL:191,3545
FNA:191,10,_ZN4mlir7cpp2fir4OrOp14getODSOperandsEj
FNL:192,3551
FNA:192,4,_ZN4mlir7cpp2fir4OrOp6getLhsEv
FNL:193,3555
FNA:193,4,_ZN4mlir7cpp2fir4OrOp6getRhsEv
FNL:194,3569
FNA:194,4,_ZN4mlir7cpp2fir4OrOp26getODSResultIndexAndLengthEj
FNL:195,3573
FNA:195,4,_ZN4mlir7cpp2fir4OrOp13getODSResultsEj
FNL:196,3579
FNA:196,3,_ZN4mlir7cpp2fir4OrOp9getResultEv
FNL:197,3611
FNA:197,28,_ZN4mlir6detail14TypeIDResolverINS_7cpp2fir4OrOpEvE13resolveTypeIDEv
FNL:198,3623
FNA:198,0,_ZN4mlir7cpp2fir6detail31ParallelForOpGenericAdaptorBase10PropertiesC1Ev
FNA:198,0,_ZN4mlir7cpp2fir6detail31ParallelForOpGenericAdaptorBase10PropertiesC2Ev
FNL:199,3634
FNA:199,0,_ZNK4mlir7cpp2fir6detail31ParallelForOpGenericAdaptorBase10PropertieseqERKS3_
FNL:200,3659
FNA:200,0,_ZN4mlir7cpp2fir6detail31ParallelForOpGenericAdaptorBase13getPropertiesEv
FNL:201,3667
FNA:201,0,_ZN4mlir7cpp2fir6detail31ParallelForOpGenericAdaptorBase14getMappingAttrEv
FNL:202,3700
FNA:202,0,_ZN4mlir7cpp2fir27ParallelForOpGenericAdaptorINS_10ValueRangeEEC2INS0_13ParallelForOpEvEES2_T_
FNL:203,3740
FNA:203,0,_ZN4mlir7cpp2fir13ParallelForOpCI1NS_2OpIS1_JNS_7OpTrait9OneRegionENS3_11ZeroResultsENS3_14ZeroSuccessorsENS3_9NOperandsILj3EE4ImplENS3_12OpInvariantsENS_19BytecodeOpInterface5TraitEEEEEDn
FNA:203,0,_ZN4mlir7cpp2fir13ParallelForOpCI1NS_2OpIS1_JNS_7OpTrait9OneRegionENS3_11ZeroResultsENS3_14ZeroSuccessorsENS3_9NOperandsILj3EE4ImplENS3_12OpInvariantsENS_19BytecodeOpInterface5TraitEEEEEPNS_9OperationE
FNA:203,0,_ZN4mlir7cpp2fir13ParallelForOpCI2NS_2OpIS1_JNS_7OpTrait9OneRegionENS3_11ZeroResultsENS3_14ZeroSuccessorsENS3_9NOperandsILj3EE4ImplENS3_12OpInvariantsENS_19BytecodeOpInterface5TraitEEEEEDn
FNA:203,0,_ZN4mlir7cpp2fir13ParallelForOpCI2NS_2OpIS1_JNS_7OpTrait9OneRegionENS3_11ZeroResultsENS3_14ZeroSuccessorsENS3_9NOperandsILj3EE4ImplENS3_12OpInvariantsENS_19BytecodeOpInterface5TraitEEEEEPNS_9OperationE
FNL:204,3750
FNA:204,19,_ZN4mlir7cpp2fir13ParallelForOp17getAttributeNamesEv
FNL:205,3759
FNA:205,0,_ZN4mlir7cpp2fir13ParallelForOp18getMappingAttrNameENS_13OperationNameE
FNL:206,3763
FNA:206,19,_ZN4mlir7cpp2fir13ParallelForOp16getOperationNameEv
FNL:207,3767
FNA:207,0,_ZN4mlir7cpp2fir13ParallelForOp27getODSOperandIndexAndLengthEj
FNL:208,3771
FNA:208,0,_ZN4mlir7cpp2fir13ParallelForOp14getODSOperandsEj
FNL:209,3777
FNA:209,0,_ZN4mlir7cpp2fir13ParallelForOp13getLowerBoundEv
FNL:210,3781
FNA:210,0,_ZN4mlir7cpp2fir13ParallelForOp13getUpperBoundEv
FNL:211,3785
FNA:211,0,_ZN4mlir7cpp2fir13ParallelForOp7getStepEv
FNL:212,3814
FNA:212,0,_ZN4mlir7cpp2fir13ParallelForOp7getBodyEv
FNL:213,3827
FNA:213,0,_ZN4mlir7cpp2fir13ParallelForOp14getMappingAttrEv
FNL:214,384
FNA:214,57,_ZN4mlir6detail14TypeIDResolverINS_7cpp2fir5AddOpEvE13resolveTypeIDEv
FNL:215,3864
FNA:215,0,_ZN4mlir7cpp2fir13ParallelForOp24getAttributeNameForIndexENS_13OperationNameEj
FNL:216,3876
FNA:216,19,_ZN4mlir6detail14TypeIDResolverINS_7cpp2fir13ParallelForOpEvE13resolveTypeIDEv
FNL:217,3927
FNA:217,0,_ZN4mlir7cpp2fir19PhiOpGenericAdaptorINS_10ValueRangeEEC2INS0_5PhiOpEvEES2_T_
FNL:218,3959
FNA:218,5,_ZN4mlir7cpp2fir5PhiOpCI1NS_2OpIS1_JNS_7OpTrait11ZeroRegionsENS3_9OneResultENS3_14OneTypedResultINS_4TypeEE4ImplENS3_14ZeroSuccessorsENS3_16VariadicOperandsENS3_12OpInvariantsENS_25ConditionallySpeculatable5TraitENS3_27AlwaysSpeculatableImplTraitENS_23MemoryEffectOpInterface5TraitEEEEEDn
FNA:218,2,_ZN4mlir7cpp2fir5PhiOpCI1NS_2OpIS1_JNS_7OpTrait11ZeroRegionsENS3_9OneResultENS3_14OneTypedResultINS_4TypeEE4ImplENS3_14ZeroSuccessorsENS3_16VariadicOperandsENS3_12OpInvariantsENS_25ConditionallySpeculatable5TraitENS3_27AlwaysSpeculatableImplTraitENS_23MemoryEffectOpInterface5TraitEEEEEPNS_9OperationE
FNA:218,5,_ZN4mlir7cpp2fir5PhiOpCI2NS_2OpIS1_JNS_7OpTrait11ZeroRegionsENS3_9OneResultENS3_14OneTypedResultINS_4TypeEE4ImplENS3_14ZeroSuccessorsENS3_16VariadicOperandsENS3_12OpInvariantsENS_25ConditionallySpeculatable5TraitENS3_27AlwaysSpeculatableImplTraitENS_23MemoryEffectOpInterface5TraitEEEEEDn
FNA:218,2,_ZN4mlir7cpp2fir5PhiOpCI2NS_2OpIS1_JNS_7OpTrait11ZeroRegionsENS3_9OneResultENS3_14OneTypedResultINS_4TypeEE4ImplENS3_14ZeroSuccessorsENS3_16VariadicOperandsENS3_12OpInvariantsENS_25ConditionallySpeculatable5TraitENS3_27AlwaysSpeculatableImplTraitENS_23MemoryEffectOpInterface5TraitEEEEEPNS_9OperationE
FNL:219,3967
FNA:219,19,_ZN4mlir7cpp2fir5PhiOp17getAttributeNamesEv
FNL:220,3971
FNA:220,19,_ZN4mlir7cpp2fir5PhiOp16getOperationNameEv
FNL:221,3976
FNA:221,0,_ZN4mlir7cpp2fir5PhiOp14getODSOperandsEj
FNL:222,3982
FNA:222,0,_ZN4mlir7cpp2fir5PhiOp9getValuesEv
FNL:223,3987
FNA:223,1,_ZN4mlir7cpp2fir5PhiOp26getODSResultIndexAndLengthEj
FNL:224,3991
FNA:224,1,_ZN4mlir7cpp2fir5PhiOp13getODSResultsEj
FNL:225,3997
FNA:225,1,_ZN4mlir7cpp2fir5PhiOp9getResultEv
FNL:226,4026
FNA:226,27,_ZN4mlir6detail14TypeIDResolverINS_7cpp2fir5PhiOpEvE13resolveTypeIDEv
FNL:227,4038
FNA:227,0,_ZN4mlir7cpp2fir6detail33PostconditionOpGenericAdaptorBase10PropertiesC1Ev
FNA:227,0,_ZN4mlir7cpp2fir6detail33PostconditionOpGenericAdaptorBase10PropertiesC2Ev
FNL:228,4069
FNA:228,0,_ZNK4mlir7cpp2fir6detail33PostconditionOpGenericAdaptorBase10PropertieseqERKS3_
FNL:229,4096
FNA:229,0,_ZN4mlir7cpp2fir6detail33PostconditionOpGenericAdaptorBase13getPropertiesEv
FNL:230,4104
FNA:230,0,_ZN4mlir7cpp2fir6detail33PostconditionOpGenericAdaptorBase14getMessageAttrEv
FNL:231,4110
FNA:231,0,_ZN4mlir7cpp2fir6detail33PostconditionOpGenericAdaptorBase17getCategoriesAttrEv
FNL:232,4135
FNA:232,0,_ZN4mlir7cpp2fir29PostconditionOpGenericAdaptorINS_10ValueRangeEEC2INS0_15PostconditionOpEvEES2_T_
FNL:233,4167
FNA:233,0,_ZN4mlir7cpp2fir15PostconditionOpCI1NS_2OpIS1_JNS_7OpTrait11ZeroRegionsENS3_11ZeroResultsENS3_14ZeroSuccessorsENS3_10OneOperandENS3_12OpInvariantsENS_19BytecodeOpInterface5TraitEEEEEDn
FNA:233,0,_ZN4mlir7cpp2fir15PostconditionOpCI1NS_2OpIS1_JNS_7OpTrait11ZeroRegionsENS3_11ZeroResultsENS3_14ZeroSuccessorsENS3_10OneOperandENS3_12OpInvariantsENS_19BytecodeOpInterface5TraitEEEEEPNS_9OperationE
FNA:233,0,_ZN4mlir7cpp2fir15PostconditionOpCI2NS_2OpIS1_JNS_7OpTrait11ZeroRegionsENS3_11ZeroResultsENS3_14ZeroSuccessorsENS3_10OneOperandENS3_12OpInvariantsENS_19BytecodeOpInterface5TraitEEEEEDn
FNA:233,0,_ZN4mlir7cpp2fir15PostconditionOpCI2NS_2OpIS1_JNS_7OpTrait11ZeroRegionsENS3_11ZeroResultsENS3_14ZeroSuccessorsENS3_10OneOperandENS3_12OpInvariantsENS_19BytecodeOpInterface5TraitEEEEEPNS_9OperationE
FNL:234,4175
FNA:234,19,_ZN4mlir7cpp2fir15PostconditionOp17getAttributeNamesEv
FNL:235,4184
FNA:235,0,_ZN4mlir7cpp2fir15PostconditionOp16getAuditAttrNameENS_13OperationNameE
FNL:236,4192
FNA:236,0,_ZN4mlir7cpp2fir15PostconditionOp21getCategoriesAttrNameENS_13OperationNameE
FNL:237,4200
FNA:237,0,_ZN4mlir7cpp2fir15PostconditionOp18getMessageAttrNameENS_13OperationNameE
FNL:238,4204
FNA:238,19,_ZN4mlir7cpp2fir15PostconditionOp16getOperationNameEv
FNL:239,4208
FNA:239,0,_ZN4mlir7cpp2fir15PostconditionOp27getODSOperandIndexAndLengthEj
FNL:240,4212
FNA:240,0,_ZN4mlir7cpp2fir15PostconditionOp14getODSOperandsEj
FNL:241,4218
FNA:241,0,_ZN4mlir7cpp2fir15PostconditionOp12getConditionEv
FNL:242,4246
FNA:242,0,_ZN4mlir7cpp2fir15PostconditionOp14getMessageAttrEv
FNL:243,4251
FNA:243,0,_ZN4mlir7cpp2fir15PostconditionOp17getCategoriesAttrEv
FNL:244,4256
FNA:244,0,_ZN4mlir7cpp2fir15PostconditionOp12getAuditAttrEv
FNL:245,4320
FNA:245,0,_ZN4mlir7cpp2fir15PostconditionOp24getAttributeNameForIndexENS_13OperationNameEj
FNL:246,4332
FNA:246,19,_ZN4mlir6detail14TypeIDResolverINS_7cpp2fir15PostconditionOpEvE13resolveTypeIDEv
FNL:247,4344
FNA:247,0,_ZN4mlir7cpp2fir6detail32PreconditionOpGenericAdaptorBase10PropertiesC1Ev
FNA:247,0,_ZN4mlir7cpp2fir6detail32PreconditionOpGenericAdaptorBase10PropertiesC2Ev
FNL:248,4375
FNA:248,0,_ZNK4mlir7cpp2fir6detail32PreconditionOpGenericAdaptorBase10PropertieseqERKS3_
FNL:249,439
FNA:249,0,_ZN4mlir7cpp2fir19AndOpGenericAdaptorINS_10ValueRangeEEC2INS0_5AndOpEvEES2_T_
FNL:250,4402
FNA:250,0,_ZN4mlir7cpp2fir6detail32PreconditionOpGenericAdaptorBase13getPropertiesEv
FNL:251,4410
FNA:251,0,_ZN4mlir7cpp2fir6detail32PreconditionOpGenericAdaptorBase14getMessageAttrEv
FNL:252,4416
FNA:252,0,_ZN4mlir7cpp2fir6detail32PreconditionOpGenericAdaptorBase17getCategoriesAttrEv
FNL:253,4441
FNA:253,0,_ZN4mlir7cpp2fir28PreconditionOpGenericAdaptorINS_10ValueRangeEEC2INS0_14PreconditionOpEvEES2_T_
FNL:254,4473
FNA:254,0,_ZN4mlir7cpp2fir14PreconditionOpCI1NS_2OpIS1_JNS_7OpTrait11ZeroRegionsENS3_11ZeroResultsENS3_14ZeroSuccessorsENS3_10OneOperandENS3_12OpInvariantsENS_19BytecodeOpInterface5TraitEEEEEDn
FNA:254,0,_ZN4mlir7cpp2fir14PreconditionOpCI1NS_2OpIS1_JNS_7OpTrait11ZeroRegionsENS3_11ZeroResultsENS3_14ZeroSuccessorsENS3_10OneOperandENS3_12OpInvariantsENS_19BytecodeOpInterface5TraitEEEEEPNS_9OperationE
FNA:254,0,_ZN4mlir7cpp2fir14PreconditionOpCI2NS_2OpIS1_JNS_7OpTrait11ZeroRegionsENS3_11ZeroResultsENS3_14ZeroSuccessorsENS3_10OneOperandENS3_12OpInvariantsENS_19BytecodeOpInterface5TraitEEEEEDn
FNA:254,0,_ZN4mlir7cpp2fir14PreconditionOpCI2NS_2OpIS1_JNS_7OpTrait11ZeroRegionsENS3_11ZeroResultsENS3_14ZeroSuccessorsENS3_10OneOperandENS3_12OpInvariantsENS_19BytecodeOpInterface5TraitEEEEEPNS_9OperationE
FNL:255,4481
FNA:255,19,_ZN4mlir7cpp2fir14PreconditionOp17getAttributeNamesEv
FNL:256,4490
FNA:256,0,_ZN4mlir7cpp2fir14PreconditionOp16getAuditAttrNameENS_13OperationNameE
FNL:257,4498
FNA:257,0,_ZN4mlir7cpp2fir14PreconditionOp21getCategoriesAttrNameENS_13OperationNameE
FNL:258,4506
FNA:258,0,_ZN4mlir7cpp2fir14PreconditionOp18getMessageAttrNameENS_13OperationNameE
FNL:259,4510
FNA:259,19,_ZN4mlir7cpp2fir14PreconditionOp16getOperationNameEv
FNL:260,4514
FNA:260,0,_ZN4mlir7cpp2fir14PreconditionOp27getODSOperandIndexAndLengthEj
FNL:261,4518
FNA:261,0,_ZN4mlir7cpp2fir14PreconditionOp14getODSOperandsEj
FNL:262,4524
FNA:262,0,_ZN4mlir7cpp2fir14PreconditionOp12getConditionEv
FNL:263,4552
FNA:263,0,_ZN4mlir7cpp2fir14PreconditionOp14getMessageAttrEv
FNL:264,4557
FNA:264,0,_ZN4mlir7cpp2fir14PreconditionOp17getCategoriesAttrEv
FNL:265,4562
FNA:265,0,_ZN4mlir7cpp2fir14PreconditionOp12getAuditAttrEv
FNL:266,4626
FNA:266,0,_ZN4mlir7cpp2fir14PreconditionOp24getAttributeNameForIndexENS_13OperationNameEj
FNL:267,4638
FNA:267,19,_ZN4mlir6detail14TypeIDResolverINS_7cpp2fir14PreconditionOpEvE13resolveTypeIDEv
FNL:268,4650
FNA:268,0,_ZN4mlir7cpp2fir6detail24RecvOpGenericAdaptorBase10PropertiesC1Ev
FNA:268,0,_ZN4mlir7cpp2fir6detail24RecvOpGenericAdaptorBase10PropertiesC2Ev
FNL:269,4661
FNA:269,0,_ZNK4mlir7cpp2fir6detail24RecvOpGenericAdaptorBase10PropertieseqERKS3_
FNL:270,4686
FNA:270,0,_ZN4mlir7cpp2fir6detail24RecvOpGenericAdaptorBase13getPropertiesEv
FNL:271,4713
FNA:271,0,_ZN4mlir7cpp2fir20RecvOpGenericAdaptorINS_10ValueRangeEEC2INS0_6RecvOpEvEES2_T_
FNL:272,4745
FNA:272,0,_ZN4mlir7cpp2fir6RecvOpCI1NS_2OpIS1_JNS_7OpTrait11ZeroRegionsENS3_8NResultsILj2EE4ImplENS3_14ZeroSuccessorsENS3_10OneOperandENS3_12OpInvariantsENS_19BytecodeOpInterface5TraitENS_16OpAsmOpInterface5TraitEEEEEDn
FNA:272,0,_ZN4mlir7cpp2fir6RecvOpCI1NS_2OpIS1_JNS_7OpTrait11ZeroRegionsENS3_8NResultsILj2EE4ImplENS3_14ZeroSuccessorsENS3_10OneOperandENS3_12OpInvariantsENS_19BytecodeOpInterface5TraitENS_16OpAsmOpInterface5TraitEEEEEPNS_9OperationE
FNA:272,0,_ZN4mlir7cpp2fir6RecvOpCI2NS_2OpIS1_JNS_7OpTrait11ZeroRegionsENS3_8NResultsILj2EE4ImplENS3_14ZeroSuccessorsENS3_10OneOperandENS3_12OpInvariantsENS_19BytecodeOpInterface5TraitENS_16OpAsmOpInterface5TraitEEEEEDn
FNA:272,0,_ZN4mlir7cpp2fir6RecvOpCI2NS_2OpIS1_JNS_7OpTrait11ZeroRegionsENS3_8NResultsILj2EE4ImplENS3_14ZeroSuccessorsENS3_10OneOperandENS3_12OpInvariantsENS_19BytecodeOpInterface5TraitENS_16OpAsmOpInterface5TraitEEEEEPNS_9OperationE
FNL:273,475
FNA:273,0,_ZN4mlir7cpp2fir5AndOpCI1NS_2OpIS1_JNS_7OpTrait11ZeroRegionsENS3_9OneResultENS3_14OneTypedResultINS_4TypeEE4ImplENS3_14ZeroSuccessorsENS3_9NOperandsILj2EE4ImplENS3_12OpInvariantsENS_25ConditionallySpeculatable5TraitENS3_27AlwaysSpeculatableImplTraitENS_23MemoryEffectOpInterface5TraitEEEEEDn
FNA:273,10,_ZN4mlir7cpp2fir5AndOpCI1NS_2OpIS1_JNS_7OpTrait11ZeroRegionsENS3_9OneResultENS3_14OneTypedResultINS_4TypeEE4ImplENS3_14ZeroSuccessorsENS3_9NOperandsILj2EE4ImplENS3_12OpInvariantsENS_25ConditionallySpeculatable5TraitENS3_27AlwaysSpeculatableImplTraitENS_23MemoryEffectOpInterface5TraitEEEEEPNS_9OperationE
FNA:273,0,_ZN4mlir7cpp2fir5AndOpCI2NS_2OpIS1_JNS_7OpTrait11ZeroRegionsENS3_9OneResultENS3_14OneTypedResultINS_4TypeEE4ImplENS3_14ZeroSuccessorsENS3_9NOperandsILj2EE4ImplENS3_12OpInvariantsENS_25ConditionallySpeculatable5TraitENS3_27AlwaysSpeculatableImplTraitENS_23MemoryEffectOpInterface5TraitEEEEEDn
FNA:273,10,_ZN4mlir7cpp2fir5AndOpCI2NS_2OpIS1_JNS_7OpTrait11ZeroRegionsENS3_9OneResultENS3_14OneTypedResultINS_4TypeEE4ImplENS3_14ZeroSuccessorsENS3_9NOperandsILj2EE4ImplENS3_12OpInvariantsENS_25ConditionallySpeculatable5TraitENS3_27AlwaysSpeculatableImplTraitENS_23MemoryEffectOpInterface5TraitEEEEEPNS_9OperationE
FNL:274,4753
FNA:274,19,_ZN4mlir7cpp2fir6RecvOp17getAttributeNamesEv
FNL:275,4762
FNA:275,0,_ZN4mlir7cpp2fir6RecvOp22getNonBlockingAttrNameENS_13OperationNameE
FNL:276,4767
FNA:276,19,_ZN4mlir7cpp2fir6RecvOp16getOperationNameEv
FNL:277,4771
FNA:277,0,_ZN4mlir7cpp2fir6RecvOp27getODSOperandIndexAndLengthEj
FNL:278,4775
FNA:278,0,_ZN4mlir7cpp2fir6RecvOp14getODSOperandsEj
FNL:279,4781
FNA:279,0,_ZN4mlir7cpp2fir6RecvOp10getChannelEv
FNL:280,4790
FNA:280,0,_ZN4mlir7cpp2fir6RecvOp26getODSResultIndexAndLengthEj
FNL:281,4794
FNA:281,0,_ZN4mlir7cpp2fir6RecvOp13getODSResultsEj
FNL:282,4800
FNA:282,0,_ZN4mlir7cpp2fir6RecvOp8getValueEv
FNL:283,4804
FNA:283,0,_ZN4mlir7cpp2fir6RecvOp10getSuccessEv
FNL:284,4817
FNA:284,0,_ZN4mlir7cpp2fir6RecvOp18getNonBlockingAttrEv
FNL:285,484
FNA:285,19,_ZN4mlir7cpp2fir5AndOp17getAttributeNamesEv
FNL:286,4860
FNA:286,0,_ZN4mlir7cpp2fir6RecvOp24getAttributeNameForIndexENS_13OperationNameEj
FNL:287,4872
FNA:287,19,_ZN4mlir6detail14TypeIDResolverINS_7cpp2fir6RecvOpEvE13resolveTypeIDEv
FNL:288,488
FNA:288,19,_ZN4mlir7cpp2fir5AndOp16getOperationNameEv
FNL:289,492
FNA:289,12,_ZN4mlir7cpp2fir5AndOp27getODSOperandIndexAndLengthEj
FNL:290,4923
FNA:290,0,_ZN4mlir7cpp2fir22ReturnOpGenericAdaptorINS_10ValueRangeEEC2INS0_8ReturnOpEvEES2_T_
FNL:291,4951
FNA:291,0,_ZN4mlir7cpp2fir8ReturnOpCI1NS_2OpIS1_JNS_7OpTrait11ZeroRegionsENS3_11ZeroResultsENS3_14ZeroSuccessorsENS3_16VariadicOperandsENS3_12OpInvariantsENS3_12IsTerminatorENS_33RegionBranchTerminatorOpInterface5TraitENS3_10ReturnLikeEEEEEDn
FNA:291,114,_ZN4mlir7cpp2fir8ReturnOpCI1NS_2OpIS1_JNS_7OpTrait11ZeroRegionsENS3_11ZeroResultsENS3_14ZeroSuccessorsENS3_16VariadicOperandsENS3_12OpInvariantsENS3_12IsTerminatorENS_33RegionBranchTerminatorOpInterface5TraitENS3_10ReturnLikeEEEEEPNS_9OperationE
FNA:291,0,_ZN4mlir7cpp2fir8ReturnOpCI2NS_2OpIS1_JNS_7OpTrait11ZeroRegionsENS3_11ZeroResultsENS3_14ZeroSuccessorsENS3_16VariadicOperandsENS3_12OpInvariantsENS3_12IsTerminatorENS_33RegionBranchTerminatorOpInterface5TraitENS3_10ReturnLikeEEEEEDn
FNA:291,114,_ZN4mlir7cpp2fir8ReturnOpCI2NS_2OpIS1_JNS_7OpTrait11ZeroRegionsENS3_11ZeroResultsENS3_14ZeroSuccessorsENS3_16VariadicOperandsENS3_12OpInvariantsENS3_12IsTerminatorENS_33RegionBranchTerminatorOpInterface5TraitENS3_10ReturnLikeEEEEEPNS_9OperationE
FNL:292,4959
FNA:292,19,_ZN4mlir7cpp2fir8ReturnOp17getAttributeNamesEv
FNL:293,496
FNA:293,12,_ZN4mlir7cpp2fir5AndOp14getODSOperandsEj
FNL:294,4963
FNA:294,19,_ZN4mlir7cpp2fir8ReturnOp16getOperationNameEv
FNL:295,4968
FNA:295,90,_ZN4mlir7cpp2fir8ReturnOp14getODSOperandsEj
FNL:296,4974
FNA:296,66,_ZN4mlir7cpp2fir8ReturnOp11getOperandsEv
FNL:297,5014
FNA:297,153,_ZN4mlir6detail14TypeIDResolverINS_7cpp2fir8ReturnOpEvE13resolveTypeIDEv
FNL:298,502
FNA:298,4,_ZN4mlir7cpp2fir5AndOp6getLhsEv
FNL:299,506
FNA:299,4,_ZN4mlir7cpp2fir5AndOp6getRhsEv
FNL:300,5069
FNA:300,0,_ZN4mlir7cpp2fir20SendOpGenericAdaptorINS_10ValueRangeEEC2INS0_6SendOpEvEES2_T_
FNL:301,5105
FNA:301,0,_ZN4mlir7cpp2fir6SendOpCI1NS_2OpIS1_JNS_7OpTrait11ZeroRegionsENS3_11ZeroResultsENS3_14ZeroSuccessorsENS3_9NOperandsILj2EE4ImplENS3_12OpInvariantsEEEEEDn
FNA:301,0,_ZN4mlir7cpp2fir6SendOpCI1NS_2OpIS1_JNS_7OpTrait11ZeroRegionsENS3_11ZeroResultsENS3_14ZeroSuccessorsENS3_9NOperandsILj2EE4ImplENS3_12OpInvariantsEEEEEPNS_9OperationE
FNA:301,0,_ZN4mlir7cpp2fir6SendOpCI2NS_2OpIS1_JNS_7OpTrait11ZeroRegionsENS3_11ZeroResultsENS3_14ZeroSuccessorsENS3_9NOperandsILj2EE4ImplENS3_12OpInvariantsEEEEEDn
FNA:301,0,_ZN4mlir7cpp2fir6SendOpCI2NS_2OpIS1_JNS_7OpTrait11ZeroRegionsENS3_11ZeroResultsENS3_14ZeroSuccessorsENS3_9NOperandsILj2EE4ImplENS3_12OpInvariantsEEEEEPNS_9OperationE
FNL:302,5114
FNA:302,19,_ZN4mlir7cpp2fir6SendOp17getAttributeNamesEv
FNL:303,5118
FNA:303,19,_ZN4mlir7cpp2fir6SendOp16getOperationNameEv
FNL:304,5122
FNA:304,0,_ZN4mlir7cpp2fir6SendOp27getODSOperandIndexAndLengthEj
FNL:305,5126
FNA:305,0,_ZN4mlir7cpp2fir6SendOp14getODSOperandsEj
FNL:306,5132
FNA:306,0,_ZN4mlir7cpp2fir6SendOp10getChannelEv
FNL:307,5136
FNA:307,0,_ZN4mlir7cpp2fir6SendOp8getValueEv
FNL:308,5187
FNA:308,19,_ZN4mlir6detail14TypeIDResolverINS_7cpp2fir6SendOpEvE13resolveTypeIDEv
FNL:309,5199
FNA:309,0,_ZN4mlir7cpp2fir6detail25SpawnOpGenericAdaptorBase10PropertiesC1Ev
FNA:309,0,_ZN4mlir7cpp2fir6detail25SpawnOpGenericAdaptorBase10PropertiesC2Ev
FNL:310,520
FNA:310,6,_ZN4mlir7cpp2fir5AndOp26getODSResultIndexAndLengthEj
FNL:311,5210
FNA:311,0,_ZNK4mlir7cpp2fir6detail25SpawnOpGenericAdaptorBase10PropertieseqERKS3_
FNL:312,5235
FNA:312,0,_ZN4mlir7cpp2fir6detail25SpawnOpGenericAdaptorBase13getPropertiesEv
FNL:313,524
FNA:313,6,_ZN4mlir7cpp2fir5AndOp13getODSResultsEj
FNL:314,5243
FNA:314,0,_ZN4mlir7cpp2fir6detail25SpawnOpGenericAdaptorBase20getResultChannelAttrEv
FNL:315,5266
FNA:315,0,_ZN4mlir7cpp2fir21SpawnOpGenericAdaptorINS_10ValueRangeEEC2INS0_7SpawnOpEvEES2_T_
FNL:316,5298
FNA:316,0,_ZN4mlir7cpp2fir7SpawnOpCI1NS_2OpIS1_JNS_7OpTrait11ZeroRegionsENS3_9OneResultENS3_14OneTypedResultINS_4TypeEE4ImplENS3_14ZeroSuccessorsENS3_10OneOperandENS3_12OpInvariantsENS_19BytecodeOpInterface5TraitEEEEEDn
FNA:316,0,_ZN4mlir7cpp2fir7SpawnOpCI1NS_2OpIS1_JNS_7OpTrait11ZeroRegionsENS3_9OneResultENS3_14OneTypedResultINS_4TypeEE4ImplENS3_14ZeroSuccessorsENS3_10OneOperandENS3_12OpInvariantsENS_19BytecodeOpInterface5TraitEEEEEPNS_9OperationE
FNA:316,0,_ZN4mlir7cpp2fir7SpawnOpCI2NS_2OpIS1_JNS_7OpTrait11ZeroRegionsENS3_9OneResultENS3_14OneTypedResultINS_4TypeEE4ImplENS3_14ZeroSuccessorsENS3_10OneOperandENS3_12OpInvariantsENS_19BytecodeOpInterface5TraitEEEEEDn
FNA:316,0,_ZN4mlir7cpp2fir7SpawnOpCI2NS_2OpIS1_JNS_7OpTrait11ZeroRegionsENS3_9OneResultENS3_14OneTypedResultINS_4TypeEE4ImplENS3_14ZeroSuccessorsENS3_10OneOperandENS3_12OpInvariantsENS_19BytecodeOpInterface5TraitEEEEEPNS_9OperationE
FNL:317,530
FNA:317,4,_ZN4mlir7cpp2fir5AndOp9getResultEv
FNL:318,5306
FNA:318,19,_ZN4mlir7cpp2fir7SpawnOp17getAttributeNamesEv
FNL:319,5315
FNA:319,0,_ZN4mlir7cpp2fir7SpawnOp24getResultChannelAttrNameENS_13OperationNameE
FNL:320,5319
FNA:320,19,_ZN4mlir7cpp2fir7SpawnOp16getOperationNameEv
FNL:321,5323
FNA:321,0,_ZN4mlir7cpp2fir7SpawnOp27getODSOperandIndexAndLengthEj
FNL:322,5327
FNA:322,0,_ZN4mlir7cpp2fir7SpawnOp14getODSOperandsEj
FNL:323,5333
FNA:323,0,_ZN4mlir7cpp2fir7SpawnOp7getTaskEv
FNL:324,5342
FNA:324,0,_ZN4mlir7cpp2fir7SpawnOp26getODSResultIndexAndLengthEj
FNL:325,5346
FNA:325,0,_ZN4mlir7cpp2fir7SpawnOp13getODSResultsEj
FNL:326,5352
FNA:326,0,_ZN4mlir7cpp2fir7SpawnOp9getFutureEv
FNL:327,5365
FNA:327,0,_ZN4mlir7cpp2fir7SpawnOp20getResultChannelAttrEv
FNL:328,5402
FNA:328,0,_ZN4mlir7cpp2fir7SpawnOp24getAttributeNameForIndexENS_13OperationNameEj
FNL:329,5414
FNA:329,19,_ZN4mlir6detail14TypeIDResolverINS_7cpp2fir7SpawnOpEvE13resolveTypeIDEv
FNL:330,5469
FNA:330,0,_ZN4mlir7cpp2fir19SubOpGenericAdaptorINS_10ValueRangeEEC2INS0_5SubOpEvEES2_T_
FNL:331,5505
FNA:331,0,_ZN4mlir7cpp2fir5SubOpCI1NS_2OpIS1_JNS_7OpTrait11ZeroRegionsENS3_9OneResultENS3_14OneTypedResultINS_4TypeEE4ImplENS3_14ZeroSuccessorsENS3_9NOperandsILj2EE4ImplENS3_12OpInvariantsENS_25ConditionallySpeculatable5TraitENS3_27AlwaysSpeculatableImplTraitENS_23MemoryEffectOpInterface5TraitEEEEEDn
FNA:331,7,_ZN4mlir7cpp2fir5SubOpCI1NS_2OpIS1_JNS_7OpTrait11ZeroRegionsENS3_9OneResultENS3_14OneTypedResultINS_4TypeEE4ImplENS3_14ZeroSuccessorsENS3_9NOperandsILj2EE4ImplENS3_12OpInvariantsENS_25ConditionallySpeculatable5TraitENS3_27AlwaysSpeculatableImplTraitENS_23MemoryEffectOpInterface5TraitEEEEEPNS_9OperationE
FNA:331,0,_ZN4mlir7cpp2fir5SubOpCI2NS_2OpIS1_JNS_7OpTrait11ZeroRegionsENS3_9OneResultENS3_14OneTypedResultINS_4TypeEE4ImplENS3_14ZeroSuccessorsENS3_9NOperandsILj2EE4ImplENS3_12OpInvariantsENS_25ConditionallySpeculatable5TraitENS3_27AlwaysSpeculatableImplTraitENS_23MemoryEffectOpInterface5TraitEEEEEDn
FNA:331,7,_ZN4mlir7cpp2fir5SubOpCI2NS_2OpIS1_JNS_7OpTrait11ZeroRegionsENS3_9OneResultENS3_14OneTypedResultINS_4TypeEE4ImplENS3_14ZeroSuccessorsENS3_9NOperandsILj2EE4ImplENS3_12OpInvariantsENS_25ConditionallySpeculatable5TraitENS3_27AlwaysSpeculatableImplTraitENS_23MemoryEffectOpInterface5TraitEEEEEPNS_9OperationE
FNL:332,5514
FNA:332,19,_ZN4mlir7cpp2fir5SubOp17getAttributeNamesEv
FNL:333,5518
FNA:333,19,_ZN4mlir7cpp2fir5SubOp16getOperationNameEv
FNL:334,5522
FNA:334,10,_ZN4mlir7cpp2fir5SubOp27getODSOperandIndexAndLengthEj
FNL:335,5526
FNA:335,10,_ZN4mlir7cpp2fir5SubOp14getODSOperandsEj
FNL:336,5532
FNA:336,4,_ZN4mlir7cpp2fir5SubOp6getLhsEv
FNL:337,5536
FNA:337,4,_ZN4mlir7cpp2fir5SubOp6getRhsEv
FNL:338,5550
FNA:338,5,_ZN4mlir7cpp2fir5SubOp26getODSResultIndexAndLengthEj
FNL:339,5554
FNA:339,5,_ZN4mlir7cpp2fir5SubOp13getODSResultsEj
FNL:340,5560
FNA:340,4,_ZN4mlir7cpp2fir5SubOp9getResultEv
FNL:341,5592
FNA:341,33,_ZN4mlir6detail14TypeIDResolverINS_7cpp2fir5SubOpEvE13resolveTypeIDEv
FNL:342,562
FNA:342,34,_ZN4mlir6detail14TypeIDResolverINS_7cpp2fir5AndOpEvE13resolveTypeIDEv
FNL:343,5643
FNA:343,0,_ZN4mlir7cpp2fir24UfcsCallOpGenericAdaptorINS_10ValueRangeEEC2INS0_10UfcsCallOpEvEES2_T_
FNL:344,5675
FNA:344,0,_ZN4mlir7cpp2fir10UfcsCallOpCI1NS_2OpIS1_JNS_7OpTrait11ZeroRegionsENS3_9OneResultENS3_14OneTypedResultINS_4TypeEE4ImplENS3_14ZeroSuccessorsENS3_16VariadicOperandsENS3_12OpInvariantsEEEEEDn
FNA:344,0,_ZN4mlir7cpp2fir10UfcsCallOpCI1NS_2OpIS1_JNS_7OpTrait11ZeroRegionsENS3_9OneResultENS3_14OneTypedResultINS_4TypeEE4ImplENS3_14ZeroSuccessorsENS3_16VariadicOperandsENS3_12OpInvariantsEEEEEPNS_9OperationE
FNA:344,0,_ZN4mlir7cpp2fir10UfcsCallOpCI2NS_2OpIS1_JNS_7OpTrait11ZeroRegionsENS3_9OneResultENS3_14OneTypedResultINS_4TypeEE4ImplENS3_14ZeroSuccessorsENS3_16VariadicOperandsENS3_12OpInvariantsEEEEEDn
FNA:344,0,_ZN4mlir7cpp2fir10UfcsCallOpCI2NS_2OpIS1_JNS_7OpTrait11ZeroRegionsENS3_9OneResultENS3_14OneTypedResultINS_4TypeEE4ImplENS3_14ZeroSuccessorsENS3_16VariadicOperandsENS3_12OpInvariantsEEEEEPNS_9OperationE
FNL:345,5683
FNA:345,19,_ZN4mlir7cpp2fir10UfcsCallOp17getAttributeNamesEv
FNL:346,5687
FNA:346,19,_ZN4mlir7cpp2fir10UfcsCallOp16getOperationNameEv
FNL:347,5692
FNA:347,0,_ZN4mlir7cpp2fir10UfcsCallOp14getODSOperandsEj
FNL:348,5698
FNA:348,0,_ZN4mlir7cpp2fir10UfcsCallOp7getArgsEv
FNL:349,5703
FNA:349,0,_ZN4mlir7cpp2fir10UfcsCallOp26getODSResultIndexAndLengthEj
FNL:350,5707
FNA:350,0,_ZN4mlir7cpp2fir10UfcsCallOp13getODSResultsEj
FNL:351,5713
FNA:351,0,_ZN4mlir7cpp2fir10UfcsCallOp9getResultEv
FNL:352,574
FNA:352,0,_ZN4mlir7cpp2fir6detail26AssertOpGenericAdaptorBase10PropertiesC1Ev
FNA:352,0,_ZN4mlir7cpp2fir6detail26AssertOpGenericAdaptorBase10PropertiesC2Ev
FNL:353,5741
FNA:353,19,_ZN4mlir6detail14TypeIDResolverINS_7cpp2fir10UfcsCallOpEvE13resolveTypeIDEv
FNL:354,605
FNA:354,0,_ZNK4mlir7cpp2fir6detail26AssertOpGenericAdaptorBase10PropertieseqERKS3_
FNL:355,632
FNA:355,0,_ZN4mlir7cpp2fir6detail26AssertOpGenericAdaptorBase13getPropertiesEv
FNL:356,640
FNA:356,0,_ZN4mlir7cpp2fir6detail26AssertOpGenericAdaptorBase14getMessageAttrEv
FNL:357,646
FNA:357,0,_ZN4mlir7cpp2fir6detail26AssertOpGenericAdaptorBase17getCategoriesAttrEv
FNL:358,671
FNA:358,0,_ZN4mlir7cpp2fir22AssertOpGenericAdaptorINS_10ValueRangeEEC2INS0_8AssertOpEvEES2_T_
FNL:359,703
FNA:359,0,_ZN4mlir7cpp2fir8AssertOpCI1NS_2OpIS1_JNS_7OpTrait11ZeroRegionsENS3_11ZeroResultsENS3_14ZeroSuccessorsENS3_10OneOperandENS3_12OpInvariantsENS_19BytecodeOpInterface5TraitEEEEEDn
FNA:359,0,_ZN4mlir7cpp2fir8AssertOpCI1NS_2OpIS1_JNS_7OpTrait11ZeroRegionsENS3_11ZeroResultsENS3_14ZeroSuccessorsENS3_10OneOperandENS3_12OpInvariantsENS_19BytecodeOpInterface5TraitEEEEEPNS_9OperationE
FNA:359,0,_ZN4mlir7cpp2fir8AssertOpCI2NS_2OpIS1_JNS_7OpTrait11ZeroRegionsENS3_11ZeroResultsENS3_14ZeroSuccessorsENS3_10OneOperandENS3_12OpInvariantsENS_19BytecodeOpInterface5TraitEEEEEDn
FNA:359,0,_ZN4mlir7cpp2fir8AssertOpCI2NS_2OpIS1_JNS_7OpTrait11ZeroRegionsENS3_11ZeroResultsENS3_14ZeroSuccessorsENS3_10OneOperandENS3_12OpInvariantsENS_19BytecodeOpInterface5TraitEEEEEPNS_9OperationE
FNL:360,711
FNA:360,19,_ZN4mlir7cpp2fir8AssertOp17getAttributeNamesEv
FNL:361,720
FNA:361,0,_ZN4mlir7cpp2fir8AssertOp16getAuditAttrNameENS_13OperationNameE
FNL:362,728
FNA:362,0,_ZN4mlir7cpp2fir8AssertOp21getCategoriesAttrNameENS_13OperationNameE
FNL:363,736
FNA:363,0,_ZN4mlir7cpp2fir8AssertOp18getMessageAttrNameENS_13OperationNameE
FNL:364,740
FNA:364,19,_ZN4mlir7cpp2fir8AssertOp16getOperationNameEv
FNL:365,744
FNA:365,0,_ZN4mlir7cpp2fir8AssertOp27getODSOperandIndexAndLengthEj
FNL:366,748
FNA:366,0,_ZN4mlir7cpp2fir8AssertOp14getODSOperandsEj
FNL:367,754
FNA:367,0,_ZN4mlir7cpp2fir8AssertOp12getConditionEv
FNL:368,782
FNA:368,0,_ZN4mlir7cpp2fir8AssertOp14getMessageAttrEv
FNL:369,787
FNA:369,0,_ZN4mlir7cpp2fir8AssertOp17getCategoriesAttrEv
FNL:370,792
FNA:370,0,_ZN4mlir7cpp2fir8AssertOp12getAuditAttrEv
FNL:371,856
FNA:371,0,_ZN4mlir7cpp2fir8AssertOp24getAttributeNameForIndexENS_13OperationNameEj
FNL:372,868
FNA:372,19,_ZN4mlir6detail14TypeIDResolverINS_7cpp2fir8AssertOpEvE13resolveTypeIDEv
FNL:373,880
FNA:373,0,_ZN4mlir7cpp2fir6detail25AwaitOpGenericAdaptorBase10PropertiesC1Ev
FNA:373,0,_ZN4mlir7cpp2fir6detail25AwaitOpGenericAdaptorBase10PropertiesC2Ev
FNL:374,891
FNA:374,0,_ZNK4mlir7cpp2fir6detail25AwaitOpGenericAdaptorBase10PropertieseqERKS3_
FNL:375,916
FNA:375,0,_ZN4mlir7cpp2fir6detail25AwaitOpGenericAdaptorBase13getPropertiesEv
FNL:376,924
FNA:376,0,_ZN4mlir7cpp2fir6detail25AwaitOpGenericAdaptorBase20getSourceChannelAttrEv
FNL:377,947
FNA:377,0,_ZN4mlir7cpp2fir21AwaitOpGenericAdaptorINS_10ValueRangeEEC2INS0_7AwaitOpEvEES2_T_
FNL:378,979
FNA:378,0,_ZN4mlir7cpp2fir7AwaitOpCI1NS_2OpIS1_JNS_7OpTrait11ZeroRegionsENS3_9OneResultENS3_14OneTypedResultINS_4TypeEE4ImplENS3_14ZeroSuccessorsENS3_10OneOperandENS3_12OpInvariantsENS_19BytecodeOpInterface5TraitEEEEEDn
FNA:378,0,_ZN4mlir7cpp2fir7AwaitOpCI1NS_2OpIS1_JNS_7OpTrait11ZeroRegionsENS3_9OneResultENS3_14OneTypedResultINS_4TypeEE4ImplENS3_14ZeroSuccessorsENS3_10OneOperandENS3_12OpInvariantsENS_19BytecodeOpInterface5TraitEEEEEPNS_9OperationE
FNA:378,0,_ZN4mlir7cpp2fir7AwaitOpCI2NS_2OpIS1_JNS_7OpTrait11ZeroRegionsENS3_9OneResultENS3_14OneTypedResultINS_4TypeEE4ImplENS3_14ZeroSuccessorsENS3_10OneOperandENS3_12OpInvariantsENS_19BytecodeOpInterface5TraitEEEEEDn
FNA:378,0,_ZN4mlir7cpp2fir7AwaitOpCI2NS_2OpIS1_JNS_7OpTrait11ZeroRegionsENS3_9OneResultENS3_14OneTypedResultINS_4TypeEE4ImplENS3_14ZeroSuccessorsENS3_10OneOperandENS3_12OpInvariantsENS_19BytecodeOpInterface5TraitEEEEEPNS_9OperationE
FNL:379,987
FNA:379,19,_ZN4mlir7cpp2fir7AwaitOp17getAttributeNamesEv
FNL:380,996
FNA:380,0,_ZN4mlir7cpp2fir7AwaitOp24getSourceChannelAttrNameENS_13OperationNameE
FNF:381
FNH:152
DA:261,0
DA:306,19
DA:307,19
DA:310,19
DA:311,19
DA:314,44
DA:315,44
DA:318,44
DA:319,44
DA:320,88
DA:321,44
DA:324,16
DA:325,16
DA:328,16
DA:329,16
DA:342,17
DA:343,17
DA:346,17
DA:347,17
DA:348,34
DA:349,17
DA:352,11
DA:353,11
DA:384,57
DA:439,0
DA:484,19
DA:485,19
DA:488,19
DA:489,19
DA:492,12
DA:493,12
DA:496,12
DA:497,12
DA:498,24
DA:499,12
DA:502,4
DA:503,4
DA:506,4
DA:507,4
DA:520,6
DA:521,6
DA:524,6
DA:525,6
DA:526,12
DA:527,6
DA:530,4
DA:531,4
DA:562,34
DA:605,0
DA:606,0
DA:607,0
DA:608,0
DA:609,0
DA:632,0
DA:633,0
DA:640,0
DA:641,0
DA:642,0
DA:646,0
DA:647,0
DA:648,0
DA:671,0
DA:711,19
DA:713,19
DA:720,0
DA:721,0
DA:728,0
DA:729,0
DA:736,0
DA:737,0
DA:740,19
DA:741,19
DA:744,0
DA:745,0
DA:748,0
DA:749,0
DA:750,0
DA:751,0
DA:754,0
DA:755,0
DA:782,0
DA:783,0
DA:787,0
DA:788,0
DA:792,0
DA:793,0
DA:856,0
DA:857,0
DA:858,0
DA:859,0
DA:861,0
DA:868,19
DA:891,0
DA:892,0
DA:893,0
DA:916,0
DA:917,0
DA:924,0
DA:925,0
DA:926,0
DA:947,0
DA:987,19
DA:989,19
DA:996,0
DA:997,0
DA:1000,19
DA:1001,19
DA:1004,0
DA:1005,0
DA:1008,0
DA:1009,0
DA:1010,0
DA:1011,0
DA:1014,0
DA:1015,0
DA:1023,0
DA:1024,0
DA:1027,0
DA:1028,0
DA:1029,0
DA:1030,0
DA:1033,0
DA:1034,0
DA:1046,0
DA:1047,0
DA:1083,0
DA:1084,0
DA:1085,0
DA:1086,0
DA:1088,0
DA:1095,19
DA:1128,0
DA:1129,0
DA:1130,0
DA:1131,0
DA:1154,0
DA:1155,0
DA:1162,0
DA:1163,0
DA:1164,0
DA:1168,0
DA:1169,0
DA:1170,0
DA:1190,0
DA:1225,19
DA:1227,19
DA:1234,0
DA:1235,0
DA:1242,0
DA:1243,0
DA:1246,19
DA:1247,19
DA:1260,0
DA:1261,0
DA:1264,0
DA:1265,0
DA:1266,0
DA:1267,0
DA:1270,0
DA:1271,0
DA:1283,0
DA:1284,0
DA:1288,0
DA:1289,0
DA:1336,0
DA:1337,0
DA:1338,0
DA:1339,0
DA:1341,0
DA:1348,19
DA:1371,0
DA:1372,0
DA:1373,0
DA:1396,0
DA:1397,0
DA:1404,0
DA:1405,0
DA:1406,0
DA:1428,0
DA:1473,19
DA:1475,19
DA:1482,0
DA:1483,0
DA:1486,19
DA:1487,19
DA:1490,10
DA:1491,10
DA:1494,10
DA:1495,10
DA:1496,20
DA:1497,10
DA:1500,4
DA:1501,4
DA:1504,4
DA:1505,4
DA:1518,5
DA:1519,5
DA:1522,5
DA:1523,5
DA:1524,10
DA:1525,5
DA:1528,4
DA:1529,4
DA:1541,3
DA:1542,3
DA:1579,0
DA:1580,0
DA:1581,0
DA:1582,0
DA:1584,0
DA:1591,32
DA:1614,0
DA:1615,0
DA:1616,0
DA:1639,0
DA:1640,0
DA:1647,0
DA:1648,0
DA:1649,0
DA:1669,0
DA:1704,19
DA:1706,19
DA:1713,0
DA:1714,0
DA:1717,19
DA:1718,19
DA:1731,92
DA:1732,92
DA:1735,92
DA:1736,92
DA:1737,184
DA:1738,92
DA:1741,41
DA:1742,41
DA:1754,107
DA:1755,107
DA:1786,0
DA:1787,0
DA:1788,0
DA:1789,0
DA:1791,0
DA:1798,486
DA:1859,0
DA:1894,19
DA:1895,19
DA:1898,19
DA:1899,19
DA:1922,0
DA:1923,0
DA:1953,19
DA:2008,0
DA:2053,19
DA:2054,19
DA:2057,19
DA:2058,19
DA:2061,10
DA:2062,10
DA:2065,10
DA:2066,10
DA:2067,20
DA:2068,10
DA:2071,4
DA:2072,4
DA:2075,4
DA:2076,4
DA:2089,4
DA:2090,4
DA:2093,4
DA:2094,4
DA:2095,8
DA:2096,4
DA:2099,3
DA:2100,3
DA:2131,29
DA:2184,0
DA:2185,0
DA:2186,0
DA:2187,0
DA:2188,0
DA:2189,0
DA:2212,0
DA:2213,0
DA:2220,0
DA:2221,0
DA:2222,0
DA:2226,0
DA:2227,0
DA:2228,0
DA:2232,0
DA:2233,0
DA:2234,0
DA:2238,0
DA:2239,0
DA:2240,0
DA:2268,0
DA:2303,19
DA:2305,19
DA:2312,0
DA:2313,0
DA:2320,0
DA:2321,0
DA:2328,0
DA:2329,0
DA:2336,0
DA:2337,0
DA:2340,19
DA:2341,19
DA:2364,37
DA:2365,37
DA:2377,22
DA:2378,22
DA:2382,88
DA:2383,88
DA:2387,28
DA:2388,28
DA:2392,24
DA:2393,24
DA:2402,0
DA:2403,0
DA:2404,0
DA:2407,0
DA:2408,0
DA:2409,0
DA:2411,0
DA:2412,0
DA:2413,0
DA:2415,0
DA:2416,0
DA:2417,0
DA:2418,0
DA:2421,0
DA:2422,0
DA:2423,0
DA:2424,0
DA:2454,0
DA:2455,0
DA:2456,0
DA:2457,0
DA:2459,0
DA:2464,0
DA:2465,64
DA:2466,0
DA:2471,345
DA:2524,0
DA:2525,0
DA:2526,0
DA:2527,0
DA:2528,0
DA:2529,0
DA:2552,0
DA:2553,0
DA:2560,0
DA:2561,0
DA:2562,0
DA:2566,0
DA:2567,0
DA:2568,0
DA:2572,0
DA:2573,0
DA:2574,0
DA:2578,0
DA:2579,0
DA:2580,0
DA:2608,0
DA:2643,19
DA:2645,19
DA:2652,0
DA:2653,0
DA:2660,0
DA:2661,0
DA:2668,0
DA:2669,0
DA:2676,0
DA:2677,0
DA:2680,19
DA:2681,19
DA:2704,0
DA:2705,0
DA:2717,0
DA:2718,0
DA:2722,0
DA:2723,0
DA:2727,0
DA:2728,0
DA:2732,0
DA:2733,0
DA:2796,0
DA:2797,0
DA:2798,0
DA:2799,0
DA:2801,0
DA:2808,19
DA:2851,0
DA:2852,0
DA:2853,0
DA:2854,0
DA:2855,0
DA:2878,0
DA:2879,0
DA:2886,0
DA:2887,0
DA:2888,0
DA:2892,0
DA:2893,0
DA:2894,0
DA:2916,0
DA:2951,19
DA:2953,19
DA:2960,0
DA:2961,0
DA:2968,0
DA:2969,0
DA:2976,0
DA:2977,0
DA:2980,19
DA:2981,19
DA:2994,0
DA:2995,0
DA:2998,0
DA:2999,0
DA:3000,0
DA:3001,0
DA:3004,0
DA:3005,0
DA:3017,0
DA:3018,0
DA:3022,0
DA:3023,0
DA:3027,0
DA:3028,0
DA:3080,0
DA:3081,0
DA:3082,0
DA:3083,0
DA:3085,0
DA:3092,19
DA:3147,0
DA:3192,19
DA:3193,19
DA:3196,19
DA:3197,19
DA:3200,22
DA:3201,22
DA:3204,22
DA:3205,22
DA:3206,44
DA:3207,22
DA:3210,8
DA:3211,8
DA:3214,8
DA:3215,8
DA:3228,10
DA:3229,10
DA:3232,10
DA:3233,10
DA:3234,20
DA:3235,10
DA:3238,7
DA:3239,7
DA:3270,42
DA:3324,0
DA:3364,19
DA:3365,19
DA:3368,19
DA:3369,19
DA:3372,0
DA:3373,0
DA:3376,0
DA:3377,0
DA:3378,0
DA:3379,0
DA:3382,0
DA:3383,0
DA:3391,0
DA:3392,0
DA:3395,0
DA:3396,0
DA:3397,0
DA:3398,0
DA:3401,0
DA:3402,0
DA:3433,24
DA:3488,0
DA:3533,19
DA:3534,19
DA:3537,19
DA:3538,19
DA:3541,10
DA:3542,10
DA:3545,10
DA:3546,10
DA:3547,20
DA:3548,10
DA:3551,4
DA:3552,4
DA:3555,4
DA:3556,4
DA:3569,4
DA:3570,4
DA:3573,4
DA:3574,4
DA:3575,8
DA:3576,4
DA:3579,3
DA:3580,3
DA:3611,28
DA:3634,0
DA:3635,0
DA:3636,0
DA:3659,0
DA:3660,0
DA:3667,0
DA:3668,0
DA:3669,0
DA:3700,0
DA:3750,19
DA:3752,19
DA:3759,0
DA:3760,0
DA:3763,19
DA:3764,19
DA:3767,0
DA:3768,0
DA:3771,0
DA:3772,0
DA:3773,0
DA:3774,0
DA:3777,0
DA:3778,0
DA:3781,0
DA:3782,0
DA:3785,0
DA:3786,0
DA:3814,0
DA:3815,0
DA:3827,0
DA:3828,0
DA:3864,0
DA:3865,0
DA:3866,0
DA:3867,0
DA:3869,0
DA:3876,19
DA:3927,0
DA:3967,19
DA:3968,19
DA:3971,19
DA:3972,19
DA:3976,0
DA:3977,0
DA:3978,0
DA:3979,0
DA:3982,0
DA:3983,0
DA:3987,1
DA:3988,1
DA:3991,1
DA:3992,1
DA:3993,2
DA:3994,1
DA:3997,1
DA:3998,1
DA:4026,27
DA:4069,0
DA:4070,0
DA:4071,0
DA:4072,0
DA:4073,0
DA:4096,0
DA:4097,0
DA:4104,0
DA:4105,0
DA:4106,0
DA:4110,0
DA:4111,0
DA:4112,0
DA:4135,0
DA:4175,19
DA:4177,19
DA:4184,0
DA:4185,0
DA:4192,0
DA:4193,0
DA:4200,0
DA:4201,0
DA:4204,19
DA:4205,19
DA:4208,0
DA:4209,0
DA:4212,0
DA:4213,0
DA:4214,0
DA:4215,0
DA:4218,0
DA:4219,0
DA:4246,0
DA:4247,0
DA:4251,0
DA:4252,0
DA:4256,0
DA:4257,0
DA:4320,0
DA:4321,0
DA:4322,0
DA:4323,0
DA:4325,0
DA:4332,19
DA:4375,0
DA:4376,0
DA:4377,0
DA:4378,0
DA:4379,0
DA:4402,0
DA:4403,0
DA:4410,0
DA:4411,0
DA:4412,0
DA:4416,0
DA:4417,0
DA:4418,0
DA:4441,0
DA:4481,19
DA:4483,19
DA:4490,0
DA:4491,0
DA:4498,0
DA:4499,0
DA:4506,0
DA:4507,0
DA:4510,19
DA:4511,19
DA:4514,0
DA:4515,0
DA:4518,0
DA:4519,0
DA:4520,0
DA:4521,0
DA:4524,0
DA:4525,0
DA:4552,0
DA:4553,0
DA:4557,0
DA:4558,0
DA:4562,0
DA:4563,0
DA:4626,0
DA:4627,0
DA:4628,0
DA:4629,0
DA:4631,0
DA:4638,19
DA:4661,0
DA:4662,0
DA:4663,0
DA:4686,0
DA:4687,0
DA:4713,0
DA:4753,19
DA:4755,19
DA:4762,0
DA:4763,0
DA:4767,19
DA:4768,19
DA:4771,0
DA:4772,0
DA:4775,0
DA:4776,0
DA:4777,0
DA:4778,0
DA:4781,0
DA:4782,0
DA:4790,0
DA:4791,0
DA:4794,0
DA:4795,0
DA:4796,0
DA:4797,0
DA:4800,0
DA:4801,0
DA:4804,0
DA:4805,0
DA:4817,0
DA:4818,0
DA:4860,0
DA:4861,0
DA:4862,0
DA:4863,0
DA:4865,0
DA:4872,19
DA:4923,0
DA:4959,19
DA:4960,19
DA:4963,19
DA:4964,19
DA:4968,90
DA:4969,90
DA:4970,180
DA:4971,90
DA:4974,66
DA:4975,66
DA:5014,153
DA:5069,0
DA:5114,19
DA:5115,19
DA:5118,19
DA:5119,19
DA:5122,0
DA:5123,0
DA:5126,0
DA:5127,0
DA:5128,0
DA:5129,0
DA:5132,0
DA:5133,0
DA:5136,0
DA:5137,0
DA:5187,19
DA:5210,0
DA:5211,0
DA:5212,0
DA:5235,0
DA:5236,0
DA:5243,0
DA:5244,0
DA:5245,0
DA:5266,0
DA:5306,19
DA:5308,19
DA:5315,0
DA:5316,0
DA:5319,19
DA:5320,19
DA:5323,0
DA:5324,0
DA:5327,0
DA:5328,0
DA:5329,0
DA:5330,0
DA:5333,0
DA:5334,0
DA:5342,0
DA:5343,0
DA:5346,0
DA:5347,0
DA:5348,0
DA:5349,0
DA:5352,0
DA:5353,0
DA:5365,0
DA:5366,0
DA:5402,0
DA:5403,0
DA:5404,0
DA:5405,0
DA:5407,0
DA:5414,19
DA:5469,0
DA:5514,19
DA:5515,19
DA:5518,19
DA:5519,19
DA:5522,10
DA:5523,10
DA:5526,10
DA:5527,10
DA:5528,20
DA:5529,10
DA:5532,4
DA:5533,4
DA:5536,4
DA:5537,4
DA:5550,5
DA:5551,5
DA:5554,5
DA:5555,5
DA:5556,10
DA:5557,5
DA:5560,4
DA:5561,4
DA:5592,33
DA:5643,0
DA:5683,19
DA:5684,19
DA:5687,19
DA:5688,19
DA:5692,0
DA:5693,0
DA:5694,0
DA:5695,0
DA:5698,0
DA:5699,0
DA:5703,0
DA:5704,0
DA:5707,0
DA:5708,0
DA:5709,0
DA:5710,0
DA:5713,0
DA:5714,0
DA:5741,19
LF:800
LH:288
end_of_record
TN:
SF:/Users/jim/work/cppfort/Cpp2FIROpsDialect.cpp.inc
FNL:0,14
FNA:0,19,_ZN4mlir7cpp2fir14Cpp2FIRDialectC1EPNS_11MLIRContextE
FNA:0,19,_ZN4mlir7cpp2fir14Cpp2FIRDialectC2EPNS_11MLIRContextE
FNL:1,22
FNA:1,19,_ZN4mlir7cpp2fir14Cpp2FIRDialectD0Ev
FNA:1,19,_ZN4mlir7cpp2fir14Cpp2FIRDialectD1Ev
FNA:1,19,_ZN4mlir7cpp2fir14Cpp2FIRDialectD2Ev
FNF:2
FNH:2
DA:14,38
DA:15,19
DA:17,38
DA:19,19
DA:20,38
DA:22,57
LF:6
LH:6
end_of_record
TN:
SF:/Users/jim/work/cppfort/Cpp2FIROpsDialect.h.inc
FNL:0,24
FNA:0,62,_ZN4mlir7cpp2fir14Cpp2FIRDialect19getDialectNamespaceEv
FNL:1,30
FNA:1,43,_ZN4mlir6detail14TypeIDResolverINS_7cpp2fir14Cpp2FIRDialectEvE13resolveTypeIDEv
FNF:2
FNH:2
DA:24,62
DA:25,62
DA:30,43
LF:3
LH:3
end_of_record
TN:
SF:/Users/jim/work/cppfort/Cpp2SONOps.cpp.inc
FNL:0,10033
FNA:0,0,_ZN4mlir4sond6ParmOp19getPropertiesAsAttrEPNS_11MLIRContextERKNS0_6detail24ParmOpGenericAdaptorBase10PropertiesE
FNL:1,10056
FNA:1,0,_ZN4mlir4sond6ParmOp21computePropertiesHashERKNS0_6detail24ParmOpGenericAdaptorBase10PropertiesE
FNL:2,10063
FNA:2,0,_ZN4mlir4sond6ParmOp15getInherentAttrEPNS_11MLIRContextERKNS0_6detail24ParmOpGenericAdaptorBase10PropertiesEN4llvm9StringRefE
FNL:3,10072
FNA:3,0,_ZN4mlir4sond6ParmOp15setInherentAttrERNS0_6detail24ParmOpGenericAdaptorBase10PropertiesEN4llvm9StringRefENS_9AttributeE
FNL:4,10084
FNA:4,0,_ZN4mlir4sond6ParmOp21populateInherentAttrsEPNS_11MLIRContextERKNS0_6detail24ParmOpGenericAdaptorBase10PropertiesERNS_13NamedAttrListE
FNL:5,10090
FNA:5,0,_ZN4mlir4sond6ParmOp19verifyInherentAttrsENS_13OperationNameERNS_13NamedAttrListEN4llvm12function_refIFNS_18InFlightDiagnosticEvEEE
FNL:6,10105
FNA:6,0,_ZN4mlir4sond6ParmOp14readPropertiesERNS_21DialectBytecodeReaderERNS_14OperationStateE
FNL:7,10115
FNA:7,0,_ZN4mlir4sond6ParmOp15writePropertiesERNS_21DialectBytecodeWriterE
FNL:8,10122
FNA:8,0,_ZN4mlir4sond6ParmOp8getIndexEv
FNL:9,10127
FNA:9,0,_ZN4mlir4sond6ParmOp8getLabelEv
FNL:10,10132
FNA:10,0,_ZN4mlir4sond6ParmOp8setIndexEj
FNL:11,10136
FNA:11,0,_ZN4mlir4sond6ParmOp8setLabelENSt3__18optionalIN4llvm9StringRefEEE
FNL:12,10144
FNA:12,0,_ZN4mlir4sond6ParmOp5buildERNS_9OpBuilderERNS_14OperationStateENS_4TypeENS_5ValueENS_11IntegerAttrENS_10StringAttrE
FNL:13,10153
FNA:13,0,_ZN4mlir4sond6ParmOp6createERNS_9OpBuilderENS_8LocationENS_4TypeENS_5ValueENS_11IntegerAttrENS_10StringAttrE
FNL:14,10161
FNA:14,0,_ZN4mlir4sond6ParmOp6createERNS_20ImplicitLocOpBuilderENS_4TypeENS_5ValueENS_11IntegerAttrENS_10StringAttrE
FNL:15,10165
FNA:15,0,_ZN4mlir4sond6ParmOp5buildERNS_9OpBuilderERNS_14OperationStateENS_9TypeRangeENS_5ValueENS_11IntegerAttrENS_10StringAttrE
FNL:16,10175
FNA:16,0,_ZN4mlir4sond6ParmOp6createERNS_9OpBuilderENS_8LocationENS_9TypeRangeENS_5ValueENS_11IntegerAttrENS_10StringAttrE
FNL:17,10183
FNA:17,0,_ZN4mlir4sond6ParmOp6createERNS_20ImplicitLocOpBuilderENS_9TypeRangeENS_5ValueENS_11IntegerAttrENS_10StringAttrE
FNL:18,10187
FNA:18,0,_ZN4mlir4sond6ParmOp5buildERNS_9OpBuilderERNS_14OperationStateENS_4TypeENS_5ValueEjNS_10StringAttrE
FNL:19,10196
FNA:19,0,_ZN4mlir4sond6ParmOp6createERNS_9OpBuilderENS_8LocationENS_4TypeENS_5ValueEjNS_10StringAttrE
FNL:20,10204
FNA:20,0,_ZN4mlir4sond6ParmOp6createERNS_20ImplicitLocOpBuilderENS_4TypeENS_5ValueEjNS_10StringAttrE
FNL:21,10208
FNA:21,0,_ZN4mlir4sond6ParmOp5buildERNS_9OpBuilderERNS_14OperationStateENS_9TypeRangeENS_5ValueEjNS_10StringAttrE
FNL:22,10218
FNA:22,0,_ZN4mlir4sond6ParmOp6createERNS_9OpBuilderENS_8LocationENS_9TypeRangeENS_5ValueEjNS_10StringAttrE
FNL:23,10226
FNA:23,0,_ZN4mlir4sond6ParmOp6createERNS_20ImplicitLocOpBuilderENS_9TypeRangeENS_5ValueEjNS_10StringAttrE
FNL:24,10230
FNA:24,0,_ZN4mlir4sond6ParmOp5buildERNS_9OpBuilderERNS_14OperationStateENS_9TypeRangeENS_10ValueRangeEN4llvm8ArrayRefINS_14NamedAttributeEEE
FNL:25,10248
FNA:25,0,_ZN4mlir4sond6ParmOp6createERNS_9OpBuilderENS_8LocationENS_9TypeRangeENS_10ValueRangeEN4llvm8ArrayRefINS_14NamedAttributeEEE
FNL:26,1025
FNA:26,0,_ZN4mlir4sond5AndOp5printERNS_12OpAsmPrinterE
FNL:27,10256
FNA:27,0,_ZN4mlir4sond6ParmOp6createERNS_20ImplicitLocOpBuilderENS_9TypeRangeENS_10ValueRangeEN4llvm8ArrayRefINS_14NamedAttributeEEE
FNL:28,10260
FNA:28,0,_ZN4mlir4sond6ParmOp5buildERNS_9OpBuilderERNS_14OperationStateENS_9TypeRangeENS_10ValueRangeERKNS0_6detail24ParmOpGenericAdaptorBase10PropertiesEN4llvm8ArrayRefINS_14NamedAttributeEEE
FNL:29,10269
FNA:29,0,_ZN4mlir4sond6ParmOp6createERNS_9OpBuilderENS_8LocationENS_9TypeRangeENS_10ValueRangeERKNS0_6detail24ParmOpGenericAdaptorBase10PropertiesEN4llvm8ArrayRefINS_14NamedAttributeEEE
FNL:30,10277
FNA:30,0,_ZN4mlir4sond6ParmOp6createERNS_20ImplicitLocOpBuilderENS_9TypeRangeENS_10ValueRangeERKNS0_6detail24ParmOpGenericAdaptorBase10PropertiesEN4llvm8ArrayRefINS_14NamedAttributeEEE
FNL:31,10281
FNA:31,0,_ZN4mlir4sond6ParmOp20verifyInvariantsImplEv
FNL:32,10312
FNA:32,0,_ZN4mlir4sond6ParmOp16verifyInvariantsEv
FNL:33,10316
FNA:33,0,_ZN4mlir4sond6ParmOp5parseERNS_11OpAsmParserERNS_14OperationStateE
FNL:34,10352
FNA:34,0,_ZZN4mlir4sond6ParmOp5parseERNS_11OpAsmParserERNS_14OperationStateEENK3$_0clEv
FNL:35,10381
FNA:35,0,_ZN4mlir4sond6ParmOp5printERNS_12OpAsmPrinterE
FNL:36,10416
FNA:36,0,_ZN4mlir4sond6ParmOp10getEffectsERN4llvm15SmallVectorImplINS_11SideEffects14EffectInstanceINS_13MemoryEffects6EffectEEEEE
FNL:37,10431
FNA:37,0,_ZN4mlir4sond6detail23PhiOpGenericAdaptorBaseC1ENS0_5PhiOpE
FNA:37,0,_ZN4mlir4sond6detail23PhiOpGenericAdaptorBaseC2ENS0_5PhiOpE
FNL:38,10433
FNA:38,0,_ZN4mlir4sond6detail23PhiOpGenericAdaptorBase27getODSOperandIndexAndLengthEjj
FNL:39,10451
FNA:39,0,_ZN4mlir4sond6detail23PhiOpGenericAdaptorBase8getLabelEv
FNL:40,10456
FNA:40,0,_ZN4mlir4sond6detail23PhiOpGenericAdaptorBase10getMinTypeEv
FNL:41,10462
FNA:41,0,_ZN4mlir4sond12PhiOpAdaptorC1ENS0_5PhiOpE
FNA:41,0,_ZN4mlir4sond12PhiOpAdaptorC2ENS0_5PhiOpE
FNL:42,10464
FNA:42,0,_ZN4mlir4sond12PhiOpAdaptor6verifyENS_8LocationE
FNL:43,10476
FNA:43,0,_ZN4mlir4sond5PhiOp27getODSOperandIndexAndLengthEj
FNL:44,10494
FNA:44,0,_ZN4mlir4sond5PhiOp16getValuesMutableEv
FNL:45,10500
FNA:45,0,_ZN4mlir4sond5PhiOp21setPropertiesFromAttrERNS0_6detail23PhiOpGenericAdaptorBase10PropertiesENS_9AttributeEN4llvm12function_refIFNS_18InFlightDiagnosticEvEEE
FNL:46,10537
FNA:46,0,_ZN4mlir4sond5PhiOp19getPropertiesAsAttrEPNS_11MLIRContextERKNS0_6detail23PhiOpGenericAdaptorBase10PropertiesE
FNL:47,10560
FNA:47,0,_ZN4mlir4sond5PhiOp21computePropertiesHashERKNS0_6detail23PhiOpGenericAdaptorBase10PropertiesE
FNL:48,10567
FNA:48,0,_ZN4mlir4sond5PhiOp15getInherentAttrEPNS_11MLIRContextERKNS0_6detail23PhiOpGenericAdaptorBase10PropertiesEN4llvm9StringRefE
FNL:49,10576
FNA:49,0,_ZN4mlir4sond5PhiOp15setInherentAttrERNS0_6detail23PhiOpGenericAdaptorBase10PropertiesEN4llvm9StringRefENS_9AttributeE
FNL:50,10588
FNA:50,0,_ZN4mlir4sond5PhiOp21populateInherentAttrsEPNS_11MLIRContextERKNS0_6detail23PhiOpGenericAdaptorBase10PropertiesERNS_13NamedAttrListE
FNL:51,10594
FNA:51,0,_ZN4mlir4sond5PhiOp19verifyInherentAttrsENS_13OperationNameERNS_13NamedAttrListEN4llvm12function_refIFNS_18InFlightDiagnosticEvEEE
FNL:52,106
FNA:52,0,_ZN4mlir4sondL48__mlir_ods_local_attr_constraint_Cpp2SONDialect1ENS_9AttributeEN4llvm9StringRefENS2_12function_refIFNS_18InFlightDiagnosticEvEEE
FNL:53,10609
FNA:53,0,_ZN4mlir4sond5PhiOp14readPropertiesERNS_21DialectBytecodeReaderERNS_14OperationStateE
FNL:54,10619
FNA:54,0,_ZN4mlir4sond5PhiOp15writePropertiesERNS_21DialectBytecodeWriterE
FNL:55,1062
FNA:55,0,_ZN4mlir4sond5AndOp10getEffectsERN4llvm15SmallVectorImplINS_11SideEffects14EffectInstanceINS_13MemoryEffects6EffectEEEEE
FNL:56,10627
FNA:56,0,_ZN4mlir4sond5PhiOp8getLabelEv
FNL:57,10632
FNA:57,0,_ZN4mlir4sond5PhiOp10getMinTypeEv
FNL:58,10637
FNA:58,0,_ZN4mlir4sond5PhiOp8setLabelENSt3__18optionalIN4llvm9StringRefEEE
FNL:59,10645
FNA:59,0,_ZN4mlir4sond5PhiOp10setMinTypeENSt3__18optionalINS_4TypeEEE
FNL:60,10653
FNA:60,0,_ZN4mlir4sond5PhiOp5buildERNS_9OpBuilderERNS_14OperationStateENS_4TypeENS_5ValueENS_10ValueRangeENS_10StringAttrENS_8TypeAttrE
FNL:61,10665
FNA:61,0,_ZN4mlir4sond5PhiOp6createERNS_9OpBuilderENS_8LocationENS_4TypeENS_5ValueENS_10ValueRangeENS_10StringAttrENS_8TypeAttrE
FNL:62,10673
FNA:62,0,_ZN4mlir4sond5PhiOp6createERNS_20ImplicitLocOpBuilderENS_4TypeENS_5ValueENS_10ValueRangeENS_10StringAttrENS_8TypeAttrE
FNL:63,10677
FNA:63,0,_ZN4mlir4sond5PhiOp5buildERNS_9OpBuilderERNS_14OperationStateENS_9TypeRangeENS_5ValueENS_10ValueRangeENS_10StringAttrENS_8TypeAttrE
FNL:64,10690
FNA:64,0,_ZN4mlir4sond5PhiOp6createERNS_9OpBuilderENS_8LocationENS_9TypeRangeENS_5ValueENS_10ValueRangeENS_10StringAttrENS_8TypeAttrE
FNL:65,10698
FNA:65,0,_ZN4mlir4sond5PhiOp6createERNS_20ImplicitLocOpBuilderENS_9TypeRangeENS_5ValueENS_10ValueRangeENS_10StringAttrENS_8TypeAttrE
FNL:66,10702
FNA:66,0,_ZN4mlir4sond5PhiOp5buildERNS_9OpBuilderERNS_14OperationStateENS_9TypeRangeENS_10ValueRangeEN4llvm8ArrayRefINS_14NamedAttributeEEE
FNL:67,10720
FNA:67,0,_ZN4mlir4sond5PhiOp6createERNS_9OpBuilderENS_8LocationENS_9TypeRangeENS_10ValueRangeEN4llvm8ArrayRefINS_14NamedAttributeEEE
FNL:68,10728
FNA:68,0,_ZN4mlir4sond5PhiOp6createERNS_20ImplicitLocOpBuilderENS_9TypeRangeENS_10ValueRangeEN4llvm8ArrayRefINS_14NamedAttributeEEE
FNL:69,10732
FNA:69,0,_ZN4mlir4sond5PhiOp5buildERNS_9OpBuilderERNS_14OperationStateENS_9TypeRangeENS_10ValueRangeERKNS0_6detail23PhiOpGenericAdaptorBase10PropertiesEN4llvm8ArrayRefINS_14NamedAttributeEEE
FNL:70,10741
FNA:70,0,_ZN4mlir4sond5PhiOp6createERNS_9OpBuilderENS_8LocationENS_9TypeRangeENS_10ValueRangeERKNS0_6detail23PhiOpGenericAdaptorBase10PropertiesEN4llvm8ArrayRefINS_14NamedAttributeEEE
FNL:71,10749
FNA:71,0,_ZN4mlir4sond5PhiOp6createERNS_20ImplicitLocOpBuilderENS_9TypeRangeENS_10ValueRangeERKNS0_6detail23PhiOpGenericAdaptorBase10PropertiesEN4llvm8ArrayRefINS_14NamedAttributeEEE
FNL:72,10753
FNA:72,0,_ZN4mlir4sond5PhiOp20verifyInvariantsImplEv
FNL:73,1077
FNA:73,0,_ZN4mlir4sond6detail25CProjOpGenericAdaptorBaseC1ENS0_7CProjOpE
FNA:73,0,_ZN4mlir4sond6detail25CProjOpGenericAdaptorBaseC2ENS0_7CProjOpE
FNL:74,10789
FNA:74,0,_ZN4mlir4sond5PhiOp16verifyInvariantsEv
FNL:75,1079
FNA:75,0,_ZN4mlir4sond6detail25CProjOpGenericAdaptorBase8getIndexEv
FNL:76,10793
FNA:76,0,_ZN4mlir4sond5PhiOp5parseERNS_11OpAsmParserERNS_14OperationStateE
FNL:77,10825
FNA:77,0,_ZZN4mlir4sond5PhiOp5parseERNS_11OpAsmParserERNS_14OperationStateEENK3$_0clEv
FNL:78,1084
FNA:78,0,_ZN4mlir4sond6detail25CProjOpGenericAdaptorBase8getLabelEv
FNL:79,10861
FNA:79,0,_ZN4mlir4sond5PhiOp5printERNS_12OpAsmPrinterE
FNL:80,10893
FNA:80,0,_ZN4mlir4sond5PhiOp10getEffectsERN4llvm15SmallVectorImplINS_11SideEffects14EffectInstanceINS_13MemoryEffects6EffectEEEEE
FNL:81,1090
FNA:81,0,_ZN4mlir4sond14CProjOpAdaptorC1ENS0_7CProjOpE
FNA:81,0,_ZN4mlir4sond14CProjOpAdaptorC2ENS0_7CProjOpE
FNL:82,10908
FNA:82,0,_ZN4mlir4sond6detail24ProjOpGenericAdaptorBaseC1ENS0_6ProjOpE
FNA:82,0,_ZN4mlir4sond6detail24ProjOpGenericAdaptorBaseC2ENS0_6ProjOpE
FNL:83,10910
FNA:83,0,_ZN4mlir4sond6detail24ProjOpGenericAdaptorBase8getIndexEv
FNL:84,10915
FNA:84,0,_ZN4mlir4sond6detail24ProjOpGenericAdaptorBase8getLabelEv
FNL:85,1092
FNA:85,0,_ZN4mlir4sond14CProjOpAdaptor6verifyENS_8LocationE
FNL:86,10921
FNA:86,0,_ZN4mlir4sond13ProjOpAdaptorC1ENS0_6ProjOpE
FNA:86,0,_ZN4mlir4sond13ProjOpAdaptorC2ENS0_6ProjOpE
FNL:87,10923
FNA:87,0,_ZN4mlir4sond13ProjOpAdaptor6verifyENS_8LocationE
FNL:88,10936
FNA:88,0,_ZN4mlir4sond6ProjOp21setPropertiesFromAttrERNS0_6detail24ProjOpGenericAdaptorBase10PropertiesENS_9AttributeEN4llvm12function_refIFNS_18InFlightDiagnosticEvEEE
FNL:89,10973
FNA:89,0,_ZN4mlir4sond6ProjOp19getPropertiesAsAttrEPNS_11MLIRContextERKNS0_6detail24ProjOpGenericAdaptorBase10PropertiesE
FNL:90,10996
FNA:90,0,_ZN4mlir4sond6ProjOp21computePropertiesHashERKNS0_6detail24ProjOpGenericAdaptorBase10PropertiesE
FNL:91,11003
FNA:91,0,_ZN4mlir4sond6ProjOp15getInherentAttrEPNS_11MLIRContextERKNS0_6detail24ProjOpGenericAdaptorBase10PropertiesEN4llvm9StringRefE
FNL:92,11012
FNA:92,0,_ZN4mlir4sond6ProjOp15setInherentAttrERNS0_6detail24ProjOpGenericAdaptorBase10PropertiesEN4llvm9StringRefENS_9AttributeE
FNL:93,11024
FNA:93,0,_ZN4mlir4sond6ProjOp21populateInherentAttrsEPNS_11MLIRContextERKNS0_6detail24ProjOpGenericAdaptorBase10PropertiesERNS_13NamedAttrListE
FNL:94,11030
FNA:94,0,_ZN4mlir4sond6ProjOp19verifyInherentAttrsENS_13OperationNameERNS_13NamedAttrListEN4llvm12function_refIFNS_18InFlightDiagnosticEvEEE
FNL:95,11045
FNA:95,0,_ZN4mlir4sond6ProjOp14readPropertiesERNS_21DialectBytecodeReaderERNS_14OperationStateE
FNL:96,1105
FNA:96,0,_ZN4mlir4sond7CProjOp21setPropertiesFromAttrERNS0_6detail25CProjOpGenericAdaptorBase10PropertiesENS_9AttributeEN4llvm12function_refIFNS_18InFlightDiagnosticEvEEE
FNL:97,11055
FNA:97,0,_ZN4mlir4sond6ProjOp15writePropertiesERNS_21DialectBytecodeWriterE
FNL:98,11062
FNA:98,0,_ZN4mlir4sond6ProjOp8getIndexEv
FNL:99,11067
FNA:99,0,_ZN4mlir4sond6ProjOp8getLabelEv
FNL:100,11072
FNA:100,0,_ZN4mlir4sond6ProjOp8setIndexEj
FNL:101,11076
FNA:101,0,_ZN4mlir4sond6ProjOp8setLabelENSt3__18optionalIN4llvm9StringRefEEE
FNL:102,11084
FNA:102,0,_ZN4mlir4sond6ProjOp5buildERNS_9OpBuilderERNS_14OperationStateENS_4TypeENS_5ValueENS_11IntegerAttrENS_10StringAttrE
FNL:103,11093
FNA:103,0,_ZN4mlir4sond6ProjOp6createERNS_9OpBuilderENS_8LocationENS_4TypeENS_5ValueENS_11IntegerAttrENS_10StringAttrE
FNL:104,11101
FNA:104,0,_ZN4mlir4sond6ProjOp6createERNS_20ImplicitLocOpBuilderENS_4TypeENS_5ValueENS_11IntegerAttrENS_10StringAttrE
FNL:105,11105
FNA:105,0,_ZN4mlir4sond6ProjOp5buildERNS_9OpBuilderERNS_14OperationStateENS_9TypeRangeENS_5ValueENS_11IntegerAttrENS_10StringAttrE
FNL:106,11115
FNA:106,0,_ZN4mlir4sond6ProjOp6createERNS_9OpBuilderENS_8LocationENS_9TypeRangeENS_5ValueENS_11IntegerAttrENS_10StringAttrE
FNL:107,11123
FNA:107,0,_ZN4mlir4sond6ProjOp6createERNS_20ImplicitLocOpBuilderENS_9TypeRangeENS_5ValueENS_11IntegerAttrENS_10StringAttrE
FNL:108,11127
FNA:108,0,_ZN4mlir4sond6ProjOp5buildERNS_9OpBuilderERNS_14OperationStateENS_4TypeENS_5ValueEjNS_10StringAttrE
FNL:109,11136
FNA:109,0,_ZN4mlir4sond6ProjOp6createERNS_9OpBuilderENS_8LocationENS_4TypeENS_5ValueEjNS_10StringAttrE
FNL:110,11144
FNA:110,0,_ZN4mlir4sond6ProjOp6createERNS_20ImplicitLocOpBuilderENS_4TypeENS_5ValueEjNS_10StringAttrE
FNL:111,11148
FNA:111,0,_ZN4mlir4sond6ProjOp5buildERNS_9OpBuilderERNS_14OperationStateENS_9TypeRangeENS_5ValueEjNS_10StringAttrE
FNL:112,11158
FNA:112,0,_ZN4mlir4sond6ProjOp6createERNS_9OpBuilderENS_8LocationENS_9TypeRangeENS_5ValueEjNS_10StringAttrE
FNL:113,11166
FNA:113,0,_ZN4mlir4sond6ProjOp6createERNS_20ImplicitLocOpBuilderENS_9TypeRangeENS_5ValueEjNS_10StringAttrE
FNL:114,11170
FNA:114,0,_ZN4mlir4sond6ProjOp5buildERNS_9OpBuilderERNS_14OperationStateENS_9TypeRangeENS_10ValueRangeEN4llvm8ArrayRefINS_14NamedAttributeEEE
FNL:115,11188
FNA:115,0,_ZN4mlir4sond6ProjOp6createERNS_9OpBuilderENS_8LocationENS_9TypeRangeENS_10ValueRangeEN4llvm8ArrayRefINS_14NamedAttributeEEE
FNL:116,11196
FNA:116,0,_ZN4mlir4sond6ProjOp6createERNS_20ImplicitLocOpBuilderENS_9TypeRangeENS_10ValueRangeEN4llvm8ArrayRefINS_14NamedAttributeEEE
FNL:117,11200
FNA:117,0,_ZN4mlir4sond6ProjOp5buildERNS_9OpBuilderERNS_14OperationStateENS_9TypeRangeENS_10ValueRangeERKNS0_6detail24ProjOpGenericAdaptorBase10PropertiesEN4llvm8ArrayRefINS_14NamedAttributeEEE
FNL:118,11209
FNA:118,0,_ZN4mlir4sond6ProjOp6createERNS_9OpBuilderENS_8LocationENS_9TypeRangeENS_10ValueRangeERKNS0_6detail24ProjOpGenericAdaptorBase10PropertiesEN4llvm8ArrayRefINS_14NamedAttributeEEE
FNL:119,11217
FNA:119,0,_ZN4mlir4sond6ProjOp6createERNS_20ImplicitLocOpBuilderENS_9TypeRangeENS_10ValueRangeERKNS0_6detail24ProjOpGenericAdaptorBase10PropertiesEN4llvm8ArrayRefINS_14NamedAttributeEEE
FNL:120,11221
FNA:120,0,_ZN4mlir4sond6ProjOp20verifyInvariantsImplEv
FNL:121,11252
FNA:121,0,_ZN4mlir4sond6ProjOp16verifyInvariantsEv
FNL:122,11256
FNA:122,0,_ZN4mlir4sond6ProjOp5parseERNS_11OpAsmParserERNS_14OperationStateE
FNL:123,11292
FNA:123,0,_ZZN4mlir4sond6ProjOp5parseERNS_11OpAsmParserERNS_14OperationStateEENK3$_0clEv
FNL:124,113
FNA:124,0,_ZN4mlir4sondL48__mlir_ods_local_attr_constraint_Cpp2SONDialect1EPNS_9OperationENS_9AttributeEN4llvm9StringRefE
FNL:125,11321
FNA:125,0,_ZN4mlir4sond6ProjOp5printERNS_12OpAsmPrinterE
FNL:126,11356
FNA:126,0,_ZN4mlir4sond6ProjOp10getEffectsERN4llvm15SmallVectorImplINS_11SideEffects14EffectInstanceINS_13MemoryEffects6EffectEEEEE
FNL:127,11371
FNA:127,0,_ZN4mlir4sond6detail28ReadOnlyOpGenericAdaptorBaseC1ENS0_10ReadOnlyOpE
FNA:127,0,_ZN4mlir4sond6detail28ReadOnlyOpGenericAdaptorBaseC2ENS0_10ReadOnlyOpE
FNL:128,11374
FNA:128,0,_ZN4mlir4sond17ReadOnlyOpAdaptorC1ENS0_10ReadOnlyOpE
FNA:128,0,_ZN4mlir4sond17ReadOnlyOpAdaptorC2ENS0_10ReadOnlyOpE
FNL:129,11376
FNA:129,0,_ZN4mlir4sond17ReadOnlyOpAdaptor6verifyENS_8LocationE
FNL:130,11380
FNA:130,0,_ZN4mlir4sond10ReadOnlyOp21setPropertiesFromAttrERNS_15EmptyPropertiesENS_9AttributeEN4llvm12function_refIFNS_18InFlightDiagnosticEvEEE
FNL:131,11389
FNA:131,0,_ZN4mlir4sond10ReadOnlyOp19getPropertiesAsAttrEPNS_11MLIRContextERKNS_15EmptyPropertiesE
FNL:132,11398
FNA:132,0,_ZN4mlir4sond10ReadOnlyOp21computePropertiesHashERKNS_15EmptyPropertiesE
FNL:133,11403
FNA:133,0,_ZN4mlir4sond10ReadOnlyOp15getInherentAttrEPNS_11MLIRContextERKNS_15EmptyPropertiesEN4llvm9StringRefE
FNL:134,11407
FNA:134,0,_ZN4mlir4sond10ReadOnlyOp15setInherentAttrERNS_15EmptyPropertiesEN4llvm9StringRefENS_9AttributeE
FNL:135,11410
FNA:135,0,_ZN4mlir4sond10ReadOnlyOp21populateInherentAttrsEPNS_11MLIRContextERKNS_15EmptyPropertiesERNS_13NamedAttrListE
FNL:136,11413
FNA:136,0,_ZN4mlir4sond10ReadOnlyOp19verifyInherentAttrsENS_13OperationNameERNS_13NamedAttrListEN4llvm12function_refIFNS_18InFlightDiagnosticEvEEE
FNL:137,11417
FNA:137,0,_ZN4mlir4sond10ReadOnlyOp5buildERNS_9OpBuilderERNS_14OperationStateENS_4TypeENS_5ValueE
FNL:138,1142
FNA:138,0,_ZN4mlir4sond7CProjOp19getPropertiesAsAttrEPNS_11MLIRContextERKNS0_6detail25CProjOpGenericAdaptorBase10PropertiesE
FNL:139,11422
FNA:139,0,_ZN4mlir4sond10ReadOnlyOp6createERNS_9OpBuilderENS_8LocationENS_4TypeENS_5ValueE
FNL:140,11430
FNA:140,0,_ZN4mlir4sond10ReadOnlyOp6createERNS_20ImplicitLocOpBuilderENS_4TypeENS_5ValueE
FNL:141,11434
FNA:141,0,_ZN4mlir4sond10ReadOnlyOp5buildERNS_9OpBuilderERNS_14OperationStateENS_9TypeRangeENS_5ValueE
FNL:142,11440
FNA:142,0,_ZN4mlir4sond10ReadOnlyOp6createERNS_9OpBuilderENS_8LocationENS_9TypeRangeENS_5ValueE
FNL:143,11448
FNA:143,0,_ZN4mlir4sond10ReadOnlyOp6createERNS_20ImplicitLocOpBuilderENS_9TypeRangeENS_5ValueE
FNL:144,11452
FNA:144,0,_ZN4mlir4sond10ReadOnlyOp5buildERNS_9OpBuilderERNS_14OperationStateENS_9TypeRangeENS_10ValueRangeEN4llvm8ArrayRefINS_14NamedAttributeEEE
FNL:145,11460
FNA:145,0,_ZN4mlir4sond10ReadOnlyOp6createERNS_9OpBuilderENS_8LocationENS_9TypeRangeENS_10ValueRangeEN4llvm8ArrayRefINS_14NamedAttributeEEE
FNL:146,11468
FNA:146,0,_ZN4mlir4sond10ReadOnlyOp6createERNS_20ImplicitLocOpBuilderENS_9TypeRangeENS_10ValueRangeEN4llvm8ArrayRefINS_14NamedAttributeEEE
FNL:147,11472
FNA:147,0,_ZN4mlir4sond10ReadOnlyOp5buildERNS_9OpBuilderERNS_14OperationStateENS_9TypeRangeENS_10ValueRangeERKNS_15EmptyPropertiesEN4llvm8ArrayRefINS_14NamedAttributeEEE
FNL:148,11481
FNA:148,0,_ZN4mlir4sond10ReadOnlyOp6createERNS_9OpBuilderENS_8LocationENS_9TypeRangeENS_10ValueRangeERKNS_15EmptyPropertiesEN4llvm8ArrayRefINS_14NamedAttributeEEE
FNL:149,11489
FNA:149,0,_ZN4mlir4sond10ReadOnlyOp6createERNS_20ImplicitLocOpBuilderENS_9TypeRangeENS_10ValueRangeERKNS_15EmptyPropertiesEN4llvm8ArrayRefINS_14NamedAttributeEEE
FNL:150,11493
FNA:150,0,_ZN4mlir4sond10ReadOnlyOp20verifyInvariantsImplEv
FNL:151,115
FNA:151,0,_ZZN4mlir4sondL48__mlir_ods_local_attr_constraint_Cpp2SONDialect1EPNS_9OperationENS_9AttributeEN4llvm9StringRefEENK3$_0clEv
FNL:152,11515
FNA:152,0,_ZN4mlir4sond10ReadOnlyOp16verifyInvariantsEv
FNL:153,11519
FNA:153,0,_ZN4mlir4sond10ReadOnlyOp5parseERNS_11OpAsmParserERNS_14OperationStateE
FNL:154,11535
FNA:154,0,_ZZN4mlir4sond10ReadOnlyOp5parseERNS_11OpAsmParserERNS_14OperationStateEENK3$_0clEv
FNL:155,11564
FNA:155,0,_ZN4mlir4sond10ReadOnlyOp5printERNS_12OpAsmPrinterE
FNL:156,11589
FNA:156,0,_ZN4mlir4sond10ReadOnlyOp10getEffectsERN4llvm15SmallVectorImplINS_11SideEffects14EffectInstanceINS_13MemoryEffects6EffectEEEEE
FNL:157,11604
FNA:157,0,_ZN4mlir4sond6detail26RegionOpGenericAdaptorBaseC1ENS0_8RegionOpE
FNA:157,0,_ZN4mlir4sond6detail26RegionOpGenericAdaptorBaseC2ENS0_8RegionOpE
FNL:158,11606
FNA:158,0,_ZN4mlir4sond6detail26RegionOpGenericAdaptorBase27getODSOperandIndexAndLengthEjj
FNL:159,11625
FNA:159,0,_ZN4mlir4sond15RegionOpAdaptorC1ENS0_8RegionOpE
FNA:159,0,_ZN4mlir4sond15RegionOpAdaptorC2ENS0_8RegionOpE
FNL:160,11627
FNA:160,0,_ZN4mlir4sond15RegionOpAdaptor6verifyENS_8LocationE
FNL:161,11631
FNA:161,0,_ZN4mlir4sond8RegionOp27getODSOperandIndexAndLengthEj
FNL:162,11649
FNA:162,0,_ZN4mlir4sond8RegionOp16getInputsMutableEv
FNL:163,1165
FNA:163,0,_ZN4mlir4sond7CProjOp21computePropertiesHashERKNS0_6detail25CProjOpGenericAdaptorBase10PropertiesE
FNL:164,11655
FNA:164,0,_ZN4mlir4sond8RegionOp21setPropertiesFromAttrERNS_15EmptyPropertiesENS_9AttributeEN4llvm12function_refIFNS_18InFlightDiagnosticEvEEE
FNL:165,11664
FNA:165,0,_ZN4mlir4sond8RegionOp19getPropertiesAsAttrEPNS_11MLIRContextERKNS_15EmptyPropertiesE
FNL:166,11673
FNA:166,0,_ZN4mlir4sond8RegionOp21computePropertiesHashERKNS_15EmptyPropertiesE
FNL:167,11678
FNA:167,0,_ZN4mlir4sond8RegionOp15getInherentAttrEPNS_11MLIRContextERKNS_15EmptyPropertiesEN4llvm9StringRefE
FNL:168,11682
FNA:168,0,_ZN4mlir4sond8RegionOp15setInherentAttrERNS_15EmptyPropertiesEN4llvm9StringRefENS_9AttributeE
FNL:169,11685
FNA:169,0,_ZN4mlir4sond8RegionOp21populateInherentAttrsEPNS_11MLIRContextERKNS_15EmptyPropertiesERNS_13NamedAttrListE
FNL:170,11688
FNA:170,0,_ZN4mlir4sond8RegionOp19verifyInherentAttrsENS_13OperationNameERNS_13NamedAttrListEN4llvm12function_refIFNS_18InFlightDiagnosticEvEEE
FNL:171,11692
FNA:171,0,_ZN4mlir4sond8RegionOp5buildERNS_9OpBuilderERNS_14OperationStateENS_10ValueRangeE
FNL:172,11697
FNA:172,0,_ZN4mlir4sond8RegionOp6createERNS_9OpBuilderENS_8LocationENS_10ValueRangeE
FNL:173,11705
FNA:173,0,_ZN4mlir4sond8RegionOp6createERNS_20ImplicitLocOpBuilderENS_10ValueRangeE
FNL:174,11709
FNA:174,0,_ZN4mlir4sond8RegionOp5buildERNS_9OpBuilderERNS_14OperationStateENS_9TypeRangeENS_10ValueRangeEN4llvm8ArrayRefINS_14NamedAttributeEEE
FNL:175,11718
FNA:175,0,_ZN4mlir4sond8RegionOp6createERNS_9OpBuilderENS_8LocationENS_9TypeRangeENS_10ValueRangeEN4llvm8ArrayRefINS_14NamedAttributeEEE
FNL:176,1172
FNA:176,0,_ZN4mlir4sond7CProjOp15getInherentAttrEPNS_11MLIRContextERKNS0_6detail25CProjOpGenericAdaptorBase10PropertiesEN4llvm9StringRefE
FNL:177,11726
FNA:177,0,_ZN4mlir4sond8RegionOp6createERNS_20ImplicitLocOpBuilderENS_9TypeRangeENS_10ValueRangeEN4llvm8ArrayRefINS_14NamedAttributeEEE
FNL:178,11730
FNA:178,0,_ZN4mlir4sond8RegionOp5buildERNS_9OpBuilderERNS_14OperationStateENS_9TypeRangeENS_10ValueRangeERKNS_15EmptyPropertiesEN4llvm8ArrayRefINS_14NamedAttributeEEE
FNL:179,11740
FNA:179,0,_ZN4mlir4sond8RegionOp6createERNS_9OpBuilderENS_8LocationENS_9TypeRangeENS_10ValueRangeERKNS_15EmptyPropertiesEN4llvm8ArrayRefINS_14NamedAttributeEEE
FNL:180,11748
FNA:180,0,_ZN4mlir4sond8RegionOp6createERNS_20ImplicitLocOpBuilderENS_9TypeRangeENS_10ValueRangeERKNS_15EmptyPropertiesEN4llvm8ArrayRefINS_14NamedAttributeEEE
FNL:181,11752
FNA:181,0,_ZN4mlir4sond8RegionOp20verifyInvariantsImplEv
FNL:182,11772
FNA:182,0,_ZN4mlir4sond8RegionOp16verifyInvariantsEv
FNL:183,11776
FNA:183,0,_ZN4mlir4sond8RegionOp5parseERNS_11OpAsmParserERNS_14OperationStateE
FNL:184,11797
FNA:184,0,_ZZN4mlir4sond8RegionOp5parseERNS_11OpAsmParserERNS_14OperationStateEENK3$_0clEv
FNL:185,1181
FNA:185,0,_ZN4mlir4sond7CProjOp15setInherentAttrERNS0_6detail25CProjOpGenericAdaptorBase10PropertiesEN4llvm9StringRefENS_9AttributeE
FNL:186,11811
FNA:186,0,_ZN4mlir4sond8RegionOp5printERNS_12OpAsmPrinterE
FNL:187,11837
FNA:187,0,_ZN4mlir4sond6detail26ReturnOpGenericAdaptorBaseC1ENS0_8ReturnOpE
FNA:187,0,_ZN4mlir4sond6detail26ReturnOpGenericAdaptorBaseC2ENS0_8ReturnOpE
FNL:188,11839
FNA:188,0,_ZN4mlir4sond6detail26ReturnOpGenericAdaptorBase27getODSOperandIndexAndLengthEjj
FNL:189,11849
FNA:189,0,_ZN4mlir4sond15ReturnOpAdaptorC1ENS0_8ReturnOpE
FNA:189,0,_ZN4mlir4sond15ReturnOpAdaptorC2ENS0_8ReturnOpE
FNL:190,11851
FNA:190,0,_ZN4mlir4sond15ReturnOpAdaptor6verifyENS_8LocationE
FNL:191,11855
FNA:191,0,_ZN4mlir4sond8ReturnOp27getODSOperandIndexAndLengthEj
FNL:192,11864
FNA:192,0,_ZN4mlir4sond8ReturnOp14getCtrlMutableEv
FNL:193,11870
FNA:193,0,_ZN4mlir4sond8ReturnOp13getMemMutableEv
FNL:194,11876
FNA:194,0,_ZN4mlir4sond8ReturnOp16getValuesMutableEv
FNL:195,11882
FNA:195,0,_ZN4mlir4sond8ReturnOp13getRpcMutableEv
FNL:196,11888
FNA:196,0,_ZN4mlir4sond8ReturnOp21setPropertiesFromAttrERNS0_6detail26ReturnOpGenericAdaptorBase10PropertiesENS_9AttributeEN4llvm12function_refIFNS_18InFlightDiagnosticEvEEE
FNL:197,11896
FNA:197,0,_ZZN4mlir4sond8ReturnOp21setPropertiesFromAttrERNS0_6detail26ReturnOpGenericAdaptorBase10PropertiesENS_9AttributeEN4llvm12function_refIFNS_18InFlightDiagnosticEvEEEENK3$_0clINSt3__15arrayIiLm4EEEEENS7_13LogicalResultERT_S6_SB_
FNL:198,11908
FNA:198,0,_ZN4mlir4sond8ReturnOp19getPropertiesAsAttrEPNS_11MLIRContextERKNS0_6detail26ReturnOpGenericAdaptorBase10PropertiesE
FNL:199,11914
FNA:199,0,_ZZN4mlir4sond8ReturnOp19getPropertiesAsAttrEPNS_11MLIRContextERKNS0_6detail26ReturnOpGenericAdaptorBase10PropertiesEENK3$_0clEv
FNL:200,11925
FNA:200,0,_ZN4mlir4sond8ReturnOp21computePropertiesHashERKNS0_6detail26ReturnOpGenericAdaptorBase10PropertiesE
FNL:201,11926
FNA:201,0,_ZZN4mlir4sond8ReturnOp21computePropertiesHashERKNS0_6detail26ReturnOpGenericAdaptorBase10PropertiesEENK3$_0clINSt3__15arrayIiLm4EEEEEN4llvm9hash_codeERKT_
FNL:202,1193
FNA:202,0,_ZN4mlir4sond7CProjOp21populateInherentAttrsEPNS_11MLIRContextERKNS0_6detail25CProjOpGenericAdaptorBase10PropertiesERNS_13NamedAttrListE
FNL:203,11935
FNA:203,0,_ZN4mlir4sond8ReturnOp15getInherentAttrEPNS_11MLIRContextERKNS0_6detail26ReturnOpGenericAdaptorBase10PropertiesEN4llvm9StringRefE
FNL:204,11936
FNA:204,0,_ZZN4mlir4sond8ReturnOp15getInherentAttrEPNS_11MLIRContextERKNS0_6detail26ReturnOpGenericAdaptorBase10PropertiesEN4llvm9StringRefEENK3$_0clEv
FNL:205,11940
FNA:205,0,_ZN4mlir4sond8ReturnOp15setInherentAttrERNS0_6detail26ReturnOpGenericAdaptorBase10PropertiesEN4llvm9StringRefENS_9AttributeE
FNL:206,11951
FNA:206,0,_ZN4mlir4sond8ReturnOp21populateInherentAttrsEPNS_11MLIRContextERKNS0_6detail26ReturnOpGenericAdaptorBase10PropertiesERNS_13NamedAttrListE
FNL:207,11952
FNA:207,0,_ZZN4mlir4sond8ReturnOp21populateInherentAttrsEPNS_11MLIRContextERKNS0_6detail26ReturnOpGenericAdaptorBase10PropertiesERNS_13NamedAttrListEENK3$_0clEv
FNL:208,11955
FNA:208,0,_ZN4mlir4sond8ReturnOp19verifyInherentAttrsENS_13OperationNameERNS_13NamedAttrListEN4llvm12function_refIFNS_18InFlightDiagnosticEvEEE
FNL:209,11959
FNA:209,0,_ZN4mlir4sond8ReturnOp14readPropertiesERNS_21DialectBytecodeReaderERNS_14OperationStateE
FNL:210,11974
FNA:210,0,_ZZN4mlir4sond8ReturnOp14readPropertiesERNS_21DialectBytecodeReaderERNS_14OperationStateEENK3$_0clEv
FNL:211,11987
FNA:211,0,_ZN4mlir4sond8ReturnOp15writePropertiesERNS_21DialectBytecodeWriterE
FNL:212,1199
FNA:212,0,_ZN4mlir4sond7CProjOp19verifyInherentAttrsENS_13OperationNameERNS_13NamedAttrListEN4llvm12function_refIFNS_18InFlightDiagnosticEvEEE
FNL:213,120
FNA:213,0,_ZN4mlir4sondL48__mlir_ods_local_attr_constraint_Cpp2SONDialect2ENS_9AttributeEN4llvm9StringRefENS2_12function_refIFNS_18InFlightDiagnosticEvEEE
FNL:214,12004
FNA:214,0,_ZN4mlir4sond8ReturnOp5buildERNS_9OpBuilderERNS_14OperationStateENS_5ValueES6_NS_10ValueRangeES6_
FNL:215,12015
FNA:215,0,_ZN4mlir4sond8ReturnOp6createERNS_9OpBuilderENS_8LocationENS_5ValueES5_NS_10ValueRangeES5_
FNL:216,12023
FNA:216,0,_ZN4mlir4sond8ReturnOp6createERNS_20ImplicitLocOpBuilderENS_5ValueES4_NS_10ValueRangeES4_
FNL:217,12027
FNA:217,0,_ZN4mlir4sond8ReturnOp5buildERNS_9OpBuilderERNS_14OperationStateENS_9TypeRangeENS_5ValueES7_NS_10ValueRangeES7_
FNL:218,12040
FNA:218,0,_ZN4mlir4sond8ReturnOp6createERNS_9OpBuilderENS_8LocationENS_9TypeRangeENS_5ValueES6_NS_10ValueRangeES6_
FNL:219,12048
FNA:219,0,_ZN4mlir4sond8ReturnOp6createERNS_20ImplicitLocOpBuilderENS_9TypeRangeENS_5ValueES5_NS_10ValueRangeES5_
FNL:220,12052
FNA:220,0,_ZN4mlir4sond8ReturnOp5buildERNS_9OpBuilderERNS_14OperationStateENS_9TypeRangeENS_10ValueRangeEN4llvm8ArrayRefINS_14NamedAttributeEEE
FNL:221,12069
FNA:221,0,_ZN4mlir4sond8ReturnOp6createERNS_9OpBuilderENS_8LocationENS_9TypeRangeENS_10ValueRangeEN4llvm8ArrayRefINS_14NamedAttributeEEE
FNL:222,12077
FNA:222,0,_ZN4mlir4sond8ReturnOp6createERNS_20ImplicitLocOpBuilderENS_9TypeRangeENS_10ValueRangeEN4llvm8ArrayRefINS_14NamedAttributeEEE
FNL:223,12081
FNA:223,0,_ZN4mlir4sond8ReturnOp5buildERNS_9OpBuilderERNS_14OperationStateENS_9TypeRangeENS_10ValueRangeERKNS0_6detail26ReturnOpGenericAdaptorBase10PropertiesEN4llvm8ArrayRefINS_14NamedAttributeEEE
FNL:224,12089
FNA:224,0,_ZN4mlir4sond8ReturnOp6createERNS_9OpBuilderENS_8LocationENS_9TypeRangeENS_10ValueRangeERKNS0_6detail26ReturnOpGenericAdaptorBase10PropertiesEN4llvm8ArrayRefINS_14NamedAttributeEEE
FNL:225,12097
FNA:225,0,_ZN4mlir4sond8ReturnOp6createERNS_20ImplicitLocOpBuilderENS_9TypeRangeENS_10ValueRangeERKNS0_6detail26ReturnOpGenericAdaptorBase10PropertiesEN4llvm8ArrayRefINS_14NamedAttributeEEE
FNL:226,12101
FNA:226,0,_ZN4mlir4sond8ReturnOp20verifyInvariantsImplEv
FNL:227,1214
FNA:227,0,_ZN4mlir4sond7CProjOp14readPropertiesERNS_21DialectBytecodeReaderERNS_14OperationStateE
FNL:228,12147
FNA:228,0,_ZN4mlir4sond8ReturnOp16verifyInvariantsEv
FNL:229,12151
FNA:229,0,_ZN4mlir4sond8ReturnOp5parseERNS_11OpAsmParserERNS_14OperationStateE
FNL:230,12172
FNA:230,0,_ZZN4mlir4sond8ReturnOp5parseERNS_11OpAsmParserERNS_14OperationStateEENK3$_0clEv
FNL:231,1224
FNA:231,0,_ZN4mlir4sond7CProjOp15writePropertiesERNS_21DialectBytecodeWriterE
FNL:232,12281
FNA:232,0,_ZN4mlir4sond8ReturnOp5printERNS_12OpAsmPrinterE
FNL:233,1231
FNA:233,0,_ZN4mlir4sond7CProjOp8getIndexEv
FNL:234,12322
FNA:234,0,_ZN4mlir4sond8ReturnOp27getMutableSuccessorOperandsENS_17RegionBranchPointE
FNL:235,12339
FNA:235,0,_ZN4mlir4sond6detail28RoundF32OpGenericAdaptorBaseC1ENS0_10RoundF32OpE
FNA:235,0,_ZN4mlir4sond6detail28RoundF32OpGenericAdaptorBaseC2ENS0_10RoundF32OpE
FNL:236,12342
FNA:236,0,_ZN4mlir4sond17RoundF32OpAdaptorC1ENS0_10RoundF32OpE
FNA:236,0,_ZN4mlir4sond17RoundF32OpAdaptorC2ENS0_10RoundF32OpE
FNL:237,12344
FNA:237,0,_ZN4mlir4sond17RoundF32OpAdaptor6verifyENS_8LocationE
FNL:238,12348
FNA:238,0,_ZN4mlir4sond10RoundF32Op21setPropertiesFromAttrERNS_15EmptyPropertiesENS_9AttributeEN4llvm12function_refIFNS_18InFlightDiagnosticEvEEE
FNL:239,12357
FNA:239,0,_ZN4mlir4sond10RoundF32Op19getPropertiesAsAttrEPNS_11MLIRContextERKNS_15EmptyPropertiesE
FNL:240,1236
FNA:240,0,_ZN4mlir4sond7CProjOp8getLabelEv
FNL:241,12366
FNA:241,0,_ZN4mlir4sond10RoundF32Op21computePropertiesHashERKNS_15EmptyPropertiesE
FNL:242,12371
FNA:242,0,_ZN4mlir4sond10RoundF32Op15getInherentAttrEPNS_11MLIRContextERKNS_15EmptyPropertiesEN4llvm9StringRefE
FNL:243,12375
FNA:243,0,_ZN4mlir4sond10RoundF32Op15setInherentAttrERNS_15EmptyPropertiesEN4llvm9StringRefENS_9AttributeE
FNL:244,12378
FNA:244,0,_ZN4mlir4sond10RoundF32Op21populateInherentAttrsEPNS_11MLIRContextERKNS_15EmptyPropertiesERNS_13NamedAttrListE
FNL:245,12381
FNA:245,0,_ZN4mlir4sond10RoundF32Op19verifyInherentAttrsENS_13OperationNameERNS_13NamedAttrListEN4llvm12function_refIFNS_18InFlightDiagnosticEvEEE
FNL:246,12385
FNA:246,0,_ZN4mlir4sond10RoundF32Op5buildERNS_9OpBuilderERNS_14OperationStateENS_4TypeENS_5ValueE
FNL:247,12390
FNA:247,0,_ZN4mlir4sond10RoundF32Op6createERNS_9OpBuilderENS_8LocationENS_4TypeENS_5ValueE
FNL:248,12398
FNA:248,0,_ZN4mlir4sond10RoundF32Op6createERNS_20ImplicitLocOpBuilderENS_4TypeENS_5ValueE
FNL:249,12402
FNA:249,0,_ZN4mlir4sond10RoundF32Op5buildERNS_9OpBuilderERNS_14OperationStateENS_9TypeRangeENS_5ValueE
FNL:250,12408
FNA:250,0,_ZN4mlir4sond10RoundF32Op6createERNS_9OpBuilderENS_8LocationENS_9TypeRangeENS_5ValueE
FNL:251,1241
FNA:251,0,_ZN4mlir4sond7CProjOp8setIndexEj
FNL:252,12416
FNA:252,0,_ZN4mlir4sond10RoundF32Op6createERNS_20ImplicitLocOpBuilderENS_9TypeRangeENS_5ValueE
FNL:253,12420
FNA:253,0,_ZN4mlir4sond10RoundF32Op5buildERNS_9OpBuilderERNS_14OperationStateENS_9TypeRangeENS_10ValueRangeEN4llvm8ArrayRefINS_14NamedAttributeEEE
FNL:254,12428
FNA:254,0,_ZN4mlir4sond10RoundF32Op6createERNS_9OpBuilderENS_8LocationENS_9TypeRangeENS_10ValueRangeEN4llvm8ArrayRefINS_14NamedAttributeEEE
FNL:255,12436
FNA:255,0,_ZN4mlir4sond10RoundF32Op6createERNS_20ImplicitLocOpBuilderENS_9TypeRangeENS_10ValueRangeEN4llvm8ArrayRefINS_14NamedAttributeEEE
FNL:256,12440
FNA:256,0,_ZN4mlir4sond10RoundF32Op5buildERNS_9OpBuilderERNS_14OperationStateENS_9TypeRangeENS_10ValueRangeERKNS_15EmptyPropertiesEN4llvm8ArrayRefINS_14NamedAttributeEEE
FNL:257,12449
FNA:257,0,_ZN4mlir4sond10RoundF32Op6createERNS_9OpBuilderENS_8LocationENS_9TypeRangeENS_10ValueRangeERKNS_15EmptyPropertiesEN4llvm8ArrayRefINS_14NamedAttributeEEE
FNL:258,1245
FNA:258,0,_ZN4mlir4sond7CProjOp8setLabelENSt3__18optionalIN4llvm9StringRefEEE
FNL:259,12457
FNA:259,0,_ZN4mlir4sond10RoundF32Op6createERNS_20ImplicitLocOpBuilderENS_9TypeRangeENS_10ValueRangeERKNS_15EmptyPropertiesEN4llvm8ArrayRefINS_14NamedAttributeEEE
FNL:260,12461
FNA:260,0,_ZN4mlir4sond10RoundF32Op20verifyInvariantsImplEv
FNL:261,12483
FNA:261,0,_ZN4mlir4sond10RoundF32Op16verifyInvariantsEv
FNL:262,12487
FNA:262,0,_ZN4mlir4sond10RoundF32Op5parseERNS_11OpAsmParserERNS_14OperationStateE
FNL:263,12503
FNA:263,0,_ZZN4mlir4sond10RoundF32Op5parseERNS_11OpAsmParserERNS_14OperationStateEENK3$_0clEv
FNL:264,1253
FNA:264,0,_ZN4mlir4sond7CProjOp5buildERNS_9OpBuilderERNS_14OperationStateENS_4TypeENS_5ValueENS_11IntegerAttrENS_10StringAttrE
FNL:265,12532
FNA:265,0,_ZN4mlir4sond10RoundF32Op5printERNS_12OpAsmPrinterE
FNL:266,12557
FNA:266,0,_ZN4mlir4sond10RoundF32Op10getEffectsERN4llvm15SmallVectorImplINS_11SideEffects14EffectInstanceINS_13MemoryEffects6EffectEEEEE
FNL:267,12572
FNA:267,0,_ZN4mlir4sond6detail23SarOpGenericAdaptorBaseC1ENS0_5SarOpE
FNA:267,0,_ZN4mlir4sond6detail23SarOpGenericAdaptorBaseC2ENS0_5SarOpE
FNL:268,12575
FNA:268,0,_ZN4mlir4sond12SarOpAdaptorC1ENS0_5SarOpE
FNA:268,0,_ZN4mlir4sond12SarOpAdaptorC2ENS0_5SarOpE
FNL:269,12577
FNA:269,0,_ZN4mlir4sond12SarOpAdaptor6verifyENS_8LocationE
FNL:270,12581
FNA:270,0,_ZN4mlir4sond5SarOp21setPropertiesFromAttrERNS_15EmptyPropertiesENS_9AttributeEN4llvm12function_refIFNS_18InFlightDiagnosticEvEEE
FNL:271,12590
FNA:271,0,_ZN4mlir4sond5SarOp19getPropertiesAsAttrEPNS_11MLIRContextERKNS_15EmptyPropertiesE
FNL:272,12599
FNA:272,0,_ZN4mlir4sond5SarOp21computePropertiesHashERKNS_15EmptyPropertiesE
FNL:273,12604
FNA:273,0,_ZN4mlir4sond5SarOp15getInherentAttrEPNS_11MLIRContextERKNS_15EmptyPropertiesEN4llvm9StringRefE
FNL:274,12608
FNA:274,0,_ZN4mlir4sond5SarOp15setInherentAttrERNS_15EmptyPropertiesEN4llvm9StringRefENS_9AttributeE
FNL:275,12611
FNA:275,0,_ZN4mlir4sond5SarOp21populateInherentAttrsEPNS_11MLIRContextERKNS_15EmptyPropertiesERNS_13NamedAttrListE
FNL:276,12614
FNA:276,0,_ZN4mlir4sond5SarOp19verifyInherentAttrsENS_13OperationNameERNS_13NamedAttrListEN4llvm12function_refIFNS_18InFlightDiagnosticEvEEE
FNL:277,12618
FNA:277,0,_ZN4mlir4sond5SarOp5buildERNS_9OpBuilderERNS_14OperationStateENS_4TypeENS_5ValueES7_
FNL:278,1262
FNA:278,0,_ZN4mlir4sond7CProjOp6createERNS_9OpBuilderENS_8LocationENS_4TypeENS_5ValueENS_11IntegerAttrENS_10StringAttrE
FNL:279,12624
FNA:279,0,_ZN4mlir4sond5SarOp6createERNS_9OpBuilderENS_8LocationENS_4TypeENS_5ValueES6_
FNL:280,12632
FNA:280,0,_ZN4mlir4sond5SarOp6createERNS_20ImplicitLocOpBuilderENS_4TypeENS_5ValueES5_
FNL:281,12636
FNA:281,0,_ZN4mlir4sond5SarOp5buildERNS_9OpBuilderERNS_14OperationStateENS_9TypeRangeENS_5ValueES7_
FNL:282,12643
FNA:282,0,_ZN4mlir4sond5SarOp6createERNS_9OpBuilderENS_8LocationENS_9TypeRangeENS_5ValueES6_
FNL:283,12651
FNA:283,0,_ZN4mlir4sond5SarOp6createERNS_20ImplicitLocOpBuilderENS_9TypeRangeENS_5ValueES5_
FNL:284,12655
FNA:284,0,_ZN4mlir4sond5SarOp5buildERNS_9OpBuilderERNS_14OperationStateENS_9TypeRangeENS_10ValueRangeEN4llvm8ArrayRefINS_14NamedAttributeEEE
FNL:285,12663
FNA:285,0,_ZN4mlir4sond5SarOp6createERNS_9OpBuilderENS_8LocationENS_9TypeRangeENS_10ValueRangeEN4llvm8ArrayRefINS_14NamedAttributeEEE
FNL:286,12671
FNA:286,0,_ZN4mlir4sond5SarOp6createERNS_20ImplicitLocOpBuilderENS_9TypeRangeENS_10ValueRangeEN4llvm8ArrayRefINS_14NamedAttributeEEE
FNL:287,12675
FNA:287,0,_ZN4mlir4sond5SarOp5buildERNS_9OpBuilderERNS_14OperationStateENS_9TypeRangeENS_10ValueRangeERKNS_15EmptyPropertiesEN4llvm8ArrayRefINS_14NamedAttributeEEE
FNL:288,12684
FNA:288,0,_ZN4mlir4sond5SarOp6createERNS_9OpBuilderENS_8LocationENS_9TypeRangeENS_10ValueRangeERKNS_15EmptyPropertiesEN4llvm8ArrayRefINS_14NamedAttributeEEE
FNL:289,12692
FNA:289,0,_ZN4mlir4sond5SarOp6createERNS_20ImplicitLocOpBuilderENS_9TypeRangeENS_10ValueRangeERKNS_15EmptyPropertiesEN4llvm8ArrayRefINS_14NamedAttributeEEE
FNL:290,12696
FNA:290,0,_ZN4mlir4sond5SarOp20verifyInvariantsImplEv
FNL:291,127
FNA:291,0,_ZN4mlir4sondL48__mlir_ods_local_attr_constraint_Cpp2SONDialect2EPNS_9OperationENS_9AttributeEN4llvm9StringRefE
FNL:292,1270
FNA:292,0,_ZN4mlir4sond7CProjOp6createERNS_20ImplicitLocOpBuilderENS_4TypeENS_5ValueENS_11IntegerAttrENS_10StringAttrE
FNL:293,12724
FNA:293,0,_ZN4mlir4sond5SarOp16verifyInvariantsEv
FNL:294,12728
FNA:294,0,_ZN4mlir4sond5SarOp5parseERNS_11OpAsmParserERNS_14OperationStateE
FNL:295,1274
FNA:295,0,_ZN4mlir4sond7CProjOp5buildERNS_9OpBuilderERNS_14OperationStateENS_9TypeRangeENS_5ValueENS_11IntegerAttrENS_10StringAttrE
FNL:296,12755
FNA:296,0,_ZZN4mlir4sond5SarOp5parseERNS_11OpAsmParserERNS_14OperationStateEENK3$_0clEv
FNL:297,12795
FNA:297,0,_ZN4mlir4sond5SarOp5printERNS_12OpAsmPrinterE
FNL:298,12832
FNA:298,0,_ZN4mlir4sond5SarOp10getEffectsERN4llvm15SmallVectorImplINS_11SideEffects14EffectInstanceINS_13MemoryEffects6EffectEEEEE
FNL:299,1284
FNA:299,0,_ZN4mlir4sond7CProjOp6createERNS_9OpBuilderENS_8LocationENS_9TypeRangeENS_5ValueENS_11IntegerAttrENS_10StringAttrE
FNL:300,12847
FNA:300,0,_ZN4mlir4sond6detail25ScopeOpGenericAdaptorBaseC1ENS0_7ScopeOpE
FNA:300,0,_ZN4mlir4sond6detail25ScopeOpGenericAdaptorBaseC2ENS0_7ScopeOpE
FNL:301,12849
FNA:301,0,_ZN4mlir4sond6detail25ScopeOpGenericAdaptorBase7getNameEv
FNL:302,12855
FNA:302,0,_ZN4mlir4sond14ScopeOpAdaptorC1ENS0_7ScopeOpE
FNA:302,0,_ZN4mlir4sond14ScopeOpAdaptorC2ENS0_7ScopeOpE
FNL:303,12857
FNA:303,0,_ZN4mlir4sond14ScopeOpAdaptor6verifyENS_8LocationE
FNL:304,12865
FNA:304,0,_ZN4mlir4sond7ScopeOp21setPropertiesFromAttrERNS0_6detail25ScopeOpGenericAdaptorBase10PropertiesENS_9AttributeEN4llvm12function_refIFNS_18InFlightDiagnosticEvEEE
FNL:305,12888
FNA:305,0,_ZN4mlir4sond7ScopeOp19getPropertiesAsAttrEPNS_11MLIRContextERKNS0_6detail25ScopeOpGenericAdaptorBase10PropertiesE
FNL:306,129
FNA:306,0,_ZZN4mlir4sondL48__mlir_ods_local_attr_constraint_Cpp2SONDialect2EPNS_9OperationENS_9AttributeEN4llvm9StringRefEENK3$_0clEv
FNL:307,12904
FNA:307,0,_ZN4mlir4sond7ScopeOp21computePropertiesHashERKNS0_6detail25ScopeOpGenericAdaptorBase10PropertiesE
FNL:308,12910
FNA:308,0,_ZN4mlir4sond7ScopeOp15getInherentAttrEPNS_11MLIRContextERKNS0_6detail25ScopeOpGenericAdaptorBase10PropertiesEN4llvm9StringRefE
FNL:309,12916
FNA:309,0,_ZN4mlir4sond7ScopeOp15setInherentAttrERNS0_6detail25ScopeOpGenericAdaptorBase10PropertiesEN4llvm9StringRefENS_9AttributeE
FNL:310,1292
FNA:310,0,_ZN4mlir4sond7CProjOp6createERNS_20ImplicitLocOpBuilderENS_9TypeRangeENS_5ValueENS_11IntegerAttrENS_10StringAttrE
FNL:311,12923
FNA:311,0,_ZN4mlir4sond7ScopeOp21populateInherentAttrsEPNS_11MLIRContextERKNS0_6detail25ScopeOpGenericAdaptorBase10PropertiesERNS_13NamedAttrListE
FNL:312,12927
FNA:312,0,_ZN4mlir4sond7ScopeOp19verifyInherentAttrsENS_13OperationNameERNS_13NamedAttrListEN4llvm12function_refIFNS_18InFlightDiagnosticEvEEE
FNL:313,12936
FNA:313,0,_ZN4mlir4sond7ScopeOp14readPropertiesERNS_21DialectBytecodeReaderERNS_14OperationStateE
FNL:314,12943
FNA:314,0,_ZN4mlir4sond7ScopeOp15writePropertiesERNS_21DialectBytecodeWriterE
FNL:315,12949
FNA:315,0,_ZN4mlir4sond7ScopeOp7getNameEv
FNL:316,12954
FNA:316,0,_ZN4mlir4sond7ScopeOp7setNameENSt3__18optionalIN4llvm9StringRefEEE
FNL:317,1296
FNA:317,0,_ZN4mlir4sond7CProjOp5buildERNS_9OpBuilderERNS_14OperationStateENS_4TypeENS_5ValueEjNS_10StringAttrE
FNL:318,12962
FNA:318,0,_ZN4mlir4sond7ScopeOp5buildERNS_9OpBuilderERNS_14OperationStateENS_10StringAttrE
FNL:319,12969
FNA:319,0,_ZN4mlir4sond7ScopeOp6createERNS_9OpBuilderENS_8LocationENS_10StringAttrE
FNL:320,12977
FNA:320,0,_ZN4mlir4sond7ScopeOp6createERNS_20ImplicitLocOpBuilderENS_10StringAttrE
FNL:321,12981
FNA:321,0,_ZN4mlir4sond7ScopeOp5buildERNS_9OpBuilderERNS_14OperationStateENS_9TypeRangeENS_10StringAttrE
FNL:322,12990
FNA:322,0,_ZN4mlir4sond7ScopeOp6createERNS_9OpBuilderENS_8LocationENS_9TypeRangeENS_10StringAttrE
FNL:323,12998
FNA:323,0,_ZN4mlir4sond7ScopeOp6createERNS_20ImplicitLocOpBuilderENS_9TypeRangeENS_10StringAttrE
FNL:324,13002
FNA:324,0,_ZN4mlir4sond7ScopeOp5buildERNS_9OpBuilderERNS_14OperationStateENS_9TypeRangeENS_10ValueRangeEN4llvm8ArrayRefINS_14NamedAttributeEEE
FNL:325,13022
FNA:325,0,_ZN4mlir4sond7ScopeOp6createERNS_9OpBuilderENS_8LocationENS_9TypeRangeENS_10ValueRangeEN4llvm8ArrayRefINS_14NamedAttributeEEE
FNL:326,13030
FNA:326,0,_ZN4mlir4sond7ScopeOp6createERNS_20ImplicitLocOpBuilderENS_9TypeRangeENS_10ValueRangeEN4llvm8ArrayRefINS_14NamedAttributeEEE
FNL:327,13034
FNA:327,0,_ZN4mlir4sond7ScopeOp5buildERNS_9OpBuilderERNS_14OperationStateENS_9TypeRangeENS_10ValueRangeERKNS0_6detail25ScopeOpGenericAdaptorBase10PropertiesEN4llvm8ArrayRefINS_14NamedAttributeEEE
FNL:328,13045
FNA:328,0,_ZN4mlir4sond7ScopeOp6createERNS_9OpBuilderENS_8LocationENS_9TypeRangeENS_10ValueRangeERKNS0_6detail25ScopeOpGenericAdaptorBase10PropertiesEN4llvm8ArrayRefINS_14NamedAttributeEEE
FNL:329,1305
FNA:329,0,_ZN4mlir4sond7CProjOp6createERNS_9OpBuilderENS_8LocationENS_4TypeENS_5ValueEjNS_10StringAttrE
FNL:330,13053
FNA:330,0,_ZN4mlir4sond7ScopeOp6createERNS_20ImplicitLocOpBuilderENS_9TypeRangeENS_10ValueRangeERKNS0_6detail25ScopeOpGenericAdaptorBase10PropertiesEN4llvm8ArrayRefINS_14NamedAttributeEEE
FNL:331,13057
FNA:331,0,_ZN4mlir4sond7ScopeOp20verifyInvariantsImplEv
FNL:332,13072
FNA:332,0,_ZN4mlir4sond7ScopeOp16verifyInvariantsEv
FNL:333,13076
FNA:333,0,_ZN4mlir4sond7ScopeOp5parseERNS_11OpAsmParserERNS_14OperationStateE
FNL:334,13092
FNA:334,0,_ZZN4mlir4sond7ScopeOp5parseERNS_11OpAsmParserERNS_14OperationStateEENK3$_0clEv
FNL:335,13104
FNA:335,0,_ZN4mlir4sond7ScopeOp5printERNS_12OpAsmPrinterE
FNL:336,13128
FNA:336,0,_ZN4mlir4sond6detail23ShlOpGenericAdaptorBaseC1ENS0_5ShlOpE
FNA:336,0,_ZN4mlir4sond6detail23ShlOpGenericAdaptorBaseC2ENS0_5ShlOpE
FNL:337,1313
FNA:337,0,_ZN4mlir4sond7CProjOp6createERNS_20ImplicitLocOpBuilderENS_4TypeENS_5ValueEjNS_10StringAttrE
FNL:338,13131
FNA:338,0,_ZN4mlir4sond12ShlOpAdaptorC1ENS0_5ShlOpE
FNA:338,0,_ZN4mlir4sond12ShlOpAdaptorC2ENS0_5ShlOpE
FNL:339,13133
FNA:339,0,_ZN4mlir4sond12ShlOpAdaptor6verifyENS_8LocationE
FNL:340,13137
FNA:340,0,_ZN4mlir4sond5ShlOp21setPropertiesFromAttrERNS_15EmptyPropertiesENS_9AttributeEN4llvm12function_refIFNS_18InFlightDiagnosticEvEEE
FNL:341,13146
FNA:341,0,_ZN4mlir4sond5ShlOp19getPropertiesAsAttrEPNS_11MLIRContextERKNS_15EmptyPropertiesE
FNL:342,13155
FNA:342,0,_ZN4mlir4sond5ShlOp21computePropertiesHashERKNS_15EmptyPropertiesE
FNL:343,13160
FNA:343,0,_ZN4mlir4sond5ShlOp15getInherentAttrEPNS_11MLIRContextERKNS_15EmptyPropertiesEN4llvm9StringRefE
FNL:344,13164
FNA:344,0,_ZN4mlir4sond5ShlOp15setInherentAttrERNS_15EmptyPropertiesEN4llvm9StringRefENS_9AttributeE
FNL:345,13167
FNA:345,0,_ZN4mlir4sond5ShlOp21populateInherentAttrsEPNS_11MLIRContextERKNS_15EmptyPropertiesERNS_13NamedAttrListE
FNL:346,1317
FNA:346,0,_ZN4mlir4sond7CProjOp5buildERNS_9OpBuilderERNS_14OperationStateENS_9TypeRangeENS_5ValueEjNS_10StringAttrE
FNL:347,13170
FNA:347,0,_ZN4mlir4sond5ShlOp19verifyInherentAttrsENS_13OperationNameERNS_13NamedAttrListEN4llvm12function_refIFNS_18InFlightDiagnosticEvEEE
FNL:348,13174
FNA:348,0,_ZN4mlir4sond5ShlOp5buildERNS_9OpBuilderERNS_14OperationStateENS_4TypeENS_5ValueES7_
FNL:349,13180
FNA:349,0,_ZN4mlir4sond5ShlOp6createERNS_9OpBuilderENS_8LocationENS_4TypeENS_5ValueES6_
FNL:350,13188
FNA:350,0,_ZN4mlir4sond5ShlOp6createERNS_20ImplicitLocOpBuilderENS_4TypeENS_5ValueES5_
FNL:351,13192
FNA:351,0,_ZN4mlir4sond5ShlOp5buildERNS_9OpBuilderERNS_14OperationStateENS_9TypeRangeENS_5ValueES7_
FNL:352,13199
FNA:352,0,_ZN4mlir4sond5ShlOp6createERNS_9OpBuilderENS_8LocationENS_9TypeRangeENS_5ValueES6_
FNL:353,13207
FNA:353,0,_ZN4mlir4sond5ShlOp6createERNS_20ImplicitLocOpBuilderENS_9TypeRangeENS_5ValueES5_
FNL:354,13211
FNA:354,0,_ZN4mlir4sond5ShlOp5buildERNS_9OpBuilderERNS_14OperationStateENS_9TypeRangeENS_10ValueRangeEN4llvm8ArrayRefINS_14NamedAttributeEEE
FNL:355,13219
FNA:355,0,_ZN4mlir4sond5ShlOp6createERNS_9OpBuilderENS_8LocationENS_9TypeRangeENS_10ValueRangeEN4llvm8ArrayRefINS_14NamedAttributeEEE
FNL:356,13227
FNA:356,0,_ZN4mlir4sond5ShlOp6createERNS_20ImplicitLocOpBuilderENS_9TypeRangeENS_10ValueRangeEN4llvm8ArrayRefINS_14NamedAttributeEEE
FNL:357,13231
FNA:357,0,_ZN4mlir4sond5ShlOp5buildERNS_9OpBuilderERNS_14OperationStateENS_9TypeRangeENS_10ValueRangeERKNS_15EmptyPropertiesEN4llvm8ArrayRefINS_14NamedAttributeEEE
FNL:358,13240
FNA:358,0,_ZN4mlir4sond5ShlOp6createERNS_9OpBuilderENS_8LocationENS_9TypeRangeENS_10ValueRangeERKNS_15EmptyPropertiesEN4llvm8ArrayRefINS_14NamedAttributeEEE
FNL:359,13248
FNA:359,0,_ZN4mlir4sond5ShlOp6createERNS_20ImplicitLocOpBuilderENS_9TypeRangeENS_10ValueRangeERKNS_15EmptyPropertiesEN4llvm8ArrayRefINS_14NamedAttributeEEE
FNL:360,13252
FNA:360,0,_ZN4mlir4sond5ShlOp20verifyInvariantsImplEv
FNL:361,1327
FNA:361,0,_ZN4mlir4sond7CProjOp6createERNS_9OpBuilderENS_8LocationENS_9TypeRangeENS_5ValueEjNS_10StringAttrE
FNL:362,13280
FNA:362,0,_ZN4mlir4sond5ShlOp16verifyInvariantsEv
FNL:363,13284
FNA:363,0,_ZN4mlir4sond5ShlOp5parseERNS_11OpAsmParserERNS_14OperationStateE
FNL:364,13311
FNA:364,0,_ZZN4mlir4sond5ShlOp5parseERNS_11OpAsmParserERNS_14OperationStateEENK3$_0clEv
FNL:365,1335
FNA:365,0,_ZN4mlir4sond7CProjOp6createERNS_20ImplicitLocOpBuilderENS_9TypeRangeENS_5ValueEjNS_10StringAttrE
FNL:366,13351
FNA:366,0,_ZN4mlir4sond5ShlOp5printERNS_12OpAsmPrinterE
FNL:367,13388
FNA:367,0,_ZN4mlir4sond5ShlOp10getEffectsERN4llvm15SmallVectorImplINS_11SideEffects14EffectInstanceINS_13MemoryEffects6EffectEEEEE
FNL:368,1339
FNA:368,0,_ZN4mlir4sond7CProjOp5buildERNS_9OpBuilderERNS_14OperationStateENS_9TypeRangeENS_10ValueRangeEN4llvm8ArrayRefINS_14NamedAttributeEEE
FNL:369,134
FNA:369,0,_ZN4mlir4sondL48__mlir_ods_local_attr_constraint_Cpp2SONDialect3ENS_9AttributeEN4llvm9StringRefENS2_12function_refIFNS_18InFlightDiagnosticEvEEE
FNL:370,13403
FNA:370,0,_ZN4mlir4sond6detail23ShrOpGenericAdaptorBaseC1ENS0_5ShrOpE
FNA:370,0,_ZN4mlir4sond6detail23ShrOpGenericAdaptorBaseC2ENS0_5ShrOpE
FNL:371,13406
FNA:371,0,_ZN4mlir4sond12ShrOpAdaptorC1ENS0_5ShrOpE
FNA:371,0,_ZN4mlir4sond12ShrOpAdaptorC2ENS0_5ShrOpE
FNL:372,13408
FNA:372,0,_ZN4mlir4sond12ShrOpAdaptor6verifyENS_8LocationE
FNL:373,13412
FNA:373,0,_ZN4mlir4sond5ShrOp21setPropertiesFromAttrERNS_15EmptyPropertiesENS_9AttributeEN4llvm12function_refIFNS_18InFlightDiagnosticEvEEE
FNL:374,13421
FNA:374,0,_ZN4mlir4sond5ShrOp19getPropertiesAsAttrEPNS_11MLIRContextERKNS_15EmptyPropertiesE
FNL:375,13430
FNA:375,0,_ZN4mlir4sond5ShrOp21computePropertiesHashERKNS_15EmptyPropertiesE
FNL:376,13435
FNA:376,0,_ZN4mlir4sond5ShrOp15getInherentAttrEPNS_11MLIRContextERKNS_15EmptyPropertiesEN4llvm9StringRefE
FNL:377,13439
FNA:377,0,_ZN4mlir4sond5ShrOp15setInherentAttrERNS_15EmptyPropertiesEN4llvm9StringRefENS_9AttributeE
FNL:378,13442
FNA:378,0,_ZN4mlir4sond5ShrOp21populateInherentAttrsEPNS_11MLIRContextERKNS_15EmptyPropertiesERNS_13NamedAttrListE
FNL:379,13445
FNA:379,0,_ZN4mlir4sond5ShrOp19verifyInherentAttrsENS_13OperationNameERNS_13NamedAttrListEN4llvm12function_refIFNS_18InFlightDiagnosticEvEEE
FNL:380,13449
FNA:380,0,_ZN4mlir4sond5ShrOp5buildERNS_9OpBuilderERNS_14OperationStateENS_4TypeENS_5ValueES7_
FNL:381,13455
FNA:381,0,_ZN4mlir4sond5ShrOp6createERNS_9OpBuilderENS_8LocationENS_4TypeENS_5ValueES6_
FNL:382,13463
FNA:382,0,_ZN4mlir4sond5ShrOp6createERNS_20ImplicitLocOpBuilderENS_4TypeENS_5ValueES5_
FNL:383,13467
FNA:383,0,_ZN4mlir4sond5ShrOp5buildERNS_9OpBuilderERNS_14OperationStateENS_9TypeRangeENS_5ValueES7_
FNL:384,13474
FNA:384,0,_ZN4mlir4sond5ShrOp6createERNS_9OpBuilderENS_8LocationENS_9TypeRangeENS_5ValueES6_
FNL:385,13482
FNA:385,0,_ZN4mlir4sond5ShrOp6createERNS_20ImplicitLocOpBuilderENS_9TypeRangeENS_5ValueES5_
FNL:386,13486
FNA:386,0,_ZN4mlir4sond5ShrOp5buildERNS_9OpBuilderERNS_14OperationStateENS_9TypeRangeENS_10ValueRangeEN4llvm8ArrayRefINS_14NamedAttributeEEE
FNL:387,13494
FNA:387,0,_ZN4mlir4sond5ShrOp6createERNS_9OpBuilderENS_8LocationENS_9TypeRangeENS_10ValueRangeEN4llvm8ArrayRefINS_14NamedAttributeEEE
FNL:388,13502
FNA:388,0,_ZN4mlir4sond5ShrOp6createERNS_20ImplicitLocOpBuilderENS_9TypeRangeENS_10ValueRangeEN4llvm8ArrayRefINS_14NamedAttributeEEE
FNL:389,13506
FNA:389,0,_ZN4mlir4sond5ShrOp5buildERNS_9OpBuilderERNS_14OperationStateENS_9TypeRangeENS_10ValueRangeERKNS_15EmptyPropertiesEN4llvm8ArrayRefINS_14NamedAttributeEEE
FNL:390,13515
FNA:390,0,_ZN4mlir4sond5ShrOp6createERNS_9OpBuilderENS_8LocationENS_9TypeRangeENS_10ValueRangeERKNS_15EmptyPropertiesEN4llvm8ArrayRefINS_14NamedAttributeEEE
FNL:391,13523
FNA:391,0,_ZN4mlir4sond5ShrOp6createERNS_20ImplicitLocOpBuilderENS_9TypeRangeENS_10ValueRangeERKNS_15EmptyPropertiesEN4llvm8ArrayRefINS_14NamedAttributeEEE
FNL:392,13527
FNA:392,0,_ZN4mlir4sond5ShrOp20verifyInvariantsImplEv
FNL:393,13555
FNA:393,0,_ZN4mlir4sond5ShrOp16verifyInvariantsEv
FNL:394,13559
FNA:394,0,_ZN4mlir4sond5ShrOp5parseERNS_11OpAsmParserERNS_14OperationStateE
FNL:395,1357
FNA:395,0,_ZN4mlir4sond7CProjOp6createERNS_9OpBuilderENS_8LocationENS_9TypeRangeENS_10ValueRangeEN4llvm8ArrayRefINS_14NamedAttributeEEE
FNL:396,13586
FNA:396,0,_ZZN4mlir4sond5ShrOp5parseERNS_11OpAsmParserERNS_14OperationStateEENK3$_0clEv
FNL:397,13626
FNA:397,0,_ZN4mlir4sond5ShrOp5printERNS_12OpAsmPrinterE
FNL:398,1365
FNA:398,0,_ZN4mlir4sond7CProjOp6createERNS_20ImplicitLocOpBuilderENS_9TypeRangeENS_10ValueRangeEN4llvm8ArrayRefINS_14NamedAttributeEEE
FNL:399,13663
FNA:399,0,_ZN4mlir4sond5ShrOp10getEffectsERN4llvm15SmallVectorImplINS_11SideEffects14EffectInstanceINS_13MemoryEffects6EffectEEEEE
FNL:400,13678
FNA:400,0,_ZN4mlir4sond6detail25SplitOpGenericAdaptorBaseC1ENS0_7SplitOpE
FNA:400,0,_ZN4mlir4sond6detail25SplitOpGenericAdaptorBaseC2ENS0_7SplitOpE
FNL:401,13680
FNA:401,0,_ZN4mlir4sond6detail25SplitOpGenericAdaptorBase8getAliasEv
FNL:402,13686
FNA:402,0,_ZN4mlir4sond14SplitOpAdaptorC1ENS0_7SplitOpE
FNA:402,0,_ZN4mlir4sond14SplitOpAdaptorC2ENS0_7SplitOpE
FNL:403,13688
FNA:403,0,_ZN4mlir4sond14SplitOpAdaptor6verifyENS_8LocationE
FNL:404,1369
FNA:404,0,_ZN4mlir4sond7CProjOp5buildERNS_9OpBuilderERNS_14OperationStateENS_9TypeRangeENS_10ValueRangeERKNS0_6detail25CProjOpGenericAdaptorBase10PropertiesEN4llvm8ArrayRefINS_14NamedAttributeEEE
FNL:405,13697
FNA:405,0,_ZN4mlir4sond7SplitOp21setPropertiesFromAttrERNS0_6detail25SplitOpGenericAdaptorBase10PropertiesENS_9AttributeEN4llvm12function_refIFNS_18InFlightDiagnosticEvEEE
FNL:406,13720
FNA:406,0,_ZN4mlir4sond7SplitOp19getPropertiesAsAttrEPNS_11MLIRContextERKNS0_6detail25SplitOpGenericAdaptorBase10PropertiesE
FNL:407,13736
FNA:407,0,_ZN4mlir4sond7SplitOp21computePropertiesHashERKNS0_6detail25SplitOpGenericAdaptorBase10PropertiesE
FNL:408,13742
FNA:408,0,_ZN4mlir4sond7SplitOp15getInherentAttrEPNS_11MLIRContextERKNS0_6detail25SplitOpGenericAdaptorBase10PropertiesEN4llvm9StringRefE
FNL:409,13748
FNA:409,0,_ZN4mlir4sond7SplitOp15setInherentAttrERNS0_6detail25SplitOpGenericAdaptorBase10PropertiesEN4llvm9StringRefENS_9AttributeE
FNL:410,13755
FNA:410,0,_ZN4mlir4sond7SplitOp21populateInherentAttrsEPNS_11MLIRContextERKNS0_6detail25SplitOpGenericAdaptorBase10PropertiesERNS_13NamedAttrListE
FNL:411,13759
FNA:411,0,_ZN4mlir4sond7SplitOp19verifyInherentAttrsENS_13OperationNameERNS_13NamedAttrListEN4llvm12function_refIFNS_18InFlightDiagnosticEvEEE
FNL:412,13768
FNA:412,0,_ZN4mlir4sond7SplitOp14readPropertiesERNS_21DialectBytecodeReaderERNS_14OperationStateE
FNL:413,13775
FNA:413,0,_ZN4mlir4sond7SplitOp15writePropertiesERNS_21DialectBytecodeWriterE
FNL:414,1378
FNA:414,0,_ZN4mlir4sond7CProjOp6createERNS_9OpBuilderENS_8LocationENS_9TypeRangeENS_10ValueRangeERKNS0_6detail25CProjOpGenericAdaptorBase10PropertiesEN4llvm8ArrayRefINS_14NamedAttributeEEE
FNL:415,13780
FNA:415,0,_ZN4mlir4sond7SplitOp8getAliasEv
FNL:416,13785
FNA:416,0,_ZN4mlir4sond7SplitOp8setAliasEj
FNL:417,13789
FNA:417,0,_ZN4mlir4sond7SplitOp5buildERNS_9OpBuilderERNS_14OperationStateENS_4TypeENS_5ValueENS_11IntegerAttrE
FNL:418,13795
FNA:418,0,_ZN4mlir4sond7SplitOp6createERNS_9OpBuilderENS_8LocationENS_4TypeENS_5ValueENS_11IntegerAttrE
FNL:419,13803
FNA:419,0,_ZN4mlir4sond7SplitOp6createERNS_20ImplicitLocOpBuilderENS_4TypeENS_5ValueENS_11IntegerAttrE
FNL:420,13807
FNA:420,0,_ZN4mlir4sond7SplitOp5buildERNS_9OpBuilderERNS_14OperationStateENS_9TypeRangeENS_5ValueENS_11IntegerAttrE
FNL:421,13814
FNA:421,0,_ZN4mlir4sond7SplitOp6createERNS_9OpBuilderENS_8LocationENS_9TypeRangeENS_5ValueENS_11IntegerAttrE
FNL:422,13822
FNA:422,0,_ZN4mlir4sond7SplitOp6createERNS_20ImplicitLocOpBuilderENS_9TypeRangeENS_5ValueENS_11IntegerAttrE
FNL:423,13826
FNA:423,0,_ZN4mlir4sond7SplitOp5buildERNS_9OpBuilderERNS_14OperationStateENS_4TypeENS_5ValueEj
FNL:424,13832
FNA:424,0,_ZN4mlir4sond7SplitOp6createERNS_9OpBuilderENS_8LocationENS_4TypeENS_5ValueEj
FNL:425,13840
FNA:425,0,_ZN4mlir4sond7SplitOp6createERNS_20ImplicitLocOpBuilderENS_4TypeENS_5ValueEj
FNL:426,13844
FNA:426,0,_ZN4mlir4sond7SplitOp5buildERNS_9OpBuilderERNS_14OperationStateENS_9TypeRangeENS_5ValueEj
FNL:427,13851
FNA:427,0,_ZN4mlir4sond7SplitOp6createERNS_9OpBuilderENS_8LocationENS_9TypeRangeENS_5ValueEj
FNL:428,13859
FNA:428,0,_ZN4mlir4sond7SplitOp6createERNS_20ImplicitLocOpBuilderENS_9TypeRangeENS_5ValueEj
FNL:429,1386
FNA:429,0,_ZN4mlir4sond7CProjOp6createERNS_20ImplicitLocOpBuilderENS_9TypeRangeENS_10ValueRangeERKNS0_6detail25CProjOpGenericAdaptorBase10PropertiesEN4llvm8ArrayRefINS_14NamedAttributeEEE
FNL:430,13863
FNA:430,0,_ZN4mlir4sond7SplitOp5buildERNS_9OpBuilderERNS_14OperationStateENS_9TypeRangeENS_10ValueRangeEN4llvm8ArrayRefINS_14NamedAttributeEEE
FNL:431,13881
FNA:431,0,_ZN4mlir4sond7SplitOp6createERNS_9OpBuilderENS_8LocationENS_9TypeRangeENS_10ValueRangeEN4llvm8ArrayRefINS_14NamedAttributeEEE
FNL:432,13889
FNA:432,0,_ZN4mlir4sond7SplitOp6createERNS_20ImplicitLocOpBuilderENS_9TypeRangeENS_10ValueRangeEN4llvm8ArrayRefINS_14NamedAttributeEEE
FNL:433,13893
FNA:433,0,_ZN4mlir4sond7SplitOp5buildERNS_9OpBuilderERNS_14OperationStateENS_9TypeRangeENS_10ValueRangeERKNS0_6detail25SplitOpGenericAdaptorBase10PropertiesEN4llvm8ArrayRefINS_14NamedAttributeEEE
FNL:434,1390
FNA:434,0,_ZN4mlir4sond7CProjOp20verifyInvariantsImplEv
FNL:435,13902
FNA:435,0,_ZN4mlir4sond7SplitOp6createERNS_9OpBuilderENS_8LocationENS_9TypeRangeENS_10ValueRangeERKNS0_6detail25SplitOpGenericAdaptorBase10PropertiesEN4llvm8ArrayRefINS_14NamedAttributeEEE
FNL:436,13910
FNA:436,0,_ZN4mlir4sond7SplitOp6createERNS_20ImplicitLocOpBuilderENS_9TypeRangeENS_10ValueRangeERKNS0_6detail25SplitOpGenericAdaptorBase10PropertiesEN4llvm8ArrayRefINS_14NamedAttributeEEE
FNL:437,13914
FNA:437,0,_ZN4mlir4sond7SplitOp20verifyInvariantsImplEv
FNL:438,13941
FNA:438,0,_ZN4mlir4sond7SplitOp16verifyInvariantsEv
FNL:439,13945
FNA:439,0,_ZN4mlir4sond7SplitOp5parseERNS_11OpAsmParserERNS_14OperationStateE
FNL:440,13969
FNA:440,0,_ZZN4mlir4sond7SplitOp5parseERNS_11OpAsmParserERNS_14OperationStateEENK3$_0clEv
FNL:441,13998
FNA:441,0,_ZN4mlir4sond7SplitOp5printERNS_12OpAsmPrinterE
FNL:442,14039
FNA:442,0,_ZN4mlir4sond6detail25StartOpGenericAdaptorBaseC1ENS0_7StartOpE
FNA:442,0,_ZN4mlir4sond6detail25StartOpGenericAdaptorBaseC2ENS0_7StartOpE
FNL:443,14041
FNA:443,0,_ZN4mlir4sond6detail25StartOpGenericAdaptorBase10getArgTypeEv
FNL:444,14047
FNA:444,0,_ZN4mlir4sond14StartOpAdaptorC1ENS0_7StartOpE
FNA:444,0,_ZN4mlir4sond14StartOpAdaptorC2ENS0_7StartOpE
FNL:445,14049
FNA:445,0,_ZN4mlir4sond14StartOpAdaptor6verifyENS_8LocationE
FNL:446,14057
FNA:446,0,_ZN4mlir4sond7StartOp21setPropertiesFromAttrERNS0_6detail25StartOpGenericAdaptorBase10PropertiesENS_9AttributeEN4llvm12function_refIFNS_18InFlightDiagnosticEvEEE
FNL:447,14080
FNA:447,0,_ZN4mlir4sond7StartOp19getPropertiesAsAttrEPNS_11MLIRContextERKNS0_6detail25StartOpGenericAdaptorBase10PropertiesE
FNL:448,14096
FNA:448,0,_ZN4mlir4sond7StartOp21computePropertiesHashERKNS0_6detail25StartOpGenericAdaptorBase10PropertiesE
FNL:449,141
FNA:449,0,_ZN4mlir4sondL48__mlir_ods_local_attr_constraint_Cpp2SONDialect3EPNS_9OperationENS_9AttributeEN4llvm9StringRefE
FNL:450,14102
FNA:450,0,_ZN4mlir4sond7StartOp15getInherentAttrEPNS_11MLIRContextERKNS0_6detail25StartOpGenericAdaptorBase10PropertiesEN4llvm9StringRefE
FNL:451,14108
FNA:451,0,_ZN4mlir4sond7StartOp15setInherentAttrERNS0_6detail25StartOpGenericAdaptorBase10PropertiesEN4llvm9StringRefENS_9AttributeE
FNL:452,14115
FNA:452,0,_ZN4mlir4sond7StartOp21populateInherentAttrsEPNS_11MLIRContextERKNS0_6detail25StartOpGenericAdaptorBase10PropertiesERNS_13NamedAttrListE
FNL:453,14119
FNA:453,0,_ZN4mlir4sond7StartOp19verifyInherentAttrsENS_13OperationNameERNS_13NamedAttrListEN4llvm12function_refIFNS_18InFlightDiagnosticEvEEE
FNL:454,14128
FNA:454,0,_ZN4mlir4sond7StartOp14readPropertiesERNS_21DialectBytecodeReaderERNS_14OperationStateE
FNL:455,14135
FNA:455,0,_ZN4mlir4sond7StartOp15writePropertiesERNS_21DialectBytecodeWriterE
FNL:456,14141
FNA:456,0,_ZN4mlir4sond7StartOp10getArgTypeEv
FNL:457,14146
FNA:457,0,_ZN4mlir4sond7StartOp10setArgTypeENSt3__18optionalINS_4TypeEEE
FNL:458,14154
FNA:458,0,_ZN4mlir4sond7StartOp5buildERNS_9OpBuilderERNS_14OperationStateENS_8TypeAttrE
FNL:459,14161
FNA:459,0,_ZN4mlir4sond7StartOp6createERNS_9OpBuilderENS_8LocationENS_8TypeAttrE
FNL:460,14169
FNA:460,0,_ZN4mlir4sond7StartOp6createERNS_20ImplicitLocOpBuilderENS_8TypeAttrE
FNL:461,14173
FNA:461,0,_ZN4mlir4sond7StartOp5buildERNS_9OpBuilderERNS_14OperationStateENS_9TypeRangeENS_8TypeAttrE
FNL:462,14182
FNA:462,0,_ZN4mlir4sond7StartOp6createERNS_9OpBuilderENS_8LocationENS_9TypeRangeENS_8TypeAttrE
FNL:463,14190
FNA:463,0,_ZN4mlir4sond7StartOp6createERNS_20ImplicitLocOpBuilderENS_9TypeRangeENS_8TypeAttrE
FNL:464,14194
FNA:464,0,_ZN4mlir4sond7StartOp5buildERNS_9OpBuilderERNS_14OperationStateENS_9TypeRangeENS_10ValueRangeEN4llvm8ArrayRefINS_14NamedAttributeEEE
FNL:465,1421
FNA:465,0,_ZN4mlir4sond7CProjOp16verifyInvariantsEv
FNL:466,14214
FNA:466,0,_ZN4mlir4sond7StartOp6createERNS_9OpBuilderENS_8LocationENS_9TypeRangeENS_10ValueRangeEN4llvm8ArrayRefINS_14NamedAttributeEEE
FNL:467,14222
FNA:467,0,_ZN4mlir4sond7StartOp6createERNS_20ImplicitLocOpBuilderENS_9TypeRangeENS_10ValueRangeEN4llvm8ArrayRefINS_14NamedAttributeEEE
FNL:468,14226
FNA:468,0,_ZN4mlir4sond7StartOp5buildERNS_9OpBuilderERNS_14OperationStateENS_9TypeRangeENS_10ValueRangeERKNS0_6detail25StartOpGenericAdaptorBase10PropertiesEN4llvm8ArrayRefINS_14NamedAttributeEEE
FNL:469,14237
FNA:469,0,_ZN4mlir4sond7StartOp6createERNS_9OpBuilderENS_8LocationENS_9TypeRangeENS_10ValueRangeERKNS0_6detail25StartOpGenericAdaptorBase10PropertiesEN4llvm8ArrayRefINS_14NamedAttributeEEE
FNL:470,14245
FNA:470,0,_ZN4mlir4sond7StartOp6createERNS_20ImplicitLocOpBuilderENS_9TypeRangeENS_10ValueRangeERKNS0_6detail25StartOpGenericAdaptorBase10PropertiesEN4llvm8ArrayRefINS_14NamedAttributeEEE
FNL:471,14249
FNA:471,0,_ZN4mlir4sond7StartOp20verifyInvariantsImplEv
FNL:472,1425
FNA:472,0,_ZN4mlir4sond7CProjOp5parseERNS_11OpAsmParserERNS_14OperationStateE
FNL:473,14264
FNA:473,0,_ZN4mlir4sond7StartOp16verifyInvariantsEv
FNL:474,14268
FNA:474,0,_ZN4mlir4sond7StartOp5parseERNS_11OpAsmParserERNS_14OperationStateE
FNL:475,14274
FNA:475,0,_ZZN4mlir4sond7StartOp5parseERNS_11OpAsmParserERNS_14OperationStateEENK3$_0clEv
FNL:476,14286
FNA:476,0,_ZN4mlir4sond7StartOp5printERNS_12OpAsmPrinterE
FNL:477,143
FNA:477,0,_ZZN4mlir4sondL48__mlir_ods_local_attr_constraint_Cpp2SONDialect3EPNS_9OperationENS_9AttributeEN4llvm9StringRefEENK3$_0clEv
FNL:478,14305
FNA:478,0,_ZN4mlir4sond6detail24StopOpGenericAdaptorBaseC1ENS0_6StopOpE
FNA:478,0,_ZN4mlir4sond6detail24StopOpGenericAdaptorBaseC2ENS0_6StopOpE
FNL:479,14307
FNA:479,0,_ZN4mlir4sond6detail24StopOpGenericAdaptorBase27getODSOperandIndexAndLengthEjj
FNL:480,14326
FNA:480,0,_ZN4mlir4sond13StopOpAdaptorC1ENS0_6StopOpE
FNA:480,0,_ZN4mlir4sond13StopOpAdaptorC2ENS0_6StopOpE
FNL:481,14328
FNA:481,0,_ZN4mlir4sond13StopOpAdaptor6verifyENS_8LocationE
FNL:482,14332
FNA:482,0,_ZN4mlir4sond6StopOp27getODSOperandIndexAndLengthEj
FNL:483,14350
FNA:483,0,_ZN4mlir4sond6StopOp16getInputsMutableEv
FNL:484,14356
FNA:484,0,_ZN4mlir4sond6StopOp21setPropertiesFromAttrERNS_15EmptyPropertiesENS_9AttributeEN4llvm12function_refIFNS_18InFlightDiagnosticEvEEE
FNL:485,14365
FNA:485,0,_ZN4mlir4sond6StopOp19getPropertiesAsAttrEPNS_11MLIRContextERKNS_15EmptyPropertiesE
FNL:486,14374
FNA:486,0,_ZN4mlir4sond6StopOp21computePropertiesHashERKNS_15EmptyPropertiesE
FNL:487,14379
FNA:487,0,_ZN4mlir4sond6StopOp15getInherentAttrEPNS_11MLIRContextERKNS_15EmptyPropertiesEN4llvm9StringRefE
FNL:488,14383
FNA:488,0,_ZN4mlir4sond6StopOp15setInherentAttrERNS_15EmptyPropertiesEN4llvm9StringRefENS_9AttributeE
FNL:489,14386
FNA:489,0,_ZN4mlir4sond6StopOp21populateInherentAttrsEPNS_11MLIRContextERKNS_15EmptyPropertiesERNS_13NamedAttrListE
FNL:490,14389
FNA:490,0,_ZN4mlir4sond6StopOp19verifyInherentAttrsENS_13OperationNameERNS_13NamedAttrListEN4llvm12function_refIFNS_18InFlightDiagnosticEvEEE
FNL:491,14393
FNA:491,0,_ZN4mlir4sond6StopOp5buildERNS_9OpBuilderERNS_14OperationStateENS_10ValueRangeE
FNL:492,14397
FNA:492,0,_ZN4mlir4sond6StopOp6createERNS_9OpBuilderENS_8LocationENS_10ValueRangeE
FNL:493,14405
FNA:493,0,_ZN4mlir4sond6StopOp6createERNS_20ImplicitLocOpBuilderENS_10ValueRangeE
FNL:494,14409
FNA:494,0,_ZN4mlir4sond6StopOp5buildERNS_9OpBuilderERNS_14OperationStateENS_9TypeRangeENS_10ValueRangeEN4llvm8ArrayRefINS_14NamedAttributeEEE
FNL:495,14416
FNA:495,0,_ZN4mlir4sond6StopOp6createERNS_9OpBuilderENS_8LocationENS_9TypeRangeENS_10ValueRangeEN4llvm8ArrayRefINS_14NamedAttributeEEE
FNL:496,14424
FNA:496,0,_ZN4mlir4sond6StopOp6createERNS_20ImplicitLocOpBuilderENS_9TypeRangeENS_10ValueRangeEN4llvm8ArrayRefINS_14NamedAttributeEEE
FNL:497,14428
FNA:497,0,_ZN4mlir4sond6StopOp5buildERNS_9OpBuilderERNS_14OperationStateENS_9TypeRangeENS_10ValueRangeERKNS_15EmptyPropertiesEN4llvm8ArrayRefINS_14NamedAttributeEEE
FNL:498,14436
FNA:498,0,_ZN4mlir4sond6StopOp6createERNS_9OpBuilderENS_8LocationENS_9TypeRangeENS_10ValueRangeERKNS_15EmptyPropertiesEN4llvm8ArrayRefINS_14NamedAttributeEEE
FNL:499,14444
FNA:499,0,_ZN4mlir4sond6StopOp6createERNS_20ImplicitLocOpBuilderENS_9TypeRangeENS_10ValueRangeERKNS_15EmptyPropertiesEN4llvm8ArrayRefINS_14NamedAttributeEEE
FNL:500,14448
FNA:500,0,_ZN4mlir4sond6StopOp20verifyInvariantsImplEv
FNL:501,14461
FNA:501,0,_ZN4mlir4sond6StopOp16verifyInvariantsEv
FNL:502,14465
FNA:502,0,_ZN4mlir4sond6StopOp5parseERNS_11OpAsmParserERNS_14OperationStateE
FNL:503,14485
FNA:503,0,_ZZN4mlir4sond6StopOp5parseERNS_11OpAsmParserERNS_14OperationStateEENK3$_0clEv
FNL:504,14495
FNA:504,0,_ZN4mlir4sond6StopOp5printERNS_12OpAsmPrinterE
FNL:505,14519
FNA:505,0,_ZN4mlir4sond6detail25StoreOpGenericAdaptorBaseC1ENS0_7StoreOpE
FNA:505,0,_ZN4mlir4sond6detail25StoreOpGenericAdaptorBaseC2ENS0_7StoreOpE
FNL:506,14521
FNA:506,0,_ZN4mlir4sond6detail25StoreOpGenericAdaptorBase27getODSOperandIndexAndLengthEjj
FNL:507,14539
FNA:507,0,_ZN4mlir4sond6detail25StoreOpGenericAdaptorBase7getNameEv
FNL:508,14544
FNA:508,0,_ZN4mlir4sond6detail25StoreOpGenericAdaptorBase8getAliasEv
FNL:509,14549
FNA:509,0,_ZN4mlir4sond6detail25StoreOpGenericAdaptorBase15getDeclaredTypeEv
FNL:510,14554
FNA:510,0,_ZN4mlir4sond6detail25StoreOpGenericAdaptorBase11getInitAttrEv
FNL:511,14561
FNA:511,0,_ZN4mlir4sond6detail25StoreOpGenericAdaptorBase7getInitEv
FNL:512,14569
FNA:512,0,_ZN4mlir4sond14StoreOpAdaptorC1ENS0_7StoreOpE
FNA:512,0,_ZN4mlir4sond14StoreOpAdaptorC2ENS0_7StoreOpE
FNL:513,14571
FNA:513,0,_ZN4mlir4sond14StoreOpAdaptor6verifyENS_8LocationE
FNL:514,14594
FNA:514,0,_ZN4mlir4sond7StoreOp27getODSOperandIndexAndLengthEj
FNL:515,1461
FNA:515,0,_ZZN4mlir4sond7CProjOp5parseERNS_11OpAsmParserERNS_14OperationStateEENK3$_0clEv
FNL:516,14612
FNA:516,0,_ZN4mlir4sond7StoreOp16getOffsetMutableEv
FNL:517,14618
FNA:517,0,_ZN4mlir4sond7StoreOp21setPropertiesFromAttrERNS0_6detail25StoreOpGenericAdaptorBase10PropertiesENS_9AttributeEN4llvm12function_refIFNS_18InFlightDiagnosticEvEEE
FNL:518,14683
FNA:518,0,_ZN4mlir4sond7StoreOp19getPropertiesAsAttrEPNS_11MLIRContextERKNS0_6detail25StoreOpGenericAdaptorBase10PropertiesE
FNL:519,14720
FNA:519,0,_ZN4mlir4sond7StoreOp21computePropertiesHashERKNS0_6detail25StoreOpGenericAdaptorBase10PropertiesE
FNL:520,14729
FNA:520,0,_ZN4mlir4sond7StoreOp15getInherentAttrEPNS_11MLIRContextERKNS0_6detail25StoreOpGenericAdaptorBase10PropertiesEN4llvm9StringRefE
FNL:521,14744
FNA:521,0,_ZN4mlir4sond7StoreOp15setInherentAttrERNS0_6detail25StoreOpGenericAdaptorBase10PropertiesEN4llvm9StringRefENS_9AttributeE
FNL:522,14766
FNA:522,0,_ZN4mlir4sond7StoreOp21populateInherentAttrsEPNS_11MLIRContextERKNS0_6detail25StoreOpGenericAdaptorBase10PropertiesERNS_13NamedAttrListE
FNL:523,14776
FNA:523,0,_ZN4mlir4sond7StoreOp19verifyInherentAttrsENS_13OperationNameERNS_13NamedAttrListEN4llvm12function_refIFNS_18InFlightDiagnosticEvEEE
FNL:524,148
FNA:524,0,_ZN4mlir4sondL48__mlir_ods_local_attr_constraint_Cpp2SONDialect4ENS_9AttributeEN4llvm9StringRefENS2_12function_refIFNS_18InFlightDiagnosticEvEEE
FNL:525,14803
FNA:525,0,_ZN4mlir4sond7StoreOp14readPropertiesERNS_21DialectBytecodeReaderERNS_14OperationStateE
FNL:526,14819
FNA:526,0,_ZN4mlir4sond7StoreOp15writePropertiesERNS_21DialectBytecodeWriterE
FNL:527,14828
FNA:527,0,_ZN4mlir4sond7StoreOp7getNameEv
FNL:528,14833
FNA:528,0,_ZN4mlir4sond7StoreOp8getAliasEv
FNL:529,14838
FNA:529,0,_ZN4mlir4sond7StoreOp15getDeclaredTypeEv
FNL:530,14843
FNA:530,0,_ZN4mlir4sond7StoreOp7getInitEv
FNL:531,14850
FNA:531,0,_ZN4mlir4sond7StoreOp7setNameEN4llvm9StringRefE
FNL:532,14854
FNA:532,0,_ZN4mlir4sond7StoreOp8setAliasEj
FNL:533,14858
FNA:533,0,_ZN4mlir4sond7StoreOp15setDeclaredTypeENS_4TypeE
FNL:534,14862
FNA:534,0,_ZN4mlir4sond7StoreOp7setInitEb
FNL:535,14870
FNA:535,0,_ZN4mlir4sond7StoreOp5buildERNS_9OpBuilderERNS_14OperationStateENS_4TypeENS_5ValueES7_S7_S7_NS_10StringAttrENS_11IntegerAttrENS_8TypeAttrENS_8UnitAttrE
FNL:536,14885
FNA:536,0,_ZN4mlir4sond7StoreOp6createERNS_9OpBuilderENS_8LocationENS_4TypeENS_5ValueES6_S6_S6_NS_10StringAttrENS_11IntegerAttrENS_8TypeAttrENS_8UnitAttrE
FNL:537,14893
FNA:537,0,_ZN4mlir4sond7StoreOp6createERNS_20ImplicitLocOpBuilderENS_4TypeENS_5ValueES5_S5_S5_NS_10StringAttrENS_11IntegerAttrENS_8TypeAttrENS_8UnitAttrE
FNL:538,14897
FNA:538,0,_ZN4mlir4sond7StoreOp5buildERNS_9OpBuilderERNS_14OperationStateENS_9TypeRangeENS_5ValueES7_S7_S7_NS_10StringAttrENS_11IntegerAttrENS_8TypeAttrENS_8UnitAttrE
FNL:539,1490
FNA:539,0,_ZN4mlir4sond7CProjOp5printERNS_12OpAsmPrinterE
FNL:540,14913
FNA:540,0,_ZN4mlir4sond7StoreOp6createERNS_9OpBuilderENS_8LocationENS_9TypeRangeENS_5ValueES6_S6_S6_NS_10StringAttrENS_11IntegerAttrENS_8TypeAttrENS_8UnitAttrE
FNL:541,14921
FNA:541,0,_ZN4mlir4sond7StoreOp6createERNS_20ImplicitLocOpBuilderENS_9TypeRangeENS_5ValueES5_S5_S5_NS_10StringAttrENS_11IntegerAttrENS_8TypeAttrENS_8UnitAttrE
FNL:542,14925
FNA:542,0,_ZN4mlir4sond7StoreOp5buildERNS_9OpBuilderERNS_14OperationStateENS_4TypeENS_5ValueES7_S7_S7_N4llvm9StringRefEjS6_b
FNL:543,14940
FNA:543,0,_ZN4mlir4sond7StoreOp6createERNS_9OpBuilderENS_8LocationENS_4TypeENS_5ValueES6_S6_S6_N4llvm9StringRefEjS5_b
FNL:544,14948
FNA:544,0,_ZN4mlir4sond7StoreOp6createERNS_20ImplicitLocOpBuilderENS_4TypeENS_5ValueES5_S5_S5_N4llvm9StringRefEjS4_b
FNL:545,14952
FNA:545,0,_ZN4mlir4sond7StoreOp5buildERNS_9OpBuilderERNS_14OperationStateENS_9TypeRangeENS_5ValueES7_S7_S7_N4llvm9StringRefEjNS_4TypeEb
FNL:546,14968
FNA:546,0,_ZN4mlir4sond7StoreOp6createERNS_9OpBuilderENS_8LocationENS_9TypeRangeENS_5ValueES6_S6_S6_N4llvm9StringRefEjNS_4TypeEb
FNL:547,14976
FNA:547,0,_ZN4mlir4sond7StoreOp6createERNS_20ImplicitLocOpBuilderENS_9TypeRangeENS_5ValueES5_S5_S5_N4llvm9StringRefEjNS_4TypeEb
FNL:548,14980
FNA:548,0,_ZN4mlir4sond7StoreOp5buildERNS_9OpBuilderERNS_14OperationStateENS_9TypeRangeENS_10ValueRangeEN4llvm8ArrayRefINS_14NamedAttributeEEE
FNL:549,14998
FNA:549,0,_ZN4mlir4sond7StoreOp6createERNS_9OpBuilderENS_8LocationENS_9TypeRangeENS_10ValueRangeEN4llvm8ArrayRefINS_14NamedAttributeEEE
FNL:550,15006
FNA:550,0,_ZN4mlir4sond7StoreOp6createERNS_20ImplicitLocOpBuilderENS_9TypeRangeENS_10ValueRangeEN4llvm8ArrayRefINS_14NamedAttributeEEE
FNL:551,15010
FNA:551,0,_ZN4mlir4sond7StoreOp5buildERNS_9OpBuilderERNS_14OperationStateENS_9TypeRangeENS_10ValueRangeERKNS0_6detail25StoreOpGenericAdaptorBase10PropertiesEN4llvm8ArrayRefINS_14NamedAttributeEEE
FNL:552,15019
FNA:552,0,_ZN4mlir4sond7StoreOp6createERNS_9OpBuilderENS_8LocationENS_9TypeRangeENS_10ValueRangeERKNS0_6detail25StoreOpGenericAdaptorBase10PropertiesEN4llvm8ArrayRefINS_14NamedAttributeEEE
FNL:553,15027
FNA:553,0,_ZN4mlir4sond7StoreOp6createERNS_20ImplicitLocOpBuilderENS_9TypeRangeENS_10ValueRangeERKNS0_6detail25StoreOpGenericAdaptorBase10PropertiesEN4llvm8ArrayRefINS_14NamedAttributeEEE
FNL:554,15031
FNA:554,0,_ZN4mlir4sond7StoreOp20verifyInvariantsImplEv
FNL:555,15095
FNA:555,0,_ZN4mlir4sond7StoreOp16verifyInvariantsEv
FNL:556,15099
FNA:556,0,_ZN4mlir4sond7StoreOp5parseERNS_11OpAsmParserERNS_14OperationStateE
FNL:557,15164
FNA:557,0,_ZZN4mlir4sond7StoreOp5parseERNS_11OpAsmParserERNS_14OperationStateEENK3$_0clEv
FNL:558,15218
FNA:558,0,_ZN4mlir4sond7StoreOp5printERNS_12OpAsmPrinterE
FNL:559,15295
FNA:559,0,_ZN4mlir4sond6detail26StructOpGenericAdaptorBaseC1ENS0_8StructOpE
FNA:559,0,_ZN4mlir4sond6detail26StructOpGenericAdaptorBaseC2ENS0_8StructOpE
FNL:560,15297
FNA:560,0,_ZN4mlir4sond6detail26StructOpGenericAdaptorBase7getNameEv
FNL:561,15302
FNA:561,0,_ZN4mlir4sond6detail26StructOpGenericAdaptorBase9getFieldsEv
FNL:562,15308
FNA:562,0,_ZN4mlir4sond15StructOpAdaptorC1ENS0_8StructOpE
FNA:562,0,_ZN4mlir4sond15StructOpAdaptorC2ENS0_8StructOpE
FNL:563,15310
FNA:563,0,_ZN4mlir4sond15StructOpAdaptor6verifyENS_8LocationE
FNL:564,15324
FNA:564,0,_ZN4mlir4sond8StructOp21setPropertiesFromAttrERNS0_6detail26StructOpGenericAdaptorBase10PropertiesENS_9AttributeEN4llvm12function_refIFNS_18InFlightDiagnosticEvEEE
FNL:565,15361
FNA:565,0,_ZN4mlir4sond8StructOp19getPropertiesAsAttrEPNS_11MLIRContextERKNS0_6detail26StructOpGenericAdaptorBase10PropertiesE
FNL:566,1537
FNA:566,0,_ZN4mlir4sond6detail27CallEndOpGenericAdaptorBaseC1ENS0_9CallEndOpE
FNA:566,0,_ZN4mlir4sond6detail27CallEndOpGenericAdaptorBaseC2ENS0_9CallEndOpE
FNL:567,15384
FNA:567,0,_ZN4mlir4sond8StructOp21computePropertiesHashERKNS0_6detail26StructOpGenericAdaptorBase10PropertiesE
FNL:568,15391
FNA:568,0,_ZN4mlir4sond8StructOp15getInherentAttrEPNS_11MLIRContextERKNS0_6detail26StructOpGenericAdaptorBase10PropertiesEN4llvm9StringRefE
FNL:569,1540
FNA:569,0,_ZN4mlir4sond16CallEndOpAdaptorC1ENS0_9CallEndOpE
FNA:569,0,_ZN4mlir4sond16CallEndOpAdaptorC2ENS0_9CallEndOpE
FNL:570,15400
FNA:570,0,_ZN4mlir4sond8StructOp15setInherentAttrERNS0_6detail26StructOpGenericAdaptorBase10PropertiesEN4llvm9StringRefENS_9AttributeE
FNL:571,15412
FNA:571,0,_ZN4mlir4sond8StructOp21populateInherentAttrsEPNS_11MLIRContextERKNS0_6detail26StructOpGenericAdaptorBase10PropertiesERNS_13NamedAttrListE
FNL:572,15418
FNA:572,0,_ZN4mlir4sond8StructOp19verifyInherentAttrsENS_13OperationNameERNS_13NamedAttrListEN4llvm12function_refIFNS_18InFlightDiagnosticEvEEE
FNL:573,1542
FNA:573,0,_ZN4mlir4sond16CallEndOpAdaptor6verifyENS_8LocationE
FNL:574,15433
FNA:574,0,_ZN4mlir4sond8StructOp14readPropertiesERNS_21DialectBytecodeReaderERNS_14OperationStateE
FNL:575,15443
FNA:575,0,_ZN4mlir4sond8StructOp15writePropertiesERNS_21DialectBytecodeWriterE
FNL:576,15449
FNA:576,0,_ZN4mlir4sond8StructOp7getNameEv
FNL:577,15454
FNA:577,0,_ZN4mlir4sond8StructOp9getFieldsEv
FNL:578,15459
FNA:578,0,_ZN4mlir4sond8StructOp7setNameEN4llvm9StringRefE
FNL:579,1546
FNA:579,0,_ZN4mlir4sond9CallEndOp17getAsmResultNamesEN4llvm12function_refIFvNS_5ValueENS2_9StringRefEEEE
FNL:580,15463
FNA:580,0,_ZN4mlir4sond8StructOp5buildERNS_9OpBuilderERNS_14OperationStateENS_10StringAttrENS_9ArrayAttrE
FNL:581,15469
FNA:581,0,_ZN4mlir4sond8StructOp6createERNS_9OpBuilderENS_8LocationENS_10StringAttrENS_9ArrayAttrE
FNL:582,15477
FNA:582,0,_ZN4mlir4sond8StructOp6createERNS_20ImplicitLocOpBuilderENS_10StringAttrENS_9ArrayAttrE
FNL:583,15481
FNA:583,0,_ZN4mlir4sond8StructOp5buildERNS_9OpBuilderERNS_14OperationStateENS_9TypeRangeENS_10StringAttrENS_9ArrayAttrE
FNL:584,15489
FNA:584,0,_ZN4mlir4sond8StructOp6createERNS_9OpBuilderENS_8LocationENS_9TypeRangeENS_10StringAttrENS_9ArrayAttrE
FNL:585,15497
FNA:585,0,_ZN4mlir4sond8StructOp6createERNS_20ImplicitLocOpBuilderENS_9TypeRangeENS_10StringAttrENS_9ArrayAttrE
FNL:586,155
FNA:586,0,_ZN4mlir4sondL48__mlir_ods_local_attr_constraint_Cpp2SONDialect4EPNS_9OperationENS_9AttributeEN4llvm9StringRefE
FNL:587,15501
FNA:587,0,_ZN4mlir4sond8StructOp5buildERNS_9OpBuilderERNS_14OperationStateEN4llvm9StringRefENS_9ArrayAttrE
FNL:588,15507
FNA:588,0,_ZN4mlir4sond8StructOp6createERNS_9OpBuilderENS_8LocationEN4llvm9StringRefENS_9ArrayAttrE
FNL:589,15515
FNA:589,0,_ZN4mlir4sond8StructOp6createERNS_20ImplicitLocOpBuilderEN4llvm9StringRefENS_9ArrayAttrE
FNL:590,15519
FNA:590,0,_ZN4mlir4sond8StructOp5buildERNS_9OpBuilderERNS_14OperationStateENS_9TypeRangeEN4llvm9StringRefENS_9ArrayAttrE
FNL:591,15527
FNA:591,0,_ZN4mlir4sond8StructOp6createERNS_9OpBuilderENS_8LocationENS_9TypeRangeEN4llvm9StringRefENS_9ArrayAttrE
FNL:592,15535
FNA:592,0,_ZN4mlir4sond8StructOp6createERNS_20ImplicitLocOpBuilderENS_9TypeRangeEN4llvm9StringRefENS_9ArrayAttrE
FNL:593,15539
FNA:593,0,_ZN4mlir4sond8StructOp5buildERNS_9OpBuilderERNS_14OperationStateENS_9TypeRangeENS_10ValueRangeEN4llvm8ArrayRefINS_14NamedAttributeEEE
FNL:594,15559
FNA:594,0,_ZN4mlir4sond8StructOp6createERNS_9OpBuilderENS_8LocationENS_9TypeRangeENS_10ValueRangeEN4llvm8ArrayRefINS_14NamedAttributeEEE
FNL:595,15567
FNA:595,0,_ZN4mlir4sond8StructOp6createERNS_20ImplicitLocOpBuilderENS_9TypeRangeENS_10ValueRangeEN4llvm8ArrayRefINS_14NamedAttributeEEE
FNL:596,15571
FNA:596,0,_ZN4mlir4sond8StructOp5buildERNS_9OpBuilderERNS_14OperationStateENS_9TypeRangeENS_10ValueRangeERKNS0_6detail26StructOpGenericAdaptorBase10PropertiesEN4llvm8ArrayRefINS_14NamedAttributeEEE
FNL:597,1558
FNA:597,0,_ZN4mlir4sond9CallEndOp21setPropertiesFromAttrERNS_15EmptyPropertiesENS_9AttributeEN4llvm12function_refIFNS_18InFlightDiagnosticEvEEE
FNL:598,15582
FNA:598,0,_ZN4mlir4sond8StructOp6createERNS_9OpBuilderENS_8LocationENS_9TypeRangeENS_10ValueRangeERKNS0_6detail26StructOpGenericAdaptorBase10PropertiesEN4llvm8ArrayRefINS_14NamedAttributeEEE
FNL:599,15590
FNA:599,0,_ZN4mlir4sond8StructOp6createERNS_20ImplicitLocOpBuilderENS_9TypeRangeENS_10ValueRangeERKNS0_6detail26StructOpGenericAdaptorBase10PropertiesEN4llvm8ArrayRefINS_14NamedAttributeEEE
FNL:600,15594
FNA:600,0,_ZN4mlir4sond8StructOp20verifyInvariantsImplEv
FNL:601,15615
FNA:601,0,_ZN4mlir4sond8StructOp16verifyInvariantsEv
FNL:602,15619
FNA:602,0,_ZN4mlir4sond8StructOp5parseERNS_11OpAsmParserERNS_14OperationStateE
FNL:603,15641
FNA:603,0,_ZZN4mlir4sond8StructOp5parseERNS_11OpAsmParserERNS_14OperationStateEENK3$_0clEv
FNL:604,15653
FNA:604,0,_ZN4mlir4sond8StructOp5printERNS_12OpAsmPrinterE
FNL:605,1567
FNA:605,0,_ZN4mlir4sond9CallEndOp19getPropertiesAsAttrEPNS_11MLIRContextERKNS_15EmptyPropertiesE
FNL:606,15679
FNA:606,0,_ZN4mlir4sond6detail24SubFOpGenericAdaptorBaseC1ENS0_6SubFOpE
FNA:606,0,_ZN4mlir4sond6detail24SubFOpGenericAdaptorBaseC2ENS0_6SubFOpE
FNL:607,15682
FNA:607,0,_ZN4mlir4sond13SubFOpAdaptorC1ENS0_6SubFOpE
FNA:607,0,_ZN4mlir4sond13SubFOpAdaptorC2ENS0_6SubFOpE
FNL:608,15684
FNA:608,0,_ZN4mlir4sond13SubFOpAdaptor6verifyENS_8LocationE
FNL:609,15688
FNA:609,0,_ZN4mlir4sond6SubFOp21setPropertiesFromAttrERNS_15EmptyPropertiesENS_9AttributeEN4llvm12function_refIFNS_18InFlightDiagnosticEvEEE
FNL:610,15697
FNA:610,0,_ZN4mlir4sond6SubFOp19getPropertiesAsAttrEPNS_11MLIRContextERKNS_15EmptyPropertiesE
FNL:611,157
FNA:611,0,_ZZN4mlir4sondL48__mlir_ods_local_attr_constraint_Cpp2SONDialect4EPNS_9OperationENS_9AttributeEN4llvm9StringRefEENK3$_0clEv
FNL:612,15706
FNA:612,0,_ZN4mlir4sond6SubFOp21computePropertiesHashERKNS_15EmptyPropertiesE
FNL:613,15711
FNA:613,0,_ZN4mlir4sond6SubFOp15getInherentAttrEPNS_11MLIRContextERKNS_15EmptyPropertiesEN4llvm9StringRefE
FNL:614,15715
FNA:614,0,_ZN4mlir4sond6SubFOp15setInherentAttrERNS_15EmptyPropertiesEN4llvm9StringRefENS_9AttributeE
FNL:615,15718
FNA:615,0,_ZN4mlir4sond6SubFOp21populateInherentAttrsEPNS_11MLIRContextERKNS_15EmptyPropertiesERNS_13NamedAttrListE
FNL:616,15721
FNA:616,0,_ZN4mlir4sond6SubFOp19verifyInherentAttrsENS_13OperationNameERNS_13NamedAttrListEN4llvm12function_refIFNS_18InFlightDiagnosticEvEEE
FNL:617,15725
FNA:617,0,_ZN4mlir4sond6SubFOp5buildERNS_9OpBuilderERNS_14OperationStateENS_4TypeENS_5ValueES7_
FNL:618,15731
FNA:618,0,_ZN4mlir4sond6SubFOp6createERNS_9OpBuilderENS_8LocationENS_4TypeENS_5ValueES6_
FNL:619,15739
FNA:619,0,_ZN4mlir4sond6SubFOp6createERNS_20ImplicitLocOpBuilderENS_4TypeENS_5ValueES5_
FNL:620,15743
FNA:620,0,_ZN4mlir4sond6SubFOp5buildERNS_9OpBuilderERNS_14OperationStateENS_9TypeRangeENS_5ValueES7_
FNL:621,15750
FNA:621,0,_ZN4mlir4sond6SubFOp6createERNS_9OpBuilderENS_8LocationENS_9TypeRangeENS_5ValueES6_
FNL:622,15758
FNA:622,0,_ZN4mlir4sond6SubFOp6createERNS_20ImplicitLocOpBuilderENS_9TypeRangeENS_5ValueES5_
FNL:623,1576
FNA:623,0,_ZN4mlir4sond9CallEndOp21computePropertiesHashERKNS_15EmptyPropertiesE
FNL:624,15762
FNA:624,0,_ZN4mlir4sond6SubFOp5buildERNS_9OpBuilderERNS_14OperationStateENS_9TypeRangeENS_10ValueRangeEN4llvm8ArrayRefINS_14NamedAttributeEEE
FNL:625,15770
FNA:625,0,_ZN4mlir4sond6SubFOp6createERNS_9OpBuilderENS_8LocationENS_9TypeRangeENS_10ValueRangeEN4llvm8ArrayRefINS_14NamedAttributeEEE
FNL:626,15778
FNA:626,0,_ZN4mlir4sond6SubFOp6createERNS_20ImplicitLocOpBuilderENS_9TypeRangeENS_10ValueRangeEN4llvm8ArrayRefINS_14NamedAttributeEEE
FNL:627,15782
FNA:627,0,_ZN4mlir4sond6SubFOp5buildERNS_9OpBuilderERNS_14OperationStateENS_9TypeRangeENS_10ValueRangeERKNS_15EmptyPropertiesEN4llvm8ArrayRefINS_14NamedAttributeEEE
FNL:628,15791
FNA:628,0,_ZN4mlir4sond6SubFOp6createERNS_9OpBuilderENS_8LocationENS_9TypeRangeENS_10ValueRangeERKNS_15EmptyPropertiesEN4llvm8ArrayRefINS_14NamedAttributeEEE
FNL:629,15799
FNA:629,0,_ZN4mlir4sond6SubFOp6createERNS_20ImplicitLocOpBuilderENS_9TypeRangeENS_10ValueRangeERKNS_15EmptyPropertiesEN4llvm8ArrayRefINS_14NamedAttributeEEE
FNL:630,15803
FNA:630,0,_ZN4mlir4sond6SubFOp20verifyInvariantsImplEv
FNL:631,1581
FNA:631,0,_ZN4mlir4sond9CallEndOp15getInherentAttrEPNS_11MLIRContextERKNS_15EmptyPropertiesEN4llvm9StringRefE
FNL:632,15831
FNA:632,0,_ZN4mlir4sond6SubFOp16verifyInvariantsEv
FNL:633,15835
FNA:633,0,_ZN4mlir4sond6SubFOp5parseERNS_11OpAsmParserERNS_14OperationStateE
FNL:634,1585
FNA:634,0,_ZN4mlir4sond9CallEndOp15setInherentAttrERNS_15EmptyPropertiesEN4llvm9StringRefENS_9AttributeE
FNL:635,15862
FNA:635,0,_ZZN4mlir4sond6SubFOp5parseERNS_11OpAsmParserERNS_14OperationStateEENK3$_0clEv
FNL:636,1588
FNA:636,0,_ZN4mlir4sond9CallEndOp21populateInherentAttrsEPNS_11MLIRContextERKNS_15EmptyPropertiesERNS_13NamedAttrListE
FNL:637,15902
FNA:637,0,_ZN4mlir4sond6SubFOp5printERNS_12OpAsmPrinterE
FNL:638,1591
FNA:638,0,_ZN4mlir4sond9CallEndOp19verifyInherentAttrsENS_13OperationNameERNS_13NamedAttrListEN4llvm12function_refIFNS_18InFlightDiagnosticEvEEE
FNL:639,15939
FNA:639,0,_ZN4mlir4sond6SubFOp10getEffectsERN4llvm15SmallVectorImplINS_11SideEffects14EffectInstanceINS_13MemoryEffects6EffectEEEEE
FNL:640,1595
FNA:640,0,_ZN4mlir4sond9CallEndOp5buildERNS_9OpBuilderERNS_14OperationStateENS_4TypeES6_S6_NS_5ValueE
FNL:641,15954
FNA:641,0,_ZN4mlir4sond6detail23SubOpGenericAdaptorBaseC1ENS0_5SubOpE
FNA:641,0,_ZN4mlir4sond6detail23SubOpGenericAdaptorBaseC2ENS0_5SubOpE
FNL:642,15957
FNA:642,0,_ZN4mlir4sond12SubOpAdaptorC1ENS0_5SubOpE
FNA:642,0,_ZN4mlir4sond12SubOpAdaptorC2ENS0_5SubOpE
FNL:643,15959
FNA:643,0,_ZN4mlir4sond12SubOpAdaptor6verifyENS_8LocationE
FNL:644,15963
FNA:644,0,_ZN4mlir4sond5SubOp21setPropertiesFromAttrERNS_15EmptyPropertiesENS_9AttributeEN4llvm12function_refIFNS_18InFlightDiagnosticEvEEE
FNL:645,15972
FNA:645,0,_ZN4mlir4sond5SubOp19getPropertiesAsAttrEPNS_11MLIRContextERKNS_15EmptyPropertiesE
FNL:646,15981
FNA:646,0,_ZN4mlir4sond5SubOp21computePropertiesHashERKNS_15EmptyPropertiesE
FNL:647,15986
FNA:647,0,_ZN4mlir4sond5SubOp15getInherentAttrEPNS_11MLIRContextERKNS_15EmptyPropertiesEN4llvm9StringRefE
FNL:648,15990
FNA:648,0,_ZN4mlir4sond5SubOp15setInherentAttrERNS_15EmptyPropertiesEN4llvm9StringRefENS_9AttributeE
FNL:649,15993
FNA:649,0,_ZN4mlir4sond5SubOp21populateInherentAttrsEPNS_11MLIRContextERKNS_15EmptyPropertiesERNS_13NamedAttrListE
FNL:650,15996
FNA:650,0,_ZN4mlir4sond5SubOp19verifyInherentAttrsENS_13OperationNameERNS_13NamedAttrListEN4llvm12function_refIFNS_18InFlightDiagnosticEvEEE
FNL:651,16000
FNA:651,0,_ZN4mlir4sond5SubOp5buildERNS_9OpBuilderERNS_14OperationStateENS_4TypeENS_5ValueES7_
FNL:652,16006
FNA:652,0,_ZN4mlir4sond5SubOp6createERNS_9OpBuilderENS_8LocationENS_4TypeENS_5ValueES6_
FNL:653,16014
FNA:653,0,_ZN4mlir4sond5SubOp6createERNS_20ImplicitLocOpBuilderENS_4TypeENS_5ValueES5_
FNL:654,16018
FNA:654,0,_ZN4mlir4sond5SubOp5buildERNS_9OpBuilderERNS_14OperationStateENS_9TypeRangeENS_5ValueES7_
FNL:655,1602
FNA:655,0,_ZN4mlir4sond9CallEndOp6createERNS_9OpBuilderENS_8LocationENS_4TypeES5_S5_NS_5ValueE
FNL:656,16025
FNA:656,0,_ZN4mlir4sond5SubOp6createERNS_9OpBuilderENS_8LocationENS_9TypeRangeENS_5ValueES6_
FNL:657,16033
FNA:657,0,_ZN4mlir4sond5SubOp6createERNS_20ImplicitLocOpBuilderENS_9TypeRangeENS_5ValueES5_
FNL:658,16037
FNA:658,0,_ZN4mlir4sond5SubOp5buildERNS_9OpBuilderERNS_14OperationStateENS_9TypeRangeENS_10ValueRangeEN4llvm8ArrayRefINS_14NamedAttributeEEE
FNL:659,16045
FNA:659,0,_ZN4mlir4sond5SubOp6createERNS_9OpBuilderENS_8LocationENS_9TypeRangeENS_10ValueRangeEN4llvm8ArrayRefINS_14NamedAttributeEEE
FNL:660,16053
FNA:660,0,_ZN4mlir4sond5SubOp6createERNS_20ImplicitLocOpBuilderENS_9TypeRangeENS_10ValueRangeEN4llvm8ArrayRefINS_14NamedAttributeEEE
FNL:661,16057
FNA:661,0,_ZN4mlir4sond5SubOp5buildERNS_9OpBuilderERNS_14OperationStateENS_9TypeRangeENS_10ValueRangeERKNS_15EmptyPropertiesEN4llvm8ArrayRefINS_14NamedAttributeEEE
FNL:662,16066
FNA:662,0,_ZN4mlir4sond5SubOp6createERNS_9OpBuilderENS_8LocationENS_9TypeRangeENS_10ValueRangeERKNS_15EmptyPropertiesEN4llvm8ArrayRefINS_14NamedAttributeEEE
FNL:663,16074
FNA:663,0,_ZN4mlir4sond5SubOp6createERNS_20ImplicitLocOpBuilderENS_9TypeRangeENS_10ValueRangeERKNS_15EmptyPropertiesEN4llvm8ArrayRefINS_14NamedAttributeEEE
FNL:664,16078
FNA:664,0,_ZN4mlir4sond5SubOp20verifyInvariantsImplEv
FNL:665,1610
FNA:665,0,_ZN4mlir4sond9CallEndOp6createERNS_20ImplicitLocOpBuilderENS_4TypeES4_S4_NS_5ValueE
FNL:666,16106
FNA:666,0,_ZN4mlir4sond5SubOp16verifyInvariantsEv
FNL:667,16110
FNA:667,0,_ZN4mlir4sond5SubOp5parseERNS_11OpAsmParserERNS_14OperationStateE
FNL:668,16137
FNA:668,0,_ZZN4mlir4sond5SubOp5parseERNS_11OpAsmParserERNS_14OperationStateEENK3$_0clEv
FNL:669,1614
FNA:669,0,_ZN4mlir4sond9CallEndOp5buildERNS_9OpBuilderERNS_14OperationStateENS_9TypeRangeENS_5ValueE
FNL:670,16177
FNA:670,0,_ZN4mlir4sond5SubOp5printERNS_12OpAsmPrinterE
FNL:671,162
FNA:671,0,_ZN4mlir4sondL48__mlir_ods_local_attr_constraint_Cpp2SONDialect5ENS_9AttributeEN4llvm9StringRefENS2_12function_refIFNS_18InFlightDiagnosticEvEEE
FNL:672,1620
FNA:672,0,_ZN4mlir4sond9CallEndOp6createERNS_9OpBuilderENS_8LocationENS_9TypeRangeENS_5ValueE
FNL:673,16214
FNA:673,0,_ZN4mlir4sond5SubOp10getEffectsERN4llvm15SmallVectorImplINS_11SideEffects14EffectInstanceINS_13MemoryEffects6EffectEEEEE
FNL:674,16229
FNA:674,0,_ZN4mlir4sond6detail27ToFloatOpGenericAdaptorBaseC1ENS0_9ToFloatOpE
FNA:674,0,_ZN4mlir4sond6detail27ToFloatOpGenericAdaptorBaseC2ENS0_9ToFloatOpE
FNL:675,16232
FNA:675,0,_ZN4mlir4sond16ToFloatOpAdaptorC1ENS0_9ToFloatOpE
FNA:675,0,_ZN4mlir4sond16ToFloatOpAdaptorC2ENS0_9ToFloatOpE
FNL:676,16234
FNA:676,0,_ZN4mlir4sond16ToFloatOpAdaptor6verifyENS_8LocationE
FNL:677,16238
FNA:677,0,_ZN4mlir4sond9ToFloatOp21setPropertiesFromAttrERNS_15EmptyPropertiesENS_9AttributeEN4llvm12function_refIFNS_18InFlightDiagnosticEvEEE
FNL:678,16247
FNA:678,0,_ZN4mlir4sond9ToFloatOp19getPropertiesAsAttrEPNS_11MLIRContextERKNS_15EmptyPropertiesE
FNL:679,16256
FNA:679,0,_ZN4mlir4sond9ToFloatOp21computePropertiesHashERKNS_15EmptyPropertiesE
FNL:680,16261
FNA:680,0,_ZN4mlir4sond9ToFloatOp15getInherentAttrEPNS_11MLIRContextERKNS_15EmptyPropertiesEN4llvm9StringRefE
FNL:681,16265
FNA:681,0,_ZN4mlir4sond9ToFloatOp15setInherentAttrERNS_15EmptyPropertiesEN4llvm9StringRefENS_9AttributeE
FNL:682,16268
FNA:682,0,_ZN4mlir4sond9ToFloatOp21populateInherentAttrsEPNS_11MLIRContextERKNS_15EmptyPropertiesERNS_13NamedAttrListE
FNL:683,16271
FNA:683,0,_ZN4mlir4sond9ToFloatOp19verifyInherentAttrsENS_13OperationNameERNS_13NamedAttrListEN4llvm12function_refIFNS_18InFlightDiagnosticEvEEE
FNL:684,16275
FNA:684,0,_ZN4mlir4sond9ToFloatOp5buildERNS_9OpBuilderERNS_14OperationStateENS_4TypeENS_5ValueE
FNL:685,1628
FNA:685,0,_ZN4mlir4sond9CallEndOp6createERNS_20ImplicitLocOpBuilderENS_9TypeRangeENS_5ValueE
FNL:686,16280
FNA:686,0,_ZN4mlir4sond9ToFloatOp6createERNS_9OpBuilderENS_8LocationENS_4TypeENS_5ValueE
FNL:687,16288
FNA:687,0,_ZN4mlir4sond9ToFloatOp6createERNS_20ImplicitLocOpBuilderENS_4TypeENS_5ValueE
FNL:688,16292
FNA:688,0,_ZN4mlir4sond9ToFloatOp5buildERNS_9OpBuilderERNS_14OperationStateENS_9TypeRangeENS_5ValueE
FNL:689,16298
FNA:689,0,_ZN4mlir4sond9ToFloatOp6createERNS_9OpBuilderENS_8LocationENS_9TypeRangeENS_5ValueE
FNL:690,16306
FNA:690,0,_ZN4mlir4sond9ToFloatOp6createERNS_20ImplicitLocOpBuilderENS_9TypeRangeENS_5ValueE
FNL:691,16310
FNA:691,0,_ZN4mlir4sond9ToFloatOp5buildERNS_9OpBuilderERNS_14OperationStateENS_9TypeRangeENS_10ValueRangeEN4llvm8ArrayRefINS_14NamedAttributeEEE
FNL:692,16318
FNA:692,0,_ZN4mlir4sond9ToFloatOp6createERNS_9OpBuilderENS_8LocationENS_9TypeRangeENS_10ValueRangeEN4llvm8ArrayRefINS_14NamedAttributeEEE
FNL:693,1632
FNA:693,0,_ZN4mlir4sond9CallEndOp5buildERNS_9OpBuilderERNS_14OperationStateENS_9TypeRangeENS_10ValueRangeEN4llvm8ArrayRefINS_14NamedAttributeEEE
FNL:694,16326
FNA:694,0,_ZN4mlir4sond9ToFloatOp6createERNS_20ImplicitLocOpBuilderENS_9TypeRangeENS_10ValueRangeEN4llvm8ArrayRefINS_14NamedAttributeEEE
FNL:695,16330
FNA:695,0,_ZN4mlir4sond9ToFloatOp5buildERNS_9OpBuilderERNS_14OperationStateENS_9TypeRangeENS_10ValueRangeERKNS_15EmptyPropertiesEN4llvm8ArrayRefINS_14NamedAttributeEEE
FNL:696,16339
FNA:696,0,_ZN4mlir4sond9ToFloatOp6createERNS_9OpBuilderENS_8LocationENS_9TypeRangeENS_10ValueRangeERKNS_15EmptyPropertiesEN4llvm8ArrayRefINS_14NamedAttributeEEE
FNL:697,16347
FNA:697,0,_ZN4mlir4sond9ToFloatOp6createERNS_20ImplicitLocOpBuilderENS_9TypeRangeENS_10ValueRangeERKNS_15EmptyPropertiesEN4llvm8ArrayRefINS_14NamedAttributeEEE
FNL:698,16351
FNA:698,0,_ZN4mlir4sond9ToFloatOp20verifyInvariantsImplEv
FNL:699,16373
FNA:699,0,_ZN4mlir4sond9ToFloatOp16verifyInvariantsEv
FNL:700,16377
FNA:700,0,_ZN4mlir4sond9ToFloatOp5parseERNS_11OpAsmParserERNS_14OperationStateE
FNL:701,16393
FNA:701,0,_ZZN4mlir4sond9ToFloatOp5parseERNS_11OpAsmParserERNS_14OperationStateEENK3$_0clEv
FNL:702,1640
FNA:702,0,_ZN4mlir4sond9CallEndOp6createERNS_9OpBuilderENS_8LocationENS_9TypeRangeENS_10ValueRangeEN4llvm8ArrayRefINS_14NamedAttributeEEE
FNL:703,16422
FNA:703,0,_ZN4mlir4sond9ToFloatOp5printERNS_12OpAsmPrinterE
FNL:704,16447
FNA:704,0,_ZN4mlir4sond9ToFloatOp10getEffectsERN4llvm15SmallVectorImplINS_11SideEffects14EffectInstanceINS_13MemoryEffects6EffectEEEEE
FNL:705,16462
FNA:705,0,_ZN4mlir4sond6detail25XCtrlOpGenericAdaptorBaseC1ENS0_7XCtrlOpE
FNA:705,0,_ZN4mlir4sond6detail25XCtrlOpGenericAdaptorBaseC2ENS0_7XCtrlOpE
FNL:706,16465
FNA:706,0,_ZN4mlir4sond14XCtrlOpAdaptorC1ENS0_7XCtrlOpE
FNA:706,0,_ZN4mlir4sond14XCtrlOpAdaptorC2ENS0_7XCtrlOpE
FNL:707,16467
FNA:707,0,_ZN4mlir4sond14XCtrlOpAdaptor6verifyENS_8LocationE
FNL:708,16471
FNA:708,0,_ZN4mlir4sond7XCtrlOp21setPropertiesFromAttrERNS_15EmptyPropertiesENS_9AttributeEN4llvm12function_refIFNS_18InFlightDiagnosticEvEEE
FNL:709,1648
FNA:709,0,_ZN4mlir4sond9CallEndOp6createERNS_20ImplicitLocOpBuilderENS_9TypeRangeENS_10ValueRangeEN4llvm8ArrayRefINS_14NamedAttributeEEE
FNL:710,16480
FNA:710,0,_ZN4mlir4sond7XCtrlOp19getPropertiesAsAttrEPNS_11MLIRContextERKNS_15EmptyPropertiesE
FNL:711,16489
FNA:711,0,_ZN4mlir4sond7XCtrlOp21computePropertiesHashERKNS_15EmptyPropertiesE
FNL:712,16494
FNA:712,0,_ZN4mlir4sond7XCtrlOp15getInherentAttrEPNS_11MLIRContextERKNS_15EmptyPropertiesEN4llvm9StringRefE
FNL:713,16498
FNA:713,0,_ZN4mlir4sond7XCtrlOp15setInherentAttrERNS_15EmptyPropertiesEN4llvm9StringRefENS_9AttributeE
FNL:714,16501
FNA:714,0,_ZN4mlir4sond7XCtrlOp21populateInherentAttrsEPNS_11MLIRContextERKNS_15EmptyPropertiesERNS_13NamedAttrListE
FNL:715,16504
FNA:715,0,_ZN4mlir4sond7XCtrlOp19verifyInherentAttrsENS_13OperationNameERNS_13NamedAttrListEN4llvm12function_refIFNS_18InFlightDiagnosticEvEEE
FNL:716,16508
FNA:716,0,_ZN4mlir4sond7XCtrlOp5buildERNS_9OpBuilderERNS_14OperationStateENS_4TypeE
FNL:717,16512
FNA:717,0,_ZN4mlir4sond7XCtrlOp6createERNS_9OpBuilderENS_8LocationENS_4TypeE
FNL:718,1652
FNA:718,0,_ZN4mlir4sond9CallEndOp5buildERNS_9OpBuilderERNS_14OperationStateENS_9TypeRangeENS_10ValueRangeERKNS_15EmptyPropertiesEN4llvm8ArrayRefINS_14NamedAttributeEEE
FNL:719,16520
FNA:719,0,_ZN4mlir4sond7XCtrlOp6createERNS_20ImplicitLocOpBuilderENS_4TypeE
FNL:720,16524
FNA:720,0,_ZN4mlir4sond7XCtrlOp5buildERNS_9OpBuilderERNS_14OperationStateENS_9TypeRangeE
FNL:721,16529
FNA:721,0,_ZN4mlir4sond7XCtrlOp6createERNS_9OpBuilderENS_8LocationENS_9TypeRangeE
FNL:722,16537
FNA:722,0,_ZN4mlir4sond7XCtrlOp6createERNS_20ImplicitLocOpBuilderENS_9TypeRangeE
FNL:723,16541
FNA:723,0,_ZN4mlir4sond7XCtrlOp5buildERNS_9OpBuilderERNS_14OperationStateENS_9TypeRangeENS_10ValueRangeEN4llvm8ArrayRefINS_14NamedAttributeEEE
FNL:724,16549
FNA:724,0,_ZN4mlir4sond7XCtrlOp6createERNS_9OpBuilderENS_8LocationENS_9TypeRangeENS_10ValueRangeEN4llvm8ArrayRefINS_14NamedAttributeEEE
FNL:725,16557
FNA:725,0,_ZN4mlir4sond7XCtrlOp6createERNS_20ImplicitLocOpBuilderENS_9TypeRangeENS_10ValueRangeEN4llvm8ArrayRefINS_14NamedAttributeEEE
FNL:726,16561
FNA:726,0,_ZN4mlir4sond7XCtrlOp5buildERNS_9OpBuilderERNS_14OperationStateENS_9TypeRangeENS_10ValueRangeERKNS_15EmptyPropertiesEN4llvm8ArrayRefINS_14NamedAttributeEEE
FNL:727,16570
FNA:727,0,_ZN4mlir4sond7XCtrlOp6createERNS_9OpBuilderENS_8LocationENS_9TypeRangeENS_10ValueRangeERKNS_15EmptyPropertiesEN4llvm8ArrayRefINS_14NamedAttributeEEE
FNL:728,16578
FNA:728,0,_ZN4mlir4sond7XCtrlOp6createERNS_20ImplicitLocOpBuilderENS_9TypeRangeENS_10ValueRangeERKNS_15EmptyPropertiesEN4llvm8ArrayRefINS_14NamedAttributeEEE
FNL:729,16582
FNA:729,0,_ZN4mlir4sond7XCtrlOp20verifyInvariantsImplEv
FNL:730,16595
FNA:730,0,_ZN4mlir4sond7XCtrlOp16verifyInvariantsEv
FNL:731,16599
FNA:731,0,_ZN4mlir4sond7XCtrlOp5parseERNS_11OpAsmParserERNS_14OperationStateE
FNL:732,16606
FNA:732,0,_ZZN4mlir4sond7XCtrlOp5parseERNS_11OpAsmParserERNS_14OperationStateEENK3$_0clEv
FNL:733,1661
FNA:733,0,_ZN4mlir4sond9CallEndOp6createERNS_9OpBuilderENS_8LocationENS_9TypeRangeENS_10ValueRangeERKNS_15EmptyPropertiesEN4llvm8ArrayRefINS_14NamedAttributeEEE
FNL:734,16624
FNA:734,0,_ZN4mlir4sond7XCtrlOp5printERNS_12OpAsmPrinterE
FNL:735,16638
FNA:735,0,_ZN4mlir4sond7XCtrlOp10getEffectsERN4llvm15SmallVectorImplINS_11SideEffects14EffectInstanceINS_13MemoryEffects6EffectEEEEE
FNL:736,16653
FNA:736,0,_ZN4mlir4sond6detail23XorOpGenericAdaptorBaseC1ENS0_5XorOpE
FNA:736,0,_ZN4mlir4sond6detail23XorOpGenericAdaptorBaseC2ENS0_5XorOpE
FNL:737,16656
FNA:737,0,_ZN4mlir4sond12XorOpAdaptorC1ENS0_5XorOpE
FNA:737,0,_ZN4mlir4sond12XorOpAdaptorC2ENS0_5XorOpE
FNL:738,16658
FNA:738,0,_ZN4mlir4sond12XorOpAdaptor6verifyENS_8LocationE
FNL:739,16662
FNA:739,0,_ZN4mlir4sond5XorOp21setPropertiesFromAttrERNS_15EmptyPropertiesENS_9AttributeEN4llvm12function_refIFNS_18InFlightDiagnosticEvEEE
FNL:740,16671
FNA:740,0,_ZN4mlir4sond5XorOp19getPropertiesAsAttrEPNS_11MLIRContextERKNS_15EmptyPropertiesE
FNL:741,16680
FNA:741,0,_ZN4mlir4sond5XorOp21computePropertiesHashERKNS_15EmptyPropertiesE
FNL:742,16685
FNA:742,0,_ZN4mlir4sond5XorOp15getInherentAttrEPNS_11MLIRContextERKNS_15EmptyPropertiesEN4llvm9StringRefE
FNL:743,16689
FNA:743,0,_ZN4mlir4sond5XorOp15setInherentAttrERNS_15EmptyPropertiesEN4llvm9StringRefENS_9AttributeE
FNL:744,1669
FNA:744,0,_ZN4mlir4sond9CallEndOp6createERNS_20ImplicitLocOpBuilderENS_9TypeRangeENS_10ValueRangeERKNS_15EmptyPropertiesEN4llvm8ArrayRefINS_14NamedAttributeEEE
FNL:745,16692
FNA:745,0,_ZN4mlir4sond5XorOp21populateInherentAttrsEPNS_11MLIRContextERKNS_15EmptyPropertiesERNS_13NamedAttrListE
FNL:746,16695
FNA:746,0,_ZN4mlir4sond5XorOp19verifyInherentAttrsENS_13OperationNameERNS_13NamedAttrListEN4llvm12function_refIFNS_18InFlightDiagnosticEvEEE
FNL:747,16699
FNA:747,0,_ZN4mlir4sond5XorOp5buildERNS_9OpBuilderERNS_14OperationStateENS_4TypeENS_5ValueES7_
FNL:748,16705
FNA:748,0,_ZN4mlir4sond5XorOp6createERNS_9OpBuilderENS_8LocationENS_4TypeENS_5ValueES6_
FNL:749,16713
FNA:749,0,_ZN4mlir4sond5XorOp6createERNS_20ImplicitLocOpBuilderENS_4TypeENS_5ValueES5_
FNL:750,16717
FNA:750,0,_ZN4mlir4sond5XorOp5buildERNS_9OpBuilderERNS_14OperationStateENS_9TypeRangeENS_5ValueES7_
FNL:751,16724
FNA:751,0,_ZN4mlir4sond5XorOp6createERNS_9OpBuilderENS_8LocationENS_9TypeRangeENS_5ValueES6_
FNL:752,1673
FNA:752,0,_ZN4mlir4sond9CallEndOp20verifyInvariantsImplEv
FNL:753,16732
FNA:753,0,_ZN4mlir4sond5XorOp6createERNS_20ImplicitLocOpBuilderENS_9TypeRangeENS_5ValueES5_
FNL:754,16736
FNA:754,0,_ZN4mlir4sond5XorOp5buildERNS_9OpBuilderERNS_14OperationStateENS_9TypeRangeENS_10ValueRangeEN4llvm8ArrayRefINS_14NamedAttributeEEE
FNL:755,16744
FNA:755,0,_ZN4mlir4sond5XorOp6createERNS_9OpBuilderENS_8LocationENS_9TypeRangeENS_10ValueRangeEN4llvm8ArrayRefINS_14NamedAttributeEEE
FNL:756,16752
FNA:756,0,_ZN4mlir4sond5XorOp6createERNS_20ImplicitLocOpBuilderENS_9TypeRangeENS_10ValueRangeEN4llvm8ArrayRefINS_14NamedAttributeEEE
FNL:757,16756
FNA:757,0,_ZN4mlir4sond5XorOp5buildERNS_9OpBuilderERNS_14OperationStateENS_9TypeRangeENS_10ValueRangeERKNS_15EmptyPropertiesEN4llvm8ArrayRefINS_14NamedAttributeEEE
FNL:758,16765
FNA:758,0,_ZN4mlir4sond5XorOp6createERNS_9OpBuilderENS_8LocationENS_9TypeRangeENS_10ValueRangeERKNS_15EmptyPropertiesEN4llvm8ArrayRefINS_14NamedAttributeEEE
FNL:759,16773
FNA:759,0,_ZN4mlir4sond5XorOp6createERNS_20ImplicitLocOpBuilderENS_9TypeRangeENS_10ValueRangeERKNS_15EmptyPropertiesEN4llvm8ArrayRefINS_14NamedAttributeEEE
FNL:760,16777
FNA:760,0,_ZN4mlir4sond5XorOp20verifyInvariantsImplEv
FNL:761,16805
FNA:761,0,_ZN4mlir4sond5XorOp16verifyInvariantsEv
FNL:762,16809
FNA:762,0,_ZN4mlir4sond5XorOp5parseERNS_11OpAsmParserERNS_14OperationStateE
FNL:763,16836
FNA:763,0,_ZZN4mlir4sond5XorOp5parseERNS_11OpAsmParserERNS_14OperationStateEENK3$_0clEv
FNL:764,16876
FNA:764,0,_ZN4mlir4sond5XorOp5printERNS_12OpAsmPrinterE
FNL:765,169
FNA:765,0,_ZN4mlir4sondL48__mlir_ods_local_attr_constraint_Cpp2SONDialect5EPNS_9OperationENS_9AttributeEN4llvm9StringRefE
FNL:766,16913
FNA:766,0,_ZN4mlir4sond5XorOp10getEffectsERN4llvm15SmallVectorImplINS_11SideEffects14EffectInstanceINS_13MemoryEffects6EffectEEEEE
FNL:767,1707
FNA:767,0,_ZN4mlir4sond9CallEndOp16verifyInvariantsEv
FNL:768,171
FNA:768,0,_ZZN4mlir4sondL48__mlir_ods_local_attr_constraint_Cpp2SONDialect5EPNS_9OperationENS_9AttributeEN4llvm9StringRefEENK3$_0clEv
FNL:769,1711
FNA:769,0,_ZN4mlir4sond9CallEndOp5parseERNS_11OpAsmParserERNS_14OperationStateE
FNL:770,1731
FNA:770,0,_ZZN4mlir4sond9CallEndOp5parseERNS_11OpAsmParserERNS_14OperationStateEENK3$_0clEv
FNL:771,176
FNA:771,0,_ZN4mlir4sondL48__mlir_ods_local_attr_constraint_Cpp2SONDialect6ENS_9AttributeEN4llvm9StringRefENS2_12function_refIFNS_18InFlightDiagnosticEvEEE
FNL:772,1780
FNA:772,0,_ZN4mlir4sond9CallEndOp5printERNS_12OpAsmPrinterE
FNL:773,183
FNA:773,0,_ZN4mlir4sondL48__mlir_ods_local_attr_constraint_Cpp2SONDialect6EPNS_9OperationENS_9AttributeEN4llvm9StringRefE
FNL:774,1835
FNA:774,0,_ZN4mlir4sond6detail24CallOpGenericAdaptorBaseC1ENS0_6CallOpE
FNA:774,0,_ZN4mlir4sond6detail24CallOpGenericAdaptorBaseC2ENS0_6CallOpE
FNL:775,1837
FNA:775,0,_ZN4mlir4sond6detail24CallOpGenericAdaptorBase27getODSOperandIndexAndLengthEjj
FNL:776,185
FNA:776,0,_ZZN4mlir4sondL48__mlir_ods_local_attr_constraint_Cpp2SONDialect6EPNS_9OperationENS_9AttributeEN4llvm9StringRefEENK3$_0clEv
FNL:777,1855
FNA:777,0,_ZN4mlir4sond6detail24CallOpGenericAdaptorBase9getCalleeEv
FNL:778,1861
FNA:778,0,_ZN4mlir4sond13CallOpAdaptorC1ENS0_6CallOpE
FNA:778,0,_ZN4mlir4sond13CallOpAdaptorC2ENS0_6CallOpE
FNL:779,1863
FNA:779,0,_ZN4mlir4sond13CallOpAdaptor6verifyENS_8LocationE
FNL:780,1871
FNA:780,0,_ZN4mlir4sond6CallOp27getODSOperandIndexAndLengthEj
FNL:781,1889
FNA:781,0,_ZN4mlir4sond6CallOp14getArgsMutableEv
FNL:782,1895
FNA:782,0,_ZN4mlir4sond6CallOp21setPropertiesFromAttrERNS0_6detail24CallOpGenericAdaptorBase10PropertiesENS_9AttributeEN4llvm12function_refIFNS_18InFlightDiagnosticEvEEE
FNL:783,190
FNA:783,0,_ZN4mlir4sondL48__mlir_ods_local_attr_constraint_Cpp2SONDialect7ENS_9AttributeEN4llvm9StringRefENS2_12function_refIFNS_18InFlightDiagnosticEvEEE
FNL:784,1918
FNA:784,0,_ZN4mlir4sond6CallOp19getPropertiesAsAttrEPNS_11MLIRContextERKNS0_6detail24CallOpGenericAdaptorBase10PropertiesE
FNL:785,1934
FNA:785,0,_ZN4mlir4sond6CallOp21computePropertiesHashERKNS0_6detail24CallOpGenericAdaptorBase10PropertiesE
FNL:786,1940
FNA:786,0,_ZN4mlir4sond6CallOp15getInherentAttrEPNS_11MLIRContextERKNS0_6detail24CallOpGenericAdaptorBase10PropertiesEN4llvm9StringRefE
FNL:787,1946
FNA:787,0,_ZN4mlir4sond6CallOp15setInherentAttrERNS0_6detail24CallOpGenericAdaptorBase10PropertiesEN4llvm9StringRefENS_9AttributeE
FNL:788,1953
FNA:788,0,_ZN4mlir4sond6CallOp21populateInherentAttrsEPNS_11MLIRContextERKNS0_6detail24CallOpGenericAdaptorBase10PropertiesERNS_13NamedAttrListE
FNL:789,1957
FNA:789,0,_ZN4mlir4sond6CallOp19verifyInherentAttrsENS_13OperationNameERNS_13NamedAttrListEN4llvm12function_refIFNS_18InFlightDiagnosticEvEEE
FNL:790,1966
FNA:790,0,_ZN4mlir4sond6CallOp14readPropertiesERNS_21DialectBytecodeReaderERNS_14OperationStateE
FNL:791,197
FNA:791,0,_ZN4mlir4sondL48__mlir_ods_local_attr_constraint_Cpp2SONDialect7EPNS_9OperationENS_9AttributeEN4llvm9StringRefE
FNL:792,1973
FNA:792,0,_ZN4mlir4sond6CallOp15writePropertiesERNS_21DialectBytecodeWriterE
FNL:793,1979
FNA:793,0,_ZN4mlir4sond6CallOp9getCalleeEv
FNL:794,1984
FNA:794,0,_ZN4mlir4sond6CallOp9setCalleeENSt3__18optionalIN4llvm9StringRefEEE
FNL:795,199
FNA:795,0,_ZZN4mlir4sondL48__mlir_ods_local_attr_constraint_Cpp2SONDialect7EPNS_9OperationENS_9AttributeEN4llvm9StringRefEENK3$_0clEv
FNL:796,1992
FNA:796,0,_ZN4mlir4sond6CallOp5buildERNS_9OpBuilderERNS_14OperationStateENS_4TypeENS_5ValueES7_NS_10ValueRangeES7_NS_10StringAttrE
FNL:797,2003
FNA:797,0,_ZN4mlir4sond6CallOp6createERNS_9OpBuilderENS_8LocationENS_4TypeENS_5ValueES6_NS_10ValueRangeES6_NS_10StringAttrE
FNL:798,2011
FNA:798,0,_ZN4mlir4sond6CallOp6createERNS_20ImplicitLocOpBuilderENS_4TypeENS_5ValueES5_NS_10ValueRangeES5_NS_10StringAttrE
FNL:799,2015
FNA:799,0,_ZN4mlir4sond6CallOp5buildERNS_9OpBuilderERNS_14OperationStateENS_9TypeRangeENS_5ValueES7_NS_10ValueRangeES7_NS_10StringAttrE
FNL:800,2027
FNA:800,0,_ZN4mlir4sond6CallOp6createERNS_9OpBuilderENS_8LocationENS_9TypeRangeENS_5ValueES6_NS_10ValueRangeES6_NS_10StringAttrE
FNL:801,2035
FNA:801,0,_ZN4mlir4sond6CallOp6createERNS_20ImplicitLocOpBuilderENS_9TypeRangeENS_5ValueES5_NS_10ValueRangeES5_NS_10StringAttrE
FNL:802,2039
FNA:802,0,_ZN4mlir4sond6CallOp5buildERNS_9OpBuilderERNS_14OperationStateENS_9TypeRangeENS_10ValueRangeEN4llvm8ArrayRefINS_14NamedAttributeEEE
FNL:803,204
FNA:803,0,_ZN4mlir4sondL48__mlir_ods_local_attr_constraint_Cpp2SONDialect8ENS_9AttributeEN4llvm9StringRefENS2_12function_refIFNS_18InFlightDiagnosticEvEEE
FNL:804,2057
FNA:804,0,_ZN4mlir4sond6CallOp6createERNS_9OpBuilderENS_8LocationENS_9TypeRangeENS_10ValueRangeEN4llvm8ArrayRefINS_14NamedAttributeEEE
FNL:805,2065
FNA:805,0,_ZN4mlir4sond6CallOp6createERNS_20ImplicitLocOpBuilderENS_9TypeRangeENS_10ValueRangeEN4llvm8ArrayRefINS_14NamedAttributeEEE
FNL:806,2069
FNA:806,0,_ZN4mlir4sond6CallOp5buildERNS_9OpBuilderERNS_14OperationStateENS_9TypeRangeENS_10ValueRangeERKNS0_6detail24CallOpGenericAdaptorBase10PropertiesEN4llvm8ArrayRefINS_14NamedAttributeEEE
FNL:807,2078
FNA:807,0,_ZN4mlir4sond6CallOp6createERNS_9OpBuilderENS_8LocationENS_9TypeRangeENS_10ValueRangeERKNS0_6detail24CallOpGenericAdaptorBase10PropertiesEN4llvm8ArrayRefINS_14NamedAttributeEEE
FNL:808,2086
FNA:808,0,_ZN4mlir4sond6CallOp6createERNS_20ImplicitLocOpBuilderENS_9TypeRangeENS_10ValueRangeERKNS0_6detail24CallOpGenericAdaptorBase10PropertiesEN4llvm8ArrayRefINS_14NamedAttributeEEE
FNL:809,2090
FNA:809,0,_ZN4mlir4sond6CallOp20verifyInvariantsImplEv
FNL:810,211
FNA:810,0,_ZN4mlir4sondL48__mlir_ods_local_attr_constraint_Cpp2SONDialect8EPNS_9OperationENS_9AttributeEN4llvm9StringRefE
FNL:811,213
FNA:811,0,_ZZN4mlir4sondL48__mlir_ods_local_attr_constraint_Cpp2SONDialect8EPNS_9OperationENS_9AttributeEN4llvm9StringRefEENK3$_0clEv
FNL:812,2134
FNA:812,0,_ZN4mlir4sond6CallOp16verifyInvariantsEv
FNL:813,2138
FNA:813,0,_ZN4mlir4sond6CallOp5parseERNS_11OpAsmParserERNS_14OperationStateE
FNL:814,218
FNA:814,0,_ZN4mlir4sondL48__mlir_ods_local_attr_constraint_Cpp2SONDialect9ENS_9AttributeEN4llvm9StringRefENS2_12function_refIFNS_18InFlightDiagnosticEvEEE
FNL:815,2198
FNA:815,0,_ZZN4mlir4sond6CallOp5parseERNS_11OpAsmParserERNS_14OperationStateEENK3$_0clEv
FNL:816,225
FNA:816,0,_ZN4mlir4sondL48__mlir_ods_local_attr_constraint_Cpp2SONDialect9EPNS_9OperationENS_9AttributeEN4llvm9StringRefE
FNL:817,2256
FNA:817,0,_ZN4mlir4sond6CallOp5printERNS_12OpAsmPrinterE
FNL:818,227
FNA:818,0,_ZZN4mlir4sondL48__mlir_ods_local_attr_constraint_Cpp2SONDialect9EPNS_9OperationENS_9AttributeEN4llvm9StringRefEENK3$_0clEv
FNL:819,232
FNA:819,0,_ZN4mlir4sondL50__mlir_ods_local_region_constraint_Cpp2SONDialect1EPNS_9OperationERNS_6RegionEN4llvm9StringRefEj
FNL:820,2327
FNA:820,0,_ZN4mlir4sond6detail30CalleeSaveOpGenericAdaptorBaseC1ENS0_12CalleeSaveOpE
FNA:820,0,_ZN4mlir4sond6detail30CalleeSaveOpGenericAdaptorBaseC2ENS0_12CalleeSaveOpE
FNL:821,2329
FNA:821,0,_ZN4mlir4sond6detail30CalleeSaveOpGenericAdaptorBase6getRegEv
FNL:822,2335
FNA:822,0,_ZN4mlir4sond19CalleeSaveOpAdaptorC1ENS0_12CalleeSaveOpE
FNA:822,0,_ZN4mlir4sond19CalleeSaveOpAdaptorC2ENS0_12CalleeSaveOpE
FNL:823,2337
FNA:823,0,_ZN4mlir4sond19CalleeSaveOpAdaptor6verifyENS_8LocationE
FNL:824,2346
FNA:824,0,_ZN4mlir4sond12CalleeSaveOp21setPropertiesFromAttrERNS0_6detail30CalleeSaveOpGenericAdaptorBase10PropertiesENS_9AttributeEN4llvm12function_refIFNS_18InFlightDiagnosticEvEEE
FNL:825,2369
FNA:825,0,_ZN4mlir4sond12CalleeSaveOp19getPropertiesAsAttrEPNS_11MLIRContextERKNS0_6detail30CalleeSaveOpGenericAdaptorBase10PropertiesE
FNL:826,2385
FNA:826,0,_ZN4mlir4sond12CalleeSaveOp21computePropertiesHashERKNS0_6detail30CalleeSaveOpGenericAdaptorBase10PropertiesE
FNL:827,2391
FNA:827,0,_ZN4mlir4sond12CalleeSaveOp15getInherentAttrEPNS_11MLIRContextERKNS0_6detail30CalleeSaveOpGenericAdaptorBase10PropertiesEN4llvm9StringRefE
FNL:828,2397
FNA:828,0,_ZN4mlir4sond12CalleeSaveOp15setInherentAttrERNS0_6detail30CalleeSaveOpGenericAdaptorBase10PropertiesEN4llvm9StringRefENS_9AttributeE
FNL:829,2404
FNA:829,0,_ZN4mlir4sond12CalleeSaveOp21populateInherentAttrsEPNS_11MLIRContextERKNS0_6detail30CalleeSaveOpGenericAdaptorBase10PropertiesERNS_13NamedAttrListE
FNL:830,2408
FNA:830,0,_ZN4mlir4sond12CalleeSaveOp19verifyInherentAttrsENS_13OperationNameERNS_13NamedAttrListEN4llvm12function_refIFNS_18InFlightDiagnosticEvEEE
FNL:831,2417
FNA:831,0,_ZN4mlir4sond12CalleeSaveOp14readPropertiesERNS_21DialectBytecodeReaderERNS_14OperationStateE
FNL:832,2424
FNA:832,0,_ZN4mlir4sond12CalleeSaveOp15writePropertiesERNS_21DialectBytecodeWriterE
FNL:833,2429
FNA:833,0,_ZN4mlir4sond12CalleeSaveOp6getRegEv
FNL:834,2434
FNA:834,0,_ZN4mlir4sond12CalleeSaveOp6setRegEj
FNL:835,2438
FNA:835,0,_ZN4mlir4sond12CalleeSaveOp5buildERNS_9OpBuilderERNS_14OperationStateENS_4TypeENS_5ValueENS_11IntegerAttrE
FNL:836,2444
FNA:836,0,_ZN4mlir4sond12CalleeSaveOp6createERNS_9OpBuilderENS_8LocationENS_4TypeENS_5ValueENS_11IntegerAttrE
FNL:837,2452
FNA:837,0,_ZN4mlir4sond12CalleeSaveOp6createERNS_20ImplicitLocOpBuilderENS_4TypeENS_5ValueENS_11IntegerAttrE
FNL:838,2456
FNA:838,0,_ZN4mlir4sond12CalleeSaveOp5buildERNS_9OpBuilderERNS_14OperationStateENS_9TypeRangeENS_5ValueENS_11IntegerAttrE
FNL:839,2463
FNA:839,0,_ZN4mlir4sond12CalleeSaveOp6createERNS_9OpBuilderENS_8LocationENS_9TypeRangeENS_5ValueENS_11IntegerAttrE
FNL:840,2471
FNA:840,0,_ZN4mlir4sond12CalleeSaveOp6createERNS_20ImplicitLocOpBuilderENS_9TypeRangeENS_5ValueENS_11IntegerAttrE
FNL:841,2475
FNA:841,0,_ZN4mlir4sond12CalleeSaveOp5buildERNS_9OpBuilderERNS_14OperationStateENS_4TypeENS_5ValueEj
FNL:842,2481
FNA:842,0,_ZN4mlir4sond12CalleeSaveOp6createERNS_9OpBuilderENS_8LocationENS_4TypeENS_5ValueEj
FNL:843,2489
FNA:843,0,_ZN4mlir4sond12CalleeSaveOp6createERNS_20ImplicitLocOpBuilderENS_4TypeENS_5ValueEj
FNL:844,2493
FNA:844,0,_ZN4mlir4sond12CalleeSaveOp5buildERNS_9OpBuilderERNS_14OperationStateENS_9TypeRangeENS_5ValueEj
FNL:845,2500
FNA:845,0,_ZN4mlir4sond12CalleeSaveOp6createERNS_9OpBuilderENS_8LocationENS_9TypeRangeENS_5ValueEj
FNL:846,2508
FNA:846,0,_ZN4mlir4sond12CalleeSaveOp6createERNS_20ImplicitLocOpBuilderENS_9TypeRangeENS_5ValueEj
FNL:847,2512
FNA:847,0,_ZN4mlir4sond12CalleeSaveOp5buildERNS_9OpBuilderERNS_14OperationStateENS_9TypeRangeENS_10ValueRangeEN4llvm8ArrayRefINS_14NamedAttributeEEE
FNL:848,252
FNA:848,0,_ZN4mlir4sond6detail24AddFOpGenericAdaptorBaseC1ENS0_6AddFOpE
FNA:848,0,_ZN4mlir4sond6detail24AddFOpGenericAdaptorBaseC2ENS0_6AddFOpE
FNL:849,2530
FNA:849,0,_ZN4mlir4sond12CalleeSaveOp6createERNS_9OpBuilderENS_8LocationENS_9TypeRangeENS_10ValueRangeEN4llvm8ArrayRefINS_14NamedAttributeEEE
FNL:850,2538
FNA:850,0,_ZN4mlir4sond12CalleeSaveOp6createERNS_20ImplicitLocOpBuilderENS_9TypeRangeENS_10ValueRangeEN4llvm8ArrayRefINS_14NamedAttributeEEE
FNL:851,2542
FNA:851,0,_ZN4mlir4sond12CalleeSaveOp5buildERNS_9OpBuilderERNS_14OperationStateENS_9TypeRangeENS_10ValueRangeERKNS0_6detail30CalleeSaveOpGenericAdaptorBase10PropertiesEN4llvm8ArrayRefINS_14NamedAttributeEEE
FNL:852,255
FNA:852,0,_ZN4mlir4sond13AddFOpAdaptorC1ENS0_6AddFOpE
FNA:852,0,_ZN4mlir4sond13AddFOpAdaptorC2ENS0_6AddFOpE
FNL:853,2551
FNA:853,0,_ZN4mlir4sond12CalleeSaveOp6createERNS_9OpBuilderENS_8LocationENS_9TypeRangeENS_10ValueRangeERKNS0_6detail30CalleeSaveOpGenericAdaptorBase10PropertiesEN4llvm8ArrayRefINS_14NamedAttributeEEE
FNL:854,2559
FNA:854,0,_ZN4mlir4sond12CalleeSaveOp6createERNS_20ImplicitLocOpBuilderENS_9TypeRangeENS_10ValueRangeERKNS0_6detail30CalleeSaveOpGenericAdaptorBase10PropertiesEN4llvm8ArrayRefINS_14NamedAttributeEEE
FNL:855,2563
FNA:855,0,_ZN4mlir4sond12CalleeSaveOp20verifyInvariantsImplEv
FNL:856,257
FNA:856,0,_ZN4mlir4sond13AddFOpAdaptor6verifyENS_8LocationE
FNL:857,2590
FNA:857,0,_ZN4mlir4sond12CalleeSaveOp16verifyInvariantsEv
FNL:858,2594
FNA:858,0,_ZN4mlir4sond12CalleeSaveOp5parseERNS_11OpAsmParserERNS_14OperationStateE
FNL:859,261
FNA:859,0,_ZN4mlir4sond6AddFOp21setPropertiesFromAttrERNS_15EmptyPropertiesENS_9AttributeEN4llvm12function_refIFNS_18InFlightDiagnosticEvEEE
FNL:860,2618
FNA:860,0,_ZZN4mlir4sond12CalleeSaveOp5parseERNS_11OpAsmParserERNS_14OperationStateEENK3$_0clEv
FNL:861,2647
FNA:861,0,_ZN4mlir4sond12CalleeSaveOp5printERNS_12OpAsmPrinterE
FNL:862,2688
FNA:862,0,_ZN4mlir4sond6detail24CastOpGenericAdaptorBaseC1ENS0_6CastOpE
FNA:862,0,_ZN4mlir4sond6detail24CastOpGenericAdaptorBaseC2ENS0_6CastOpE
FNL:863,2690
FNA:863,0,_ZN4mlir4sond6detail24CastOpGenericAdaptorBase13getTargetTypeEv
FNL:864,2696
FNA:864,0,_ZN4mlir4sond13CastOpAdaptorC1ENS0_6CastOpE
FNA:864,0,_ZN4mlir4sond13CastOpAdaptorC2ENS0_6CastOpE
FNL:865,2698
FNA:865,0,_ZN4mlir4sond13CastOpAdaptor6verifyENS_8LocationE
FNL:866,270
FNA:866,0,_ZN4mlir4sond6AddFOp19getPropertiesAsAttrEPNS_11MLIRContextERKNS_15EmptyPropertiesE
FNL:867,2707
FNA:867,0,_ZN4mlir4sond6CastOp21setPropertiesFromAttrERNS0_6detail24CastOpGenericAdaptorBase10PropertiesENS_9AttributeEN4llvm12function_refIFNS_18InFlightDiagnosticEvEEE
FNL:868,2730
FNA:868,0,_ZN4mlir4sond6CastOp19getPropertiesAsAttrEPNS_11MLIRContextERKNS0_6detail24CastOpGenericAdaptorBase10PropertiesE
FNL:869,2746
FNA:869,0,_ZN4mlir4sond6CastOp21computePropertiesHashERKNS0_6detail24CastOpGenericAdaptorBase10PropertiesE
FNL:870,2752
FNA:870,0,_ZN4mlir4sond6CastOp15getInherentAttrEPNS_11MLIRContextERKNS0_6detail24CastOpGenericAdaptorBase10PropertiesEN4llvm9StringRefE
FNL:871,2758
FNA:871,0,_ZN4mlir4sond6CastOp15setInherentAttrERNS0_6detail24CastOpGenericAdaptorBase10PropertiesEN4llvm9StringRefENS_9AttributeE
FNL:872,2765
FNA:872,0,_ZN4mlir4sond6CastOp21populateInherentAttrsEPNS_11MLIRContextERKNS0_6detail24CastOpGenericAdaptorBase10PropertiesERNS_13NamedAttrListE
FNL:873,2769
FNA:873,0,_ZN4mlir4sond6CastOp19verifyInherentAttrsENS_13OperationNameERNS_13NamedAttrListEN4llvm12function_refIFNS_18InFlightDiagnosticEvEEE
FNL:874,2778
FNA:874,0,_ZN4mlir4sond6CastOp14readPropertiesERNS_21DialectBytecodeReaderERNS_14OperationStateE
FNL:875,2785
FNA:875,0,_ZN4mlir4sond6CastOp15writePropertiesERNS_21DialectBytecodeWriterE
FNL:876,279
FNA:876,0,_ZN4mlir4sond6AddFOp21computePropertiesHashERKNS_15EmptyPropertiesE
FNL:877,2790
FNA:877,0,_ZN4mlir4sond6CastOp13getTargetTypeEv
FNL:878,2795
FNA:878,0,_ZN4mlir4sond6CastOp13setTargetTypeENS_4TypeE
FNL:879,2799
FNA:879,0,_ZN4mlir4sond6CastOp5buildERNS_9OpBuilderERNS_14OperationStateENS_4TypeENS_5ValueENS_8TypeAttrE
FNL:880,2805
FNA:880,0,_ZN4mlir4sond6CastOp6createERNS_9OpBuilderENS_8LocationENS_4TypeENS_5ValueENS_8TypeAttrE
FNL:881,2813
FNA:881,0,_ZN4mlir4sond6CastOp6createERNS_20ImplicitLocOpBuilderENS_4TypeENS_5ValueENS_8TypeAttrE
FNL:882,2817
FNA:882,0,_ZN4mlir4sond6CastOp5buildERNS_9OpBuilderERNS_14OperationStateENS_9TypeRangeENS_5ValueENS_8TypeAttrE
FNL:883,2824
FNA:883,0,_ZN4mlir4sond6CastOp6createERNS_9OpBuilderENS_8LocationENS_9TypeRangeENS_5ValueENS_8TypeAttrE
FNL:884,2832
FNA:884,0,_ZN4mlir4sond6CastOp6createERNS_20ImplicitLocOpBuilderENS_9TypeRangeENS_5ValueENS_8TypeAttrE
FNL:885,2836
FNA:885,0,_ZN4mlir4sond6CastOp5buildERNS_9OpBuilderERNS_14OperationStateENS_4TypeENS_5ValueES6_
FNL:886,284
FNA:886,0,_ZN4mlir4sond6AddFOp15getInherentAttrEPNS_11MLIRContextERKNS_15EmptyPropertiesEN4llvm9StringRefE
FNL:887,2842
FNA:887,0,_ZN4mlir4sond6CastOp6createERNS_9OpBuilderENS_8LocationENS_4TypeENS_5ValueES5_
FNL:888,2850
FNA:888,0,_ZN4mlir4sond6CastOp6createERNS_20ImplicitLocOpBuilderENS_4TypeENS_5ValueES4_
FNL:889,2854
FNA:889,0,_ZN4mlir4sond6CastOp5buildERNS_9OpBuilderERNS_14OperationStateENS_9TypeRangeENS_5ValueENS_4TypeE
FNL:890,2861
FNA:890,0,_ZN4mlir4sond6CastOp6createERNS_9OpBuilderENS_8LocationENS_9TypeRangeENS_5ValueENS_4TypeE
FNL:891,2869
FNA:891,0,_ZN4mlir4sond6CastOp6createERNS_20ImplicitLocOpBuilderENS_9TypeRangeENS_5ValueENS_4TypeE
FNL:892,2873
FNA:892,0,_ZN4mlir4sond6CastOp5buildERNS_9OpBuilderERNS_14OperationStateENS_9TypeRangeENS_10ValueRangeEN4llvm8ArrayRefINS_14NamedAttributeEEE
FNL:893,288
FNA:893,0,_ZN4mlir4sond6AddFOp15setInherentAttrERNS_15EmptyPropertiesEN4llvm9StringRefENS_9AttributeE
FNL:894,2891
FNA:894,0,_ZN4mlir4sond6CastOp6createERNS_9OpBuilderENS_8LocationENS_9TypeRangeENS_10ValueRangeEN4llvm8ArrayRefINS_14NamedAttributeEEE
FNL:895,2899
FNA:895,0,_ZN4mlir4sond6CastOp6createERNS_20ImplicitLocOpBuilderENS_9TypeRangeENS_10ValueRangeEN4llvm8ArrayRefINS_14NamedAttributeEEE
FNL:896,2903
FNA:896,0,_ZN4mlir4sond6CastOp5buildERNS_9OpBuilderERNS_14OperationStateENS_9TypeRangeENS_10ValueRangeERKNS0_6detail24CastOpGenericAdaptorBase10PropertiesEN4llvm8ArrayRefINS_14NamedAttributeEEE
FNL:897,291
FNA:897,0,_ZN4mlir4sond6AddFOp21populateInherentAttrsEPNS_11MLIRContextERKNS_15EmptyPropertiesERNS_13NamedAttrListE
FNL:898,2912
FNA:898,0,_ZN4mlir4sond6CastOp6createERNS_9OpBuilderENS_8LocationENS_9TypeRangeENS_10ValueRangeERKNS0_6detail24CastOpGenericAdaptorBase10PropertiesEN4llvm8ArrayRefINS_14NamedAttributeEEE
FNL:899,2920
FNA:899,0,_ZN4mlir4sond6CastOp6createERNS_20ImplicitLocOpBuilderENS_9TypeRangeENS_10ValueRangeERKNS0_6detail24CastOpGenericAdaptorBase10PropertiesEN4llvm8ArrayRefINS_14NamedAttributeEEE
FNL:900,2924
FNA:900,0,_ZN4mlir4sond6CastOp20verifyInvariantsImplEv
FNL:901,294
FNA:901,0,_ZN4mlir4sond6AddFOp19verifyInherentAttrsENS_13OperationNameERNS_13NamedAttrListEN4llvm12function_refIFNS_18InFlightDiagnosticEvEEE
FNL:902,2951
FNA:902,0,_ZN4mlir4sond6CastOp16verifyInvariantsEv
FNL:903,2955
FNA:903,0,_ZN4mlir4sond6CastOp5parseERNS_11OpAsmParserERNS_14OperationStateE
FNL:904,2979
FNA:904,0,_ZZN4mlir4sond6CastOp5parseERNS_11OpAsmParserERNS_14OperationStateEENK3$_0clEv
FNL:905,298
FNA:905,0,_ZN4mlir4sond6AddFOp5buildERNS_9OpBuilderERNS_14OperationStateENS_4TypeENS_5ValueES7_
FNL:906,3008
FNA:906,0,_ZN4mlir4sond6CastOp5printERNS_12OpAsmPrinterE
FNL:907,3037
FNA:907,0,_ZN4mlir4sond6CastOp10getEffectsERN4llvm15SmallVectorImplINS_11SideEffects14EffectInstanceINS_13MemoryEffects6EffectEEEEE
FNL:908,304
FNA:908,0,_ZN4mlir4sond6AddFOp6createERNS_9OpBuilderENS_8LocationENS_4TypeENS_5ValueES6_
FNL:909,3052
FNA:909,0,_ZN4mlir4sond6detail23CmpOpGenericAdaptorBaseC1ENS0_5CmpOpE
FNA:909,0,_ZN4mlir4sond6detail23CmpOpGenericAdaptorBaseC2ENS0_5CmpOpE
FNL:910,3054
FNA:910,0,_ZN4mlir4sond6detail23CmpOpGenericAdaptorBase12getPredicateEv
FNL:911,3060
FNA:911,0,_ZN4mlir4sond12CmpOpAdaptorC1ENS0_5CmpOpE
FNA:911,0,_ZN4mlir4sond12CmpOpAdaptorC2ENS0_5CmpOpE
FNL:912,3062
FNA:912,0,_ZN4mlir4sond12CmpOpAdaptor6verifyENS_8LocationE
FNL:913,3071
FNA:913,0,_ZN4mlir4sond5CmpOp21setPropertiesFromAttrERNS0_6detail23CmpOpGenericAdaptorBase10PropertiesENS_9AttributeEN4llvm12function_refIFNS_18InFlightDiagnosticEvEEE
FNL:914,3094
FNA:914,0,_ZN4mlir4sond5CmpOp19getPropertiesAsAttrEPNS_11MLIRContextERKNS0_6detail23CmpOpGenericAdaptorBase10PropertiesE
FNL:915,3110
FNA:915,0,_ZN4mlir4sond5CmpOp21computePropertiesHashERKNS0_6detail23CmpOpGenericAdaptorBase10PropertiesE
FNL:916,3116
FNA:916,0,_ZN4mlir4sond5CmpOp15getInherentAttrEPNS_11MLIRContextERKNS0_6detail23CmpOpGenericAdaptorBase10PropertiesEN4llvm9StringRefE
FNL:917,312
FNA:917,0,_ZN4mlir4sond6AddFOp6createERNS_20ImplicitLocOpBuilderENS_4TypeENS_5ValueES5_
FNL:918,3122
FNA:918,0,_ZN4mlir4sond5CmpOp15setInherentAttrERNS0_6detail23CmpOpGenericAdaptorBase10PropertiesEN4llvm9StringRefENS_9AttributeE
FNL:919,3129
FNA:919,0,_ZN4mlir4sond5CmpOp21populateInherentAttrsEPNS_11MLIRContextERKNS0_6detail23CmpOpGenericAdaptorBase10PropertiesERNS_13NamedAttrListE
FNL:920,3133
FNA:920,0,_ZN4mlir4sond5CmpOp19verifyInherentAttrsENS_13OperationNameERNS_13NamedAttrListEN4llvm12function_refIFNS_18InFlightDiagnosticEvEEE
FNL:921,3142
FNA:921,0,_ZN4mlir4sond5CmpOp14readPropertiesERNS_21DialectBytecodeReaderERNS_14OperationStateE
FNL:922,3149
FNA:922,0,_ZN4mlir4sond5CmpOp15writePropertiesERNS_21DialectBytecodeWriterE
FNL:923,3154
FNA:923,0,_ZN4mlir4sond5CmpOp12getPredicateEv
FNL:924,3159
FNA:924,0,_ZN4mlir4sond5CmpOp12setPredicateEN4llvm9StringRefE
FNL:925,316
FNA:925,0,_ZN4mlir4sond6AddFOp5buildERNS_9OpBuilderERNS_14OperationStateENS_9TypeRangeENS_5ValueES7_
FNL:926,3163
FNA:926,0,_ZN4mlir4sond5CmpOp5buildERNS_9OpBuilderERNS_14OperationStateENS_4TypeENS_5ValueES7_NS_10StringAttrE
FNL:927,3170
FNA:927,0,_ZN4mlir4sond5CmpOp6createERNS_9OpBuilderENS_8LocationENS_4TypeENS_5ValueES6_NS_10StringAttrE
FNL:928,3178
FNA:928,0,_ZN4mlir4sond5CmpOp6createERNS_20ImplicitLocOpBuilderENS_4TypeENS_5ValueES5_NS_10StringAttrE
FNL:929,3182
FNA:929,0,_ZN4mlir4sond5CmpOp5buildERNS_9OpBuilderERNS_14OperationStateENS_9TypeRangeENS_5ValueES7_NS_10StringAttrE
FNL:930,3190
FNA:930,0,_ZN4mlir4sond5CmpOp6createERNS_9OpBuilderENS_8LocationENS_9TypeRangeENS_5ValueES6_NS_10StringAttrE
FNL:931,3198
FNA:931,0,_ZN4mlir4sond5CmpOp6createERNS_20ImplicitLocOpBuilderENS_9TypeRangeENS_5ValueES5_NS_10StringAttrE
FNL:932,3202
FNA:932,0,_ZN4mlir4sond5CmpOp5buildERNS_9OpBuilderERNS_14OperationStateENS_4TypeENS_5ValueES7_N4llvm9StringRefE
FNL:933,3209
FNA:933,0,_ZN4mlir4sond5CmpOp6createERNS_9OpBuilderENS_8LocationENS_4TypeENS_5ValueES6_N4llvm9StringRefE
FNL:934,3217
FNA:934,0,_ZN4mlir4sond5CmpOp6createERNS_20ImplicitLocOpBuilderENS_4TypeENS_5ValueES5_N4llvm9StringRefE
FNL:935,3221
FNA:935,0,_ZN4mlir4sond5CmpOp5buildERNS_9OpBuilderERNS_14OperationStateENS_9TypeRangeENS_5ValueES7_N4llvm9StringRefE
FNL:936,3229
FNA:936,0,_ZN4mlir4sond5CmpOp6createERNS_9OpBuilderENS_8LocationENS_9TypeRangeENS_5ValueES6_N4llvm9StringRefE
FNL:937,323
FNA:937,0,_ZN4mlir4sond6AddFOp6createERNS_9OpBuilderENS_8LocationENS_9TypeRangeENS_5ValueES6_
FNL:938,3237
FNA:938,0,_ZN4mlir4sond5CmpOp6createERNS_20ImplicitLocOpBuilderENS_9TypeRangeENS_5ValueES5_N4llvm9StringRefE
FNL:939,3241
FNA:939,0,_ZN4mlir4sond5CmpOp5buildERNS_9OpBuilderERNS_14OperationStateENS_9TypeRangeENS_10ValueRangeEN4llvm8ArrayRefINS_14NamedAttributeEEE
FNL:940,3259
FNA:940,0,_ZN4mlir4sond5CmpOp6createERNS_9OpBuilderENS_8LocationENS_9TypeRangeENS_10ValueRangeEN4llvm8ArrayRefINS_14NamedAttributeEEE
FNL:941,3267
FNA:941,0,_ZN4mlir4sond5CmpOp6createERNS_20ImplicitLocOpBuilderENS_9TypeRangeENS_10ValueRangeEN4llvm8ArrayRefINS_14NamedAttributeEEE
FNL:942,3271
FNA:942,0,_ZN4mlir4sond5CmpOp5buildERNS_9OpBuilderERNS_14OperationStateENS_9TypeRangeENS_10ValueRangeERKNS0_6detail23CmpOpGenericAdaptorBase10PropertiesEN4llvm8ArrayRefINS_14NamedAttributeEEE
FNL:943,3280
FNA:943,0,_ZN4mlir4sond5CmpOp6createERNS_9OpBuilderENS_8LocationENS_9TypeRangeENS_10ValueRangeERKNS0_6detail23CmpOpGenericAdaptorBase10PropertiesEN4llvm8ArrayRefINS_14NamedAttributeEEE
FNL:944,3288
FNA:944,0,_ZN4mlir4sond5CmpOp6createERNS_20ImplicitLocOpBuilderENS_9TypeRangeENS_10ValueRangeERKNS0_6detail23CmpOpGenericAdaptorBase10PropertiesEN4llvm8ArrayRefINS_14NamedAttributeEEE
FNL:945,3292
FNA:945,0,_ZN4mlir4sond5CmpOp20verifyInvariantsImplEv
FNL:946,331
FNA:946,0,_ZN4mlir4sond6AddFOp6createERNS_20ImplicitLocOpBuilderENS_9TypeRangeENS_5ValueES5_
FNL:947,3325
FNA:947,0,_ZN4mlir4sond5CmpOp16verifyInvariantsEv
FNL:948,3329
FNA:948,0,_ZN4mlir4sond5CmpOp5parseERNS_11OpAsmParserERNS_14OperationStateE
FNL:949,335
FNA:949,0,_ZN4mlir4sond6AddFOp5buildERNS_9OpBuilderERNS_14OperationStateENS_9TypeRangeENS_10ValueRangeEN4llvm8ArrayRefINS_14NamedAttributeEEE
FNL:950,3364
FNA:950,0,_ZZN4mlir4sond5CmpOp5parseERNS_11OpAsmParserERNS_14OperationStateEENK3$_0clEv
FNL:951,3404
FNA:951,0,_ZN4mlir4sond5CmpOp5printERNS_12OpAsmPrinterE
FNL:952,343
FNA:952,0,_ZN4mlir4sond6AddFOp6createERNS_9OpBuilderENS_8LocationENS_9TypeRangeENS_10ValueRangeEN4llvm8ArrayRefINS_14NamedAttributeEEE
FNL:953,3445
FNA:953,0,_ZN4mlir4sond5CmpOp10getEffectsERN4llvm15SmallVectorImplINS_11SideEffects14EffectInstanceINS_13MemoryEffects6EffectEEEEE
FNL:954,3460
FNA:954,0,_ZN4mlir4sond6detail29ConFldOffOpGenericAdaptorBaseC1ENS0_11ConFldOffOpE
FNA:954,0,_ZN4mlir4sond6detail29ConFldOffOpGenericAdaptorBaseC2ENS0_11ConFldOffOpE
FNL:955,3462
FNA:955,0,_ZN4mlir4sond6detail29ConFldOffOpGenericAdaptorBase12getFieldNameEv
FNL:956,3467
FNA:956,0,_ZN4mlir4sond6detail29ConFldOffOpGenericAdaptorBase9getOffsetEv
FNL:957,3473
FNA:957,0,_ZN4mlir4sond18ConFldOffOpAdaptorC1ENS0_11ConFldOffOpE
FNA:957,0,_ZN4mlir4sond18ConFldOffOpAdaptorC2ENS0_11ConFldOffOpE
FNL:958,3475
FNA:958,0,_ZN4mlir4sond18ConFldOffOpAdaptor6verifyENS_8LocationE
FNL:959,3489
FNA:959,0,_ZN4mlir4sond11ConFldOffOp21setPropertiesFromAttrERNS0_6detail29ConFldOffOpGenericAdaptorBase10PropertiesENS_9AttributeEN4llvm12function_refIFNS_18InFlightDiagnosticEvEEE
FNL:960,351
FNA:960,0,_ZN4mlir4sond6AddFOp6createERNS_20ImplicitLocOpBuilderENS_9TypeRangeENS_10ValueRangeEN4llvm8ArrayRefINS_14NamedAttributeEEE
FNL:961,3526
FNA:961,0,_ZN4mlir4sond11ConFldOffOp19getPropertiesAsAttrEPNS_11MLIRContextERKNS0_6detail29ConFldOffOpGenericAdaptorBase10PropertiesE
FNL:962,3549
FNA:962,0,_ZN4mlir4sond11ConFldOffOp21computePropertiesHashERKNS0_6detail29ConFldOffOpGenericAdaptorBase10PropertiesE
FNL:963,355
FNA:963,0,_ZN4mlir4sond6AddFOp5buildERNS_9OpBuilderERNS_14OperationStateENS_9TypeRangeENS_10ValueRangeERKNS_15EmptyPropertiesEN4llvm8ArrayRefINS_14NamedAttributeEEE
FNL:964,3556
FNA:964,0,_ZN4mlir4sond11ConFldOffOp15getInherentAttrEPNS_11MLIRContextERKNS0_6detail29ConFldOffOpGenericAdaptorBase10PropertiesEN4llvm9StringRefE
FNL:965,3565
FNA:965,0,_ZN4mlir4sond11ConFldOffOp15setInherentAttrERNS0_6detail29ConFldOffOpGenericAdaptorBase10PropertiesEN4llvm9StringRefENS_9AttributeE
FNL:966,3577
FNA:966,0,_ZN4mlir4sond11ConFldOffOp21populateInherentAttrsEPNS_11MLIRContextERKNS0_6detail29ConFldOffOpGenericAdaptorBase10PropertiesERNS_13NamedAttrListE
FNL:967,3583
FNA:967,0,_ZN4mlir4sond11ConFldOffOp19verifyInherentAttrsENS_13OperationNameERNS_13NamedAttrListEN4llvm12function_refIFNS_18InFlightDiagnosticEvEEE
FNL:968,3598
FNA:968,0,_ZN4mlir4sond11ConFldOffOp14readPropertiesERNS_21DialectBytecodeReaderERNS_14OperationStateE
FNL:969,3608
FNA:969,0,_ZN4mlir4sond11ConFldOffOp15writePropertiesERNS_21DialectBytecodeWriterE
FNL:970,3614
FNA:970,0,_ZN4mlir4sond11ConFldOffOp12getFieldNameEv
FNL:971,3619
FNA:971,0,_ZN4mlir4sond11ConFldOffOp9getOffsetEv
FNL:972,3624
FNA:972,0,_ZN4mlir4sond11ConFldOffOp12setFieldNameEN4llvm9StringRefE
FNL:973,3628
FNA:973,0,_ZN4mlir4sond11ConFldOffOp9setOffsetEy
FNL:974,3632
FNA:974,0,_ZN4mlir4sond11ConFldOffOp5buildERNS_9OpBuilderERNS_14OperationStateENS_4TypeENS_10StringAttrENS_11IntegerAttrE
FNL:975,3638
FNA:975,0,_ZN4mlir4sond11ConFldOffOp6createERNS_9OpBuilderENS_8LocationENS_4TypeENS_10StringAttrENS_11IntegerAttrE
FNL:976,364
FNA:976,0,_ZN4mlir4sond6AddFOp6createERNS_9OpBuilderENS_8LocationENS_9TypeRangeENS_10ValueRangeERKNS_15EmptyPropertiesEN4llvm8ArrayRefINS_14NamedAttributeEEE
FNL:977,3646
FNA:977,0,_ZN4mlir4sond11ConFldOffOp6createERNS_20ImplicitLocOpBuilderENS_4TypeENS_10StringAttrENS_11IntegerAttrE
FNL:978,3650
FNA:978,0,_ZN4mlir4sond11ConFldOffOp5buildERNS_9OpBuilderERNS_14OperationStateENS_9TypeRangeENS_10StringAttrENS_11IntegerAttrE
FNL:979,3657
FNA:979,0,_ZN4mlir4sond11ConFldOffOp6createERNS_9OpBuilderENS_8LocationENS_9TypeRangeENS_10StringAttrENS_11IntegerAttrE
FNL:980,3665
FNA:980,0,_ZN4mlir4sond11ConFldOffOp6createERNS_20ImplicitLocOpBuilderENS_9TypeRangeENS_10StringAttrENS_11IntegerAttrE
FNL:981,3669
FNA:981,0,_ZN4mlir4sond11ConFldOffOp5buildERNS_9OpBuilderERNS_14OperationStateENS_4TypeEN4llvm9StringRefEy
FNL:982,3675
FNA:982,0,_ZN4mlir4sond11ConFldOffOp6createERNS_9OpBuilderENS_8LocationENS_4TypeEN4llvm9StringRefEy
FNL:983,3683
FNA:983,0,_ZN4mlir4sond11ConFldOffOp6createERNS_20ImplicitLocOpBuilderENS_4TypeEN4llvm9StringRefEy
FNL:984,3687
FNA:984,0,_ZN4mlir4sond11ConFldOffOp5buildERNS_9OpBuilderERNS_14OperationStateENS_9TypeRangeEN4llvm9StringRefEy
FNL:985,3694
FNA:985,0,_ZN4mlir4sond11ConFldOffOp6createERNS_9OpBuilderENS_8LocationENS_9TypeRangeEN4llvm9StringRefEy
FNL:986,3702
FNA:986,0,_ZN4mlir4sond11ConFldOffOp6createERNS_20ImplicitLocOpBuilderENS_9TypeRangeEN4llvm9StringRefEy
FNL:987,3706
FNA:987,0,_ZN4mlir4sond11ConFldOffOp5buildERNS_9OpBuilderERNS_14OperationStateENS_9TypeRangeENS_10ValueRangeEN4llvm8ArrayRefINS_14NamedAttributeEEE
FNL:988,372
FNA:988,0,_ZN4mlir4sond6AddFOp6createERNS_20ImplicitLocOpBuilderENS_9TypeRangeENS_10ValueRangeERKNS_15EmptyPropertiesEN4llvm8ArrayRefINS_14NamedAttributeEEE
FNL:989,3724
FNA:989,0,_ZN4mlir4sond11ConFldOffOp6createERNS_9OpBuilderENS_8LocationENS_9TypeRangeENS_10ValueRangeEN4llvm8ArrayRefINS_14NamedAttributeEEE
FNL:990,3732
FNA:990,0,_ZN4mlir4sond11ConFldOffOp6createERNS_20ImplicitLocOpBuilderENS_9TypeRangeENS_10ValueRangeEN4llvm8ArrayRefINS_14NamedAttributeEEE
FNL:991,3736
FNA:991,0,_ZN4mlir4sond11ConFldOffOp5buildERNS_9OpBuilderERNS_14OperationStateENS_9TypeRangeENS_10ValueRangeERKNS0_6detail29ConFldOffOpGenericAdaptorBase10PropertiesEN4llvm8ArrayRefINS_14NamedAttributeEEE
FNL:992,3745
FNA:992,0,_ZN4mlir4sond11ConFldOffOp6createERNS_9OpBuilderENS_8LocationENS_9TypeRangeENS_10ValueRangeERKNS0_6detail29ConFldOffOpGenericAdaptorBase10PropertiesEN4llvm8ArrayRefINS_14NamedAttributeEEE
FNL:993,3753
FNA:993,0,_ZN4mlir4sond11ConFldOffOp6createERNS_20ImplicitLocOpBuilderENS_9TypeRangeENS_10ValueRangeERKNS0_6detail29ConFldOffOpGenericAdaptorBase10PropertiesEN4llvm8ArrayRefINS_14NamedAttributeEEE
FNL:994,3757
FNA:994,0,_ZN4mlir4sond11ConFldOffOp20verifyInvariantsImplEv
FNL:995,376
FNA:995,0,_ZN4mlir4sond6AddFOp20verifyInvariantsImplEv
FNL:996,3780
FNA:996,0,_ZN4mlir4sond11ConFldOffOp16verifyInvariantsEv
FNL:997,3784
FNA:997,0,_ZN4mlir4sond11ConFldOffOp5parseERNS_11OpAsmParserERNS_14OperationStateE
FNL:998,3805
FNA:998,0,_ZZN4mlir4sond11ConFldOffOp5parseERNS_11OpAsmParserERNS_14OperationStateEENK3$_0clEv
FNL:999,3823
FNA:999,0,_ZN4mlir4sond11ConFldOffOp5printERNS_12OpAsmPrinterE
FNL:1000,3844
FNA:1000,0,_ZN4mlir4sond11ConFldOffOp10getEffectsERN4llvm15SmallVectorImplINS_11SideEffects14EffectInstanceINS_13MemoryEffects6EffectEEEEE
FNL:1001,3859
FNA:1001,0,_ZN4mlir4sond6detail28ConstantOpGenericAdaptorBaseC1ENS0_10ConstantOpE
FNA:1001,0,_ZN4mlir4sond6detail28ConstantOpGenericAdaptorBaseC2ENS0_10ConstantOpE
FNL:1002,3861
FNA:1002,0,_ZN4mlir4sond6detail28ConstantOpGenericAdaptorBase8getValueEv
FNL:1003,3867
FNA:1003,0,_ZN4mlir4sond17ConstantOpAdaptorC1ENS0_10ConstantOpE
FNA:1003,0,_ZN4mlir4sond17ConstantOpAdaptorC2ENS0_10ConstantOpE
FNL:1004,3869
FNA:1004,0,_ZN4mlir4sond17ConstantOpAdaptor6verifyENS_8LocationE
FNL:1005,3878
FNA:1005,0,_ZN4mlir4sond10ConstantOp21setPropertiesFromAttrERNS0_6detail28ConstantOpGenericAdaptorBase10PropertiesENS_9AttributeEN4llvm12function_refIFNS_18InFlightDiagnosticEvEEE
FNL:1006,3901
FNA:1006,0,_ZN4mlir4sond10ConstantOp19getPropertiesAsAttrEPNS_11MLIRContextERKNS0_6detail28ConstantOpGenericAdaptorBase10PropertiesE
FNL:1007,3917
FNA:1007,0,_ZN4mlir4sond10ConstantOp21computePropertiesHashERKNS0_6detail28ConstantOpGenericAdaptorBase10PropertiesE
FNL:1008,3923
FNA:1008,17,_ZN4mlir4sond10ConstantOp15getInherentAttrEPNS_11MLIRContextERKNS0_6detail28ConstantOpGenericAdaptorBase10PropertiesEN4llvm9StringRefE
FNL:1009,3929
FNA:1009,17,_ZN4mlir4sond10ConstantOp15setInherentAttrERNS0_6detail28ConstantOpGenericAdaptorBase10PropertiesEN4llvm9StringRefENS_9AttributeE
FNL:1010,3936
FNA:1010,0,_ZN4mlir4sond10ConstantOp21populateInherentAttrsEPNS_11MLIRContextERKNS0_6detail28ConstantOpGenericAdaptorBase10PropertiesERNS_13NamedAttrListE
FNL:1011,3940
FNA:1011,0,_ZN4mlir4sond10ConstantOp19verifyInherentAttrsENS_13OperationNameERNS_13NamedAttrListEN4llvm12function_refIFNS_18InFlightDiagnosticEvEEE
FNL:1012,3949
FNA:1012,0,_ZN4mlir4sond10ConstantOp14readPropertiesERNS_21DialectBytecodeReaderERNS_14OperationStateE
FNL:1013,3956
FNA:1013,0,_ZN4mlir4sond10ConstantOp15writePropertiesERNS_21DialectBytecodeWriterE
FNL:1014,3961
FNA:1014,11,_ZN4mlir4sond10ConstantOp8getValueEv
FNL:1015,3966
FNA:1015,17,_ZN4mlir4sond10ConstantOp5buildERNS_9OpBuilderERNS_14OperationStateENS_4TypeENS_9AttributeE
FNL:1016,3972
FNA:1016,0,_ZN4mlir4sond10ConstantOp6createERNS_9OpBuilderENS_8LocationENS_4TypeENS_9AttributeE
FNL:1017,3980
FNA:1017,0,_ZN4mlir4sond10ConstantOp6createERNS_20ImplicitLocOpBuilderENS_4TypeENS_9AttributeE
FNL:1018,3984
FNA:1018,0,_ZN4mlir4sond10ConstantOp5buildERNS_9OpBuilderERNS_14OperationStateENS_9TypeRangeENS_9AttributeE
FNL:1019,3990
FNA:1019,0,_ZN4mlir4sond10ConstantOp6createERNS_9OpBuilderENS_8LocationENS_9TypeRangeENS_9AttributeE
FNL:1020,3998
FNA:1020,0,_ZN4mlir4sond10ConstantOp6createERNS_20ImplicitLocOpBuilderENS_9TypeRangeENS_9AttributeE
FNL:1021,4002
FNA:1021,0,_ZN4mlir4sond10ConstantOp5buildERNS_9OpBuilderERNS_14OperationStateENS_9TypeRangeENS_10ValueRangeEN4llvm8ArrayRefINS_14NamedAttributeEEE
FNL:1022,4020
FNA:1022,0,_ZN4mlir4sond10ConstantOp6createERNS_9OpBuilderENS_8LocationENS_9TypeRangeENS_10ValueRangeEN4llvm8ArrayRefINS_14NamedAttributeEEE
FNL:1023,4028
FNA:1023,0,_ZN4mlir4sond10ConstantOp6createERNS_20ImplicitLocOpBuilderENS_9TypeRangeENS_10ValueRangeEN4llvm8ArrayRefINS_14NamedAttributeEEE
FNL:1024,4032
FNA:1024,0,_ZN4mlir4sond10ConstantOp5buildERNS_9OpBuilderERNS_14OperationStateENS_9TypeRangeENS_10ValueRangeERKNS0_6detail28ConstantOpGenericAdaptorBase10PropertiesEN4llvm8ArrayRefINS_14NamedAttributeEEE
FNL:1025,404
FNA:1025,0,_ZN4mlir4sond6AddFOp16verifyInvariantsEv
FNL:1026,4041
FNA:1026,0,_ZN4mlir4sond10ConstantOp6createERNS_9OpBuilderENS_8LocationENS_9TypeRangeENS_10ValueRangeERKNS0_6detail28ConstantOpGenericAdaptorBase10PropertiesEN4llvm8ArrayRefINS_14NamedAttributeEEE
FNL:1027,4049
FNA:1027,0,_ZN4mlir4sond10ConstantOp6createERNS_20ImplicitLocOpBuilderENS_9TypeRangeENS_10ValueRangeERKNS0_6detail28ConstantOpGenericAdaptorBase10PropertiesEN4llvm8ArrayRefINS_14NamedAttributeEEE
FNL:1028,4053
FNA:1028,0,_ZN4mlir4sond10ConstantOp20verifyInvariantsImplEv
FNL:1029,4071
FNA:1029,0,_ZN4mlir4sond10ConstantOp16verifyInvariantsEv
FNL:1030,4075
FNA:1030,0,_ZN4mlir4sond10ConstantOp27setPropertiesFromParsedAttrERNS0_6detail28ConstantOpGenericAdaptorBase10PropertiesENS_9AttributeEN4llvm12function_refIFNS_18InFlightDiagnosticEvEEE
FNL:1031,408
FNA:1031,0,_ZN4mlir4sond6AddFOp5parseERNS_11OpAsmParserERNS_14OperationStateE
FNL:1032,4116
FNA:1032,0,_ZN4mlir4sond10ConstantOp10getEffectsERN4llvm15SmallVectorImplINS_11SideEffects14EffectInstanceINS_13MemoryEffects6EffectEEEEE
FNL:1033,4131
FNA:1033,0,_ZN4mlir4sond6detail24CtrlOpGenericAdaptorBaseC1ENS0_6CtrlOpE
FNA:1033,0,_ZN4mlir4sond6detail24CtrlOpGenericAdaptorBaseC2ENS0_6CtrlOpE
FNL:1034,4134
FNA:1034,0,_ZN4mlir4sond13CtrlOpAdaptorC1ENS0_6CtrlOpE
FNA:1034,0,_ZN4mlir4sond13CtrlOpAdaptorC2ENS0_6CtrlOpE
FNL:1035,4136
FNA:1035,0,_ZN4mlir4sond13CtrlOpAdaptor6verifyENS_8LocationE
FNL:1036,4140
FNA:1036,0,_ZN4mlir4sond6CtrlOp21setPropertiesFromAttrERNS_15EmptyPropertiesENS_9AttributeEN4llvm12function_refIFNS_18InFlightDiagnosticEvEEE
FNL:1037,4149
FNA:1037,0,_ZN4mlir4sond6CtrlOp19getPropertiesAsAttrEPNS_11MLIRContextERKNS_15EmptyPropertiesE
FNL:1038,4158
FNA:1038,0,_ZN4mlir4sond6CtrlOp21computePropertiesHashERKNS_15EmptyPropertiesE
FNL:1039,4163
FNA:1039,0,_ZN4mlir4sond6CtrlOp15getInherentAttrEPNS_11MLIRContextERKNS_15EmptyPropertiesEN4llvm9StringRefE
FNL:1040,4167
FNA:1040,0,_ZN4mlir4sond6CtrlOp15setInherentAttrERNS_15EmptyPropertiesEN4llvm9StringRefENS_9AttributeE
FNL:1041,4170
FNA:1041,0,_ZN4mlir4sond6CtrlOp21populateInherentAttrsEPNS_11MLIRContextERKNS_15EmptyPropertiesERNS_13NamedAttrListE
FNL:1042,4173
FNA:1042,0,_ZN4mlir4sond6CtrlOp19verifyInherentAttrsENS_13OperationNameERNS_13NamedAttrListEN4llvm12function_refIFNS_18InFlightDiagnosticEvEEE
FNL:1043,4177
FNA:1043,0,_ZN4mlir4sond6CtrlOp5buildERNS_9OpBuilderERNS_14OperationStateENS_4TypeE
FNL:1044,4181
FNA:1044,0,_ZN4mlir4sond6CtrlOp6createERNS_9OpBuilderENS_8LocationENS_4TypeE
FNL:1045,4189
FNA:1045,0,_ZN4mlir4sond6CtrlOp6createERNS_20ImplicitLocOpBuilderENS_4TypeE
FNL:1046,4193
FNA:1046,0,_ZN4mlir4sond6CtrlOp5buildERNS_9OpBuilderERNS_14OperationStateENS_9TypeRangeE
FNL:1047,4198
FNA:1047,0,_ZN4mlir4sond6CtrlOp6createERNS_9OpBuilderENS_8LocationENS_9TypeRangeE
FNL:1048,4206
FNA:1048,0,_ZN4mlir4sond6CtrlOp6createERNS_20ImplicitLocOpBuilderENS_9TypeRangeE
FNL:1049,4210
FNA:1049,0,_ZN4mlir4sond6CtrlOp5buildERNS_9OpBuilderERNS_14OperationStateENS_9TypeRangeENS_10ValueRangeEN4llvm8ArrayRefINS_14NamedAttributeEEE
FNL:1050,4218
FNA:1050,0,_ZN4mlir4sond6CtrlOp6createERNS_9OpBuilderENS_8LocationENS_9TypeRangeENS_10ValueRangeEN4llvm8ArrayRefINS_14NamedAttributeEEE
FNL:1051,4226
FNA:1051,0,_ZN4mlir4sond6CtrlOp6createERNS_20ImplicitLocOpBuilderENS_9TypeRangeENS_10ValueRangeEN4llvm8ArrayRefINS_14NamedAttributeEEE
FNL:1052,4230
FNA:1052,0,_ZN4mlir4sond6CtrlOp5buildERNS_9OpBuilderERNS_14OperationStateENS_9TypeRangeENS_10ValueRangeERKNS_15EmptyPropertiesEN4llvm8ArrayRefINS_14NamedAttributeEEE
FNL:1053,4239
FNA:1053,0,_ZN4mlir4sond6CtrlOp6createERNS_9OpBuilderENS_8LocationENS_9TypeRangeENS_10ValueRangeERKNS_15EmptyPropertiesEN4llvm8ArrayRefINS_14NamedAttributeEEE
FNL:1054,4247
FNA:1054,0,_ZN4mlir4sond6CtrlOp6createERNS_20ImplicitLocOpBuilderENS_9TypeRangeENS_10ValueRangeERKNS_15EmptyPropertiesEN4llvm8ArrayRefINS_14NamedAttributeEEE
FNL:1055,4251
FNA:1055,0,_ZN4mlir4sond6CtrlOp20verifyInvariantsImplEv
FNL:1056,4264
FNA:1056,0,_ZN4mlir4sond6CtrlOp16verifyInvariantsEv
FNL:1057,4268
FNA:1057,0,_ZN4mlir4sond6CtrlOp5parseERNS_11OpAsmParserERNS_14OperationStateE
FNL:1058,4275
FNA:1058,0,_ZZN4mlir4sond6CtrlOp5parseERNS_11OpAsmParserERNS_14OperationStateEENK3$_0clEv
FNL:1059,4293
FNA:1059,0,_ZN4mlir4sond6CtrlOp5printERNS_12OpAsmPrinterE
FNL:1060,4307
FNA:1060,0,_ZN4mlir4sond6CtrlOp10getEffectsERN4llvm15SmallVectorImplINS_11SideEffects14EffectInstanceINS_13MemoryEffects6EffectEEEEE
FNL:1061,4322
FNA:1061,0,_ZN4mlir4sond6detail24DivFOpGenericAdaptorBaseC1ENS0_6DivFOpE
FNA:1061,0,_ZN4mlir4sond6detail24DivFOpGenericAdaptorBaseC2ENS0_6DivFOpE
FNL:1062,4325
FNA:1062,0,_ZN4mlir4sond13DivFOpAdaptorC1ENS0_6DivFOpE
FNA:1062,0,_ZN4mlir4sond13DivFOpAdaptorC2ENS0_6DivFOpE
FNL:1063,4327
FNA:1063,0,_ZN4mlir4sond13DivFOpAdaptor6verifyENS_8LocationE
FNL:1064,4331
FNA:1064,0,_ZN4mlir4sond6DivFOp21setPropertiesFromAttrERNS_15EmptyPropertiesENS_9AttributeEN4llvm12function_refIFNS_18InFlightDiagnosticEvEEE
FNL:1065,4340
FNA:1065,0,_ZN4mlir4sond6DivFOp19getPropertiesAsAttrEPNS_11MLIRContextERKNS_15EmptyPropertiesE
FNL:1066,4349
FNA:1066,0,_ZN4mlir4sond6DivFOp21computePropertiesHashERKNS_15EmptyPropertiesE
FNL:1067,435
FNA:1067,0,_ZZN4mlir4sond6AddFOp5parseERNS_11OpAsmParserERNS_14OperationStateEENK3$_0clEv
FNL:1068,4354
FNA:1068,0,_ZN4mlir4sond6DivFOp15getInherentAttrEPNS_11MLIRContextERKNS_15EmptyPropertiesEN4llvm9StringRefE
FNL:1069,4358
FNA:1069,0,_ZN4mlir4sond6DivFOp15setInherentAttrERNS_15EmptyPropertiesEN4llvm9StringRefENS_9AttributeE
FNL:1070,4361
FNA:1070,0,_ZN4mlir4sond6DivFOp21populateInherentAttrsEPNS_11MLIRContextERKNS_15EmptyPropertiesERNS_13NamedAttrListE
FNL:1071,4364
FNA:1071,0,_ZN4mlir4sond6DivFOp19verifyInherentAttrsENS_13OperationNameERNS_13NamedAttrListEN4llvm12function_refIFNS_18InFlightDiagnosticEvEEE
FNL:1072,4368
FNA:1072,0,_ZN4mlir4sond6DivFOp5buildERNS_9OpBuilderERNS_14OperationStateENS_4TypeENS_5ValueES7_
FNL:1073,4374
FNA:1073,0,_ZN4mlir4sond6DivFOp6createERNS_9OpBuilderENS_8LocationENS_4TypeENS_5ValueES6_
FNL:1074,4382
FNA:1074,0,_ZN4mlir4sond6DivFOp6createERNS_20ImplicitLocOpBuilderENS_4TypeENS_5ValueES5_
FNL:1075,4386
FNA:1075,0,_ZN4mlir4sond6DivFOp5buildERNS_9OpBuilderERNS_14OperationStateENS_9TypeRangeENS_5ValueES7_
FNL:1076,4393
FNA:1076,0,_ZN4mlir4sond6DivFOp6createERNS_9OpBuilderENS_8LocationENS_9TypeRangeENS_5ValueES6_
FNL:1077,4401
FNA:1077,0,_ZN4mlir4sond6DivFOp6createERNS_20ImplicitLocOpBuilderENS_9TypeRangeENS_5ValueES5_
FNL:1078,4405
FNA:1078,0,_ZN4mlir4sond6DivFOp5buildERNS_9OpBuilderERNS_14OperationStateENS_9TypeRangeENS_10ValueRangeEN4llvm8ArrayRefINS_14NamedAttributeEEE
FNL:1079,4413
FNA:1079,0,_ZN4mlir4sond6DivFOp6createERNS_9OpBuilderENS_8LocationENS_9TypeRangeENS_10ValueRangeEN4llvm8ArrayRefINS_14NamedAttributeEEE
FNL:1080,4421
FNA:1080,0,_ZN4mlir4sond6DivFOp6createERNS_20ImplicitLocOpBuilderENS_9TypeRangeENS_10ValueRangeEN4llvm8ArrayRefINS_14NamedAttributeEEE
FNL:1081,4425
FNA:1081,0,_ZN4mlir4sond6DivFOp5buildERNS_9OpBuilderERNS_14OperationStateENS_9TypeRangeENS_10ValueRangeERKNS_15EmptyPropertiesEN4llvm8ArrayRefINS_14NamedAttributeEEE
FNL:1082,4434
FNA:1082,0,_ZN4mlir4sond6DivFOp6createERNS_9OpBuilderENS_8LocationENS_9TypeRangeENS_10ValueRangeERKNS_15EmptyPropertiesEN4llvm8ArrayRefINS_14NamedAttributeEEE
FNL:1083,4442
FNA:1083,0,_ZN4mlir4sond6DivFOp6createERNS_20ImplicitLocOpBuilderENS_9TypeRangeENS_10ValueRangeERKNS_15EmptyPropertiesEN4llvm8ArrayRefINS_14NamedAttributeEEE
FNL:1084,4446
FNA:1084,0,_ZN4mlir4sond6DivFOp20verifyInvariantsImplEv
FNL:1085,4474
FNA:1085,0,_ZN4mlir4sond6DivFOp16verifyInvariantsEv
FNL:1086,4478
FNA:1086,0,_ZN4mlir4sond6DivFOp5parseERNS_11OpAsmParserERNS_14OperationStateE
FNL:1087,4505
FNA:1087,0,_ZZN4mlir4sond6DivFOp5parseERNS_11OpAsmParserERNS_14OperationStateEENK3$_0clEv
FNL:1088,4545
FNA:1088,0,_ZN4mlir4sond6DivFOp5printERNS_12OpAsmPrinterE
FNL:1089,4582
FNA:1089,0,_ZN4mlir4sond6DivFOp10getEffectsERN4llvm15SmallVectorImplINS_11SideEffects14EffectInstanceINS_13MemoryEffects6EffectEEEEE
FNL:1090,4597
FNA:1090,0,_ZN4mlir4sond6detail23DivOpGenericAdaptorBaseC1ENS0_5DivOpE
FNA:1090,0,_ZN4mlir4sond6detail23DivOpGenericAdaptorBaseC2ENS0_5DivOpE
FNL:1091,4600
FNA:1091,0,_ZN4mlir4sond12DivOpAdaptorC1ENS0_5DivOpE
FNA:1091,0,_ZN4mlir4sond12DivOpAdaptorC2ENS0_5DivOpE
FNL:1092,4602
FNA:1092,0,_ZN4mlir4sond12DivOpAdaptor6verifyENS_8LocationE
FNL:1093,4606
FNA:1093,0,_ZN4mlir4sond5DivOp21setPropertiesFromAttrERNS_15EmptyPropertiesENS_9AttributeEN4llvm12function_refIFNS_18InFlightDiagnosticEvEEE
FNL:1094,4615
FNA:1094,0,_ZN4mlir4sond5DivOp19getPropertiesAsAttrEPNS_11MLIRContextERKNS_15EmptyPropertiesE
FNL:1095,4624
FNA:1095,0,_ZN4mlir4sond5DivOp21computePropertiesHashERKNS_15EmptyPropertiesE
FNL:1096,4629
FNA:1096,0,_ZN4mlir4sond5DivOp15getInherentAttrEPNS_11MLIRContextERKNS_15EmptyPropertiesEN4llvm9StringRefE
FNL:1097,4633
FNA:1097,0,_ZN4mlir4sond5DivOp15setInherentAttrERNS_15EmptyPropertiesEN4llvm9StringRefENS_9AttributeE
FNL:1098,4636
FNA:1098,0,_ZN4mlir4sond5DivOp21populateInherentAttrsEPNS_11MLIRContextERKNS_15EmptyPropertiesERNS_13NamedAttrListE
FNL:1099,4639
FNA:1099,0,_ZN4mlir4sond5DivOp19verifyInherentAttrsENS_13OperationNameERNS_13NamedAttrListEN4llvm12function_refIFNS_18InFlightDiagnosticEvEEE
FNL:1100,4643
FNA:1100,0,_ZN4mlir4sond5DivOp5buildERNS_9OpBuilderERNS_14OperationStateENS_4TypeENS_5ValueES7_
FNL:1101,4649
FNA:1101,0,_ZN4mlir4sond5DivOp6createERNS_9OpBuilderENS_8LocationENS_4TypeENS_5ValueES6_
FNL:1102,4657
FNA:1102,0,_ZN4mlir4sond5DivOp6createERNS_20ImplicitLocOpBuilderENS_4TypeENS_5ValueES5_
FNL:1103,4661
FNA:1103,0,_ZN4mlir4sond5DivOp5buildERNS_9OpBuilderERNS_14OperationStateENS_9TypeRangeENS_5ValueES7_
FNL:1104,4668
FNA:1104,0,_ZN4mlir4sond5DivOp6createERNS_9OpBuilderENS_8LocationENS_9TypeRangeENS_5ValueES6_
FNL:1105,4676
FNA:1105,0,_ZN4mlir4sond5DivOp6createERNS_20ImplicitLocOpBuilderENS_9TypeRangeENS_5ValueES5_
FNL:1106,4680
FNA:1106,0,_ZN4mlir4sond5DivOp5buildERNS_9OpBuilderERNS_14OperationStateENS_9TypeRangeENS_10ValueRangeEN4llvm8ArrayRefINS_14NamedAttributeEEE
FNL:1107,4688
FNA:1107,0,_ZN4mlir4sond5DivOp6createERNS_9OpBuilderENS_8LocationENS_9TypeRangeENS_10ValueRangeEN4llvm8ArrayRefINS_14NamedAttributeEEE
FNL:1108,4696
FNA:1108,0,_ZN4mlir4sond5DivOp6createERNS_20ImplicitLocOpBuilderENS_9TypeRangeENS_10ValueRangeEN4llvm8ArrayRefINS_14NamedAttributeEEE
FNL:1109,4700
FNA:1109,0,_ZN4mlir4sond5DivOp5buildERNS_9OpBuilderERNS_14OperationStateENS_9TypeRangeENS_10ValueRangeERKNS_15EmptyPropertiesEN4llvm8ArrayRefINS_14NamedAttributeEEE
FNL:1110,4709
FNA:1110,0,_ZN4mlir4sond5DivOp6createERNS_9OpBuilderENS_8LocationENS_9TypeRangeENS_10ValueRangeERKNS_15EmptyPropertiesEN4llvm8ArrayRefINS_14NamedAttributeEEE
FNL:1111,4717
FNA:1111,0,_ZN4mlir4sond5DivOp6createERNS_20ImplicitLocOpBuilderENS_9TypeRangeENS_10ValueRangeERKNS_15EmptyPropertiesEN4llvm8ArrayRefINS_14NamedAttributeEEE
FNL:1112,4721
FNA:1112,0,_ZN4mlir4sond5DivOp20verifyInvariantsImplEv
FNL:1113,4749
FNA:1113,0,_ZN4mlir4sond5DivOp16verifyInvariantsEv
FNL:1114,475
FNA:1114,0,_ZN4mlir4sond6AddFOp5printERNS_12OpAsmPrinterE
FNL:1115,4753
FNA:1115,0,_ZN4mlir4sond5DivOp5parseERNS_11OpAsmParserERNS_14OperationStateE
FNL:1116,4780
FNA:1116,0,_ZZN4mlir4sond5DivOp5parseERNS_11OpAsmParserERNS_14OperationStateEENK3$_0clEv
FNL:1117,4820
FNA:1117,0,_ZN4mlir4sond5DivOp5printERNS_12OpAsmPrinterE
FNL:1118,4857
FNA:1118,0,_ZN4mlir4sond5DivOp10getEffectsERN4llvm15SmallVectorImplINS_11SideEffects14EffectInstanceINS_13MemoryEffects6EffectEEEEE
FNL:1119,4872
FNA:1119,0,_ZN4mlir4sond6detail26ExternOpGenericAdaptorBaseC1ENS0_8ExternOpE
FNA:1119,0,_ZN4mlir4sond6detail26ExternOpGenericAdaptorBaseC2ENS0_8ExternOpE
FNL:1120,4874
FNA:1120,0,_ZN4mlir4sond6detail26ExternOpGenericAdaptorBase7getNameEv
FNL:1121,4879
FNA:1121,0,_ZN4mlir4sond6detail26ExternOpGenericAdaptorBase12getSignatureEv
FNL:1122,4885
FNA:1122,0,_ZN4mlir4sond15ExternOpAdaptorC1ENS0_8ExternOpE
FNA:1122,0,_ZN4mlir4sond15ExternOpAdaptorC2ENS0_8ExternOpE
FNL:1123,4887
FNA:1123,0,_ZN4mlir4sond15ExternOpAdaptor6verifyENS_8LocationE
FNL:1124,4901
FNA:1124,0,_ZN4mlir4sond8ExternOp21setPropertiesFromAttrERNS0_6detail26ExternOpGenericAdaptorBase10PropertiesENS_9AttributeEN4llvm12function_refIFNS_18InFlightDiagnosticEvEEE
FNL:1125,4938
FNA:1125,0,_ZN4mlir4sond8ExternOp19getPropertiesAsAttrEPNS_11MLIRContextERKNS0_6detail26ExternOpGenericAdaptorBase10PropertiesE
FNL:1126,4961
FNA:1126,0,_ZN4mlir4sond8ExternOp21computePropertiesHashERKNS0_6detail26ExternOpGenericAdaptorBase10PropertiesE
FNL:1127,4968
FNA:1127,0,_ZN4mlir4sond8ExternOp15getInherentAttrEPNS_11MLIRContextERKNS0_6detail26ExternOpGenericAdaptorBase10PropertiesEN4llvm9StringRefE
FNL:1128,4977
FNA:1128,0,_ZN4mlir4sond8ExternOp15setInherentAttrERNS0_6detail26ExternOpGenericAdaptorBase10PropertiesEN4llvm9StringRefENS_9AttributeE
FNL:1129,4989
FNA:1129,0,_ZN4mlir4sond8ExternOp21populateInherentAttrsEPNS_11MLIRContextERKNS0_6detail26ExternOpGenericAdaptorBase10PropertiesERNS_13NamedAttrListE
FNL:1130,4995
FNA:1130,0,_ZN4mlir4sond8ExternOp19verifyInherentAttrsENS_13OperationNameERNS_13NamedAttrListEN4llvm12function_refIFNS_18InFlightDiagnosticEvEEE
FNL:1131,5010
FNA:1131,0,_ZN4mlir4sond8ExternOp14readPropertiesERNS_21DialectBytecodeReaderERNS_14OperationStateE
FNL:1132,5020
FNA:1132,0,_ZN4mlir4sond8ExternOp15writePropertiesERNS_21DialectBytecodeWriterE
FNL:1133,5026
FNA:1133,0,_ZN4mlir4sond8ExternOp7getNameEv
FNL:1134,5031
FNA:1134,0,_ZN4mlir4sond8ExternOp12getSignatureEv
FNL:1135,5036
FNA:1135,0,_ZN4mlir4sond8ExternOp7setNameEN4llvm9StringRefE
FNL:1136,5040
FNA:1136,0,_ZN4mlir4sond8ExternOp12setSignatureENS_4TypeE
FNL:1137,5044
FNA:1137,0,_ZN4mlir4sond8ExternOp5buildERNS_9OpBuilderERNS_14OperationStateENS_4TypeENS_10StringAttrENS_8TypeAttrE
FNL:1138,5050
FNA:1138,0,_ZN4mlir4sond8ExternOp6createERNS_9OpBuilderENS_8LocationENS_4TypeENS_10StringAttrENS_8TypeAttrE
FNL:1139,5058
FNA:1139,0,_ZN4mlir4sond8ExternOp6createERNS_20ImplicitLocOpBuilderENS_4TypeENS_10StringAttrENS_8TypeAttrE
FNL:1140,5062
FNA:1140,0,_ZN4mlir4sond8ExternOp5buildERNS_9OpBuilderERNS_14OperationStateENS_9TypeRangeENS_10StringAttrENS_8TypeAttrE
FNL:1141,5069
FNA:1141,0,_ZN4mlir4sond8ExternOp6createERNS_9OpBuilderENS_8LocationENS_9TypeRangeENS_10StringAttrENS_8TypeAttrE
FNL:1142,5077
FNA:1142,0,_ZN4mlir4sond8ExternOp6createERNS_20ImplicitLocOpBuilderENS_9TypeRangeENS_10StringAttrENS_8TypeAttrE
FNL:1143,5081
FNA:1143,0,_ZN4mlir4sond8ExternOp5buildERNS_9OpBuilderERNS_14OperationStateENS_4TypeEN4llvm9StringRefES6_
FNL:1144,5087
FNA:1144,0,_ZN4mlir4sond8ExternOp6createERNS_9OpBuilderENS_8LocationENS_4TypeEN4llvm9StringRefES5_
FNL:1145,5095
FNA:1145,0,_ZN4mlir4sond8ExternOp6createERNS_20ImplicitLocOpBuilderENS_4TypeEN4llvm9StringRefES4_
FNL:1146,5099
FNA:1146,0,_ZN4mlir4sond8ExternOp5buildERNS_9OpBuilderERNS_14OperationStateENS_9TypeRangeEN4llvm9StringRefENS_4TypeE
FNL:1147,5106
FNA:1147,0,_ZN4mlir4sond8ExternOp6createERNS_9OpBuilderENS_8LocationENS_9TypeRangeEN4llvm9StringRefENS_4TypeE
FNL:1148,5114
FNA:1148,0,_ZN4mlir4sond8ExternOp6createERNS_20ImplicitLocOpBuilderENS_9TypeRangeEN4llvm9StringRefENS_4TypeE
FNL:1149,5118
FNA:1149,0,_ZN4mlir4sond8ExternOp5buildERNS_9OpBuilderERNS_14OperationStateENS_9TypeRangeENS_10ValueRangeEN4llvm8ArrayRefINS_14NamedAttributeEEE
FNL:1150,512
FNA:1150,0,_ZN4mlir4sond6AddFOp10getEffectsERN4llvm15SmallVectorImplINS_11SideEffects14EffectInstanceINS_13MemoryEffects6EffectEEEEE
FNL:1151,5136
FNA:1151,0,_ZN4mlir4sond8ExternOp6createERNS_9OpBuilderENS_8LocationENS_9TypeRangeENS_10ValueRangeEN4llvm8ArrayRefINS_14NamedAttributeEEE
FNL:1152,5144
FNA:1152,0,_ZN4mlir4sond8ExternOp6createERNS_20ImplicitLocOpBuilderENS_9TypeRangeENS_10ValueRangeEN4llvm8ArrayRefINS_14NamedAttributeEEE
FNL:1153,5148
FNA:1153,0,_ZN4mlir4sond8ExternOp5buildERNS_9OpBuilderERNS_14OperationStateENS_9TypeRangeENS_10ValueRangeERKNS0_6detail26ExternOpGenericAdaptorBase10PropertiesEN4llvm8ArrayRefINS_14NamedAttributeEEE
FNL:1154,5157
FNA:1154,0,_ZN4mlir4sond8ExternOp6createERNS_9OpBuilderENS_8LocationENS_9TypeRangeENS_10ValueRangeERKNS0_6detail26ExternOpGenericAdaptorBase10PropertiesEN4llvm8ArrayRefINS_14NamedAttributeEEE
FNL:1155,5165
FNA:1155,0,_ZN4mlir4sond8ExternOp6createERNS_20ImplicitLocOpBuilderENS_9TypeRangeENS_10ValueRangeERKNS0_6detail26ExternOpGenericAdaptorBase10PropertiesEN4llvm8ArrayRefINS_14NamedAttributeEEE
FNL:1156,5169
FNA:1156,0,_ZN4mlir4sond8ExternOp20verifyInvariantsImplEv
FNL:1157,5192
FNA:1157,0,_ZN4mlir4sond8ExternOp16verifyInvariantsEv
FNL:1158,5196
FNA:1158,0,_ZN4mlir4sond8ExternOp5parseERNS_11OpAsmParserERNS_14OperationStateE
FNL:1159,5217
FNA:1159,0,_ZZN4mlir4sond8ExternOp5parseERNS_11OpAsmParserERNS_14OperationStateEENK3$_0clEv
FNL:1160,5235
FNA:1160,0,_ZN4mlir4sond8ExternOp5printERNS_12OpAsmPrinterE
FNL:1161,5256
FNA:1161,0,_ZN4mlir4sond8ExternOp10getEffectsERN4llvm15SmallVectorImplINS_11SideEffects14EffectInstanceINS_13MemoryEffects6EffectEEEEE
FNL:1162,527
FNA:1162,0,_ZN4mlir4sond6detail23AddOpGenericAdaptorBaseC1ENS0_5AddOpE
FNA:1162,0,_ZN4mlir4sond6detail23AddOpGenericAdaptorBaseC2ENS0_5AddOpE
FNL:1163,5271
FNA:1163,0,_ZN4mlir4sond6detail24FRefOpGenericAdaptorBaseC1ENS0_6FRefOpE
FNA:1163,0,_ZN4mlir4sond6detail24FRefOpGenericAdaptorBaseC2ENS0_6FRefOpE
FNL:1164,5273
FNA:1164,0,_ZN4mlir4sond6detail24FRefOpGenericAdaptorBase9getCalleeEv
FNL:1165,5279
FNA:1165,0,_ZN4mlir4sond13FRefOpAdaptorC1ENS0_6FRefOpE
FNA:1165,0,_ZN4mlir4sond13FRefOpAdaptorC2ENS0_6FRefOpE
FNL:1166,5281
FNA:1166,0,_ZN4mlir4sond13FRefOpAdaptor6verifyENS_8LocationE
FNL:1167,5290
FNA:1167,0,_ZN4mlir4sond6FRefOp21setPropertiesFromAttrERNS0_6detail24FRefOpGenericAdaptorBase10PropertiesENS_9AttributeEN4llvm12function_refIFNS_18InFlightDiagnosticEvEEE
FNL:1168,530
FNA:1168,0,_ZN4mlir4sond12AddOpAdaptorC1ENS0_5AddOpE
FNA:1168,0,_ZN4mlir4sond12AddOpAdaptorC2ENS0_5AddOpE
FNL:1169,5313
FNA:1169,0,_ZN4mlir4sond6FRefOp19getPropertiesAsAttrEPNS_11MLIRContextERKNS0_6detail24FRefOpGenericAdaptorBase10PropertiesE
FNL:1170,532
FNA:1170,0,_ZN4mlir4sond12AddOpAdaptor6verifyENS_8LocationE
FNL:1171,5329
FNA:1171,0,_ZN4mlir4sond6FRefOp21computePropertiesHashERKNS0_6detail24FRefOpGenericAdaptorBase10PropertiesE
FNL:1172,5335
FNA:1172,0,_ZN4mlir4sond6FRefOp15getInherentAttrEPNS_11MLIRContextERKNS0_6detail24FRefOpGenericAdaptorBase10PropertiesEN4llvm9StringRefE
FNL:1173,5341
FNA:1173,0,_ZN4mlir4sond6FRefOp15setInherentAttrERNS0_6detail24FRefOpGenericAdaptorBase10PropertiesEN4llvm9StringRefENS_9AttributeE
FNL:1174,5348
FNA:1174,0,_ZN4mlir4sond6FRefOp21populateInherentAttrsEPNS_11MLIRContextERKNS0_6detail24FRefOpGenericAdaptorBase10PropertiesERNS_13NamedAttrListE
FNL:1175,5352
FNA:1175,0,_ZN4mlir4sond6FRefOp19verifyInherentAttrsENS_13OperationNameERNS_13NamedAttrListEN4llvm12function_refIFNS_18InFlightDiagnosticEvEEE
FNL:1176,536
FNA:1176,0,_ZN4mlir4sond5AddOp21setPropertiesFromAttrERNS_15EmptyPropertiesENS_9AttributeEN4llvm12function_refIFNS_18InFlightDiagnosticEvEEE
FNL:1177,5361
FNA:1177,0,_ZN4mlir4sond6FRefOp14readPropertiesERNS_21DialectBytecodeReaderERNS_14OperationStateE
FNL:1178,5368
FNA:1178,0,_ZN4mlir4sond6FRefOp15writePropertiesERNS_21DialectBytecodeWriterE
FNL:1179,5373
FNA:1179,0,_ZN4mlir4sond6FRefOp9getCalleeEv
FNL:1180,5378
FNA:1180,0,_ZN4mlir4sond6FRefOp9setCalleeEN4llvm9StringRefE
FNL:1181,5382
FNA:1181,0,_ZN4mlir4sond6FRefOp5buildERNS_9OpBuilderERNS_14OperationStateENS_4TypeENS_17FlatSymbolRefAttrE
FNL:1182,5387
FNA:1182,0,_ZN4mlir4sond6FRefOp6createERNS_9OpBuilderENS_8LocationENS_4TypeENS_17FlatSymbolRefAttrE
FNL:1183,5395
FNA:1183,0,_ZN4mlir4sond6FRefOp6createERNS_20ImplicitLocOpBuilderENS_4TypeENS_17FlatSymbolRefAttrE
FNL:1184,5399
FNA:1184,0,_ZN4mlir4sond6FRefOp5buildERNS_9OpBuilderERNS_14OperationStateENS_9TypeRangeENS_17FlatSymbolRefAttrE
FNL:1185,5405
FNA:1185,0,_ZN4mlir4sond6FRefOp6createERNS_9OpBuilderENS_8LocationENS_9TypeRangeENS_17FlatSymbolRefAttrE
FNL:1186,5413
FNA:1186,0,_ZN4mlir4sond6FRefOp6createERNS_20ImplicitLocOpBuilderENS_9TypeRangeENS_17FlatSymbolRefAttrE
FNL:1187,5417
FNA:1187,0,_ZN4mlir4sond6FRefOp5buildERNS_9OpBuilderERNS_14OperationStateENS_4TypeEN4llvm9StringRefE
FNL:1188,5422
FNA:1188,0,_ZN4mlir4sond6FRefOp6createERNS_9OpBuilderENS_8LocationENS_4TypeEN4llvm9StringRefE
FNL:1189,5430
FNA:1189,0,_ZN4mlir4sond6FRefOp6createERNS_20ImplicitLocOpBuilderENS_4TypeEN4llvm9StringRefE
FNL:1190,5434
FNA:1190,0,_ZN4mlir4sond6FRefOp5buildERNS_9OpBuilderERNS_14OperationStateENS_9TypeRangeEN4llvm9StringRefE
FNL:1191,5440
FNA:1191,0,_ZN4mlir4sond6FRefOp6createERNS_9OpBuilderENS_8LocationENS_9TypeRangeEN4llvm9StringRefE
FNL:1192,5448
FNA:1192,0,_ZN4mlir4sond6FRefOp6createERNS_20ImplicitLocOpBuilderENS_9TypeRangeEN4llvm9StringRefE
FNL:1193,545
FNA:1193,0,_ZN4mlir4sond5AddOp19getPropertiesAsAttrEPNS_11MLIRContextERKNS_15EmptyPropertiesE
FNL:1194,5452
FNA:1194,0,_ZN4mlir4sond6FRefOp5buildERNS_9OpBuilderERNS_14OperationStateENS_9TypeRangeENS_10ValueRangeEN4llvm8ArrayRefINS_14NamedAttributeEEE
FNL:1195,5470
FNA:1195,0,_ZN4mlir4sond6FRefOp6createERNS_9OpBuilderENS_8LocationENS_9TypeRangeENS_10ValueRangeEN4llvm8ArrayRefINS_14NamedAttributeEEE
FNL:1196,5478
FNA:1196,0,_ZN4mlir4sond6FRefOp6createERNS_20ImplicitLocOpBuilderENS_9TypeRangeENS_10ValueRangeEN4llvm8ArrayRefINS_14NamedAttributeEEE
FNL:1197,5482
FNA:1197,0,_ZN4mlir4sond6FRefOp5buildERNS_9OpBuilderERNS_14OperationStateENS_9TypeRangeENS_10ValueRangeERKNS0_6detail24FRefOpGenericAdaptorBase10PropertiesEN4llvm8ArrayRefINS_14NamedAttributeEEE
FNL:1198,5491
FNA:1198,0,_ZN4mlir4sond6FRefOp6createERNS_9OpBuilderENS_8LocationENS_9TypeRangeENS_10ValueRangeERKNS0_6detail24FRefOpGenericAdaptorBase10PropertiesEN4llvm8ArrayRefINS_14NamedAttributeEEE
FNL:1199,5499
FNA:1199,0,_ZN4mlir4sond6FRefOp6createERNS_20ImplicitLocOpBuilderENS_9TypeRangeENS_10ValueRangeERKNS0_6detail24FRefOpGenericAdaptorBase10PropertiesEN4llvm8ArrayRefINS_14NamedAttributeEEE
FNL:1200,5503
FNA:1200,0,_ZN4mlir4sond6FRefOp20verifyInvariantsImplEv
FNL:1201,5521
FNA:1201,0,_ZN4mlir4sond6FRefOp16verifyInvariantsEv
FNL:1202,5525
FNA:1202,0,_ZN4mlir4sond6FRefOp5parseERNS_11OpAsmParserERNS_14OperationStateE
FNL:1203,5538
FNA:1203,0,_ZZN4mlir4sond6FRefOp5parseERNS_11OpAsmParserERNS_14OperationStateEENK3$_0clEv
FNL:1204,554
FNA:1204,0,_ZN4mlir4sond5AddOp21computePropertiesHashERKNS_15EmptyPropertiesE
FNL:1205,5556
FNA:1205,0,_ZN4mlir4sond6FRefOp5printERNS_12OpAsmPrinterE
FNL:1206,5573
FNA:1206,0,_ZN4mlir4sond6FRefOp10getEffectsERN4llvm15SmallVectorImplINS_11SideEffects14EffectInstanceINS_13MemoryEffects6EffectEEEEE
FNL:1207,5588
FNA:1207,0,_ZN4mlir4sond6detail23FunOpGenericAdaptorBaseC1ENS0_5FunOpE
FNA:1207,0,_ZN4mlir4sond6detail23FunOpGenericAdaptorBaseC2ENS0_5FunOpE
FNL:1208,559
FNA:1208,0,_ZN4mlir4sond5AddOp15getInherentAttrEPNS_11MLIRContextERKNS_15EmptyPropertiesEN4llvm9StringRefE
FNL:1209,5590
FNA:1209,0,_ZN4mlir4sond6detail23FunOpGenericAdaptorBase10getSymNameEv
FNL:1210,5595
FNA:1210,0,_ZN4mlir4sond6detail23FunOpGenericAdaptorBase15getFunctionTypeEv
FNL:1211,5600
FNA:1211,0,_ZN4mlir4sond6detail23FunOpGenericAdaptorBase11getArgAttrsEv
FNL:1212,5605
FNA:1212,0,_ZN4mlir4sond6detail23FunOpGenericAdaptorBase11getResAttrsEv
FNL:1213,5610
FNA:1213,0,_ZN4mlir4sond6detail23FunOpGenericAdaptorBase7getFidxEv
FNL:1214,5616
FNA:1214,0,_ZN4mlir4sond12FunOpAdaptorC1ENS0_5FunOpE
FNA:1214,0,_ZN4mlir4sond12FunOpAdaptorC2ENS0_5FunOpE
FNL:1215,5618
FNA:1215,0,_ZN4mlir4sond12FunOpAdaptor6verifyENS_8LocationE
FNL:1216,563
FNA:1216,0,_ZN4mlir4sond5AddOp15setInherentAttrERNS_15EmptyPropertiesEN4llvm9StringRefENS_9AttributeE
FNL:1217,5644
FNA:1217,0,_ZN4mlir4sond5FunOp21setPropertiesFromAttrERNS0_6detail23FunOpGenericAdaptorBase10PropertiesENS_9AttributeEN4llvm12function_refIFNS_18InFlightDiagnosticEvEEE
FNL:1218,566
FNA:1218,0,_ZN4mlir4sond5AddOp21populateInherentAttrsEPNS_11MLIRContextERKNS_15EmptyPropertiesERNS_13NamedAttrListE
FNL:1219,569
FNA:1219,0,_ZN4mlir4sond5AddOp19verifyInherentAttrsENS_13OperationNameERNS_13NamedAttrListEN4llvm12function_refIFNS_18InFlightDiagnosticEvEEE
FNL:1220,5723
FNA:1220,0,_ZN4mlir4sond5FunOp19getPropertiesAsAttrEPNS_11MLIRContextERKNS0_6detail23FunOpGenericAdaptorBase10PropertiesE
FNL:1221,573
FNA:1221,8,_ZN4mlir4sond5AddOp5buildERNS_9OpBuilderERNS_14OperationStateENS_4TypeENS_5ValueES7_
FNL:1222,5767
FNA:1222,0,_ZN4mlir4sond5FunOp21computePropertiesHashERKNS0_6detail23FunOpGenericAdaptorBase10PropertiesE
FNL:1223,5777
FNA:1223,0,_ZN4mlir4sond5FunOp15getInherentAttrEPNS_11MLIRContextERKNS0_6detail23FunOpGenericAdaptorBase10PropertiesEN4llvm9StringRefE
FNL:1224,579
FNA:1224,0,_ZN4mlir4sond5AddOp6createERNS_9OpBuilderENS_8LocationENS_4TypeENS_5ValueES6_
FNL:1225,5795
FNA:1225,0,_ZN4mlir4sond5FunOp15setInherentAttrERNS0_6detail23FunOpGenericAdaptorBase10PropertiesEN4llvm9StringRefENS_9AttributeE
FNL:1226,5822
FNA:1226,0,_ZN4mlir4sond5FunOp21populateInherentAttrsEPNS_11MLIRContextERKNS0_6detail23FunOpGenericAdaptorBase10PropertiesERNS_13NamedAttrListE
FNL:1227,5834
FNA:1227,0,_ZN4mlir4sond5FunOp19verifyInherentAttrsENS_13OperationNameERNS_13NamedAttrListEN4llvm12function_refIFNS_18InFlightDiagnosticEvEEE
FNL:1228,5867
FNA:1228,0,_ZN4mlir4sond5FunOp14readPropertiesERNS_21DialectBytecodeReaderERNS_14OperationStateE
FNL:1229,587
FNA:1229,0,_ZN4mlir4sond5AddOp6createERNS_20ImplicitLocOpBuilderENS_4TypeENS_5ValueES5_
FNL:1230,5886
FNA:1230,0,_ZN4mlir4sond5FunOp15writePropertiesERNS_21DialectBytecodeWriterE
FNL:1231,5898
FNA:1231,0,_ZN4mlir4sond5FunOp10getSymNameEv
FNL:1232,5903
FNA:1232,0,_ZN4mlir4sond5FunOp15getFunctionTypeEv
FNL:1233,5908
FNA:1233,0,_ZN4mlir4sond5FunOp11getArgAttrsEv
FNL:1234,591
FNA:1234,0,_ZN4mlir4sond5AddOp5buildERNS_9OpBuilderERNS_14OperationStateENS_9TypeRangeENS_5ValueES7_
FNL:1235,5913
FNA:1235,0,_ZN4mlir4sond5FunOp11getResAttrsEv
FNL:1236,5918
FNA:1236,0,_ZN4mlir4sond5FunOp7getFidxEv
FNL:1237,5923
FNA:1237,0,_ZN4mlir4sond5FunOp10setSymNameEN4llvm9StringRefE
FNL:1238,5927
FNA:1238,0,_ZN4mlir4sond5FunOp15setFunctionTypeENS_12FunctionTypeE
FNL:1239,5931
FNA:1239,0,_ZN4mlir4sond5FunOp7setFidxENSt3__18optionalIyEE
FNL:1240,5939
FNA:1240,0,_ZN4mlir4sond5FunOp5buildERNS_9OpBuilderERNS_14OperationStateENS_10StringAttrENS_8TypeAttrENS_9ArrayAttrES8_NS_11IntegerAttrE
FNL:1241,5954
FNA:1241,0,_ZN4mlir4sond5FunOp6createERNS_9OpBuilderENS_8LocationENS_10StringAttrENS_8TypeAttrENS_9ArrayAttrES7_NS_11IntegerAttrE
FNL:1242,5962
FNA:1242,0,_ZN4mlir4sond5FunOp6createERNS_20ImplicitLocOpBuilderENS_10StringAttrENS_8TypeAttrENS_9ArrayAttrES6_NS_11IntegerAttrE
FNL:1243,5966
FNA:1243,0,_ZN4mlir4sond5FunOp5buildERNS_9OpBuilderERNS_14OperationStateENS_9TypeRangeENS_10StringAttrENS_8TypeAttrENS_9ArrayAttrES9_NS_11IntegerAttrE
FNL:1244,598
FNA:1244,0,_ZN4mlir4sond5AddOp6createERNS_9OpBuilderENS_8LocationENS_9TypeRangeENS_5ValueES6_
FNL:1245,5983
FNA:1245,0,_ZN4mlir4sond5FunOp6createERNS_9OpBuilderENS_8LocationENS_9TypeRangeENS_10StringAttrENS_8TypeAttrENS_9ArrayAttrES8_NS_11IntegerAttrE
FNL:1246,5991
FNA:1246,0,_ZN4mlir4sond5FunOp6createERNS_20ImplicitLocOpBuilderENS_9TypeRangeENS_10StringAttrENS_8TypeAttrENS_9ArrayAttrES7_NS_11IntegerAttrE
FNL:1247,5995
FNA:1247,0,_ZN4mlir4sond5FunOp5buildERNS_9OpBuilderERNS_14OperationStateEN4llvm9StringRefENS_12FunctionTypeENS_9ArrayAttrES9_NS_11IntegerAttrE
FNL:1248,6010
FNA:1248,0,_ZN4mlir4sond5FunOp6createERNS_9OpBuilderENS_8LocationEN4llvm9StringRefENS_12FunctionTypeENS_9ArrayAttrES8_NS_11IntegerAttrE
FNL:1249,6018
FNA:1249,0,_ZN4mlir4sond5FunOp6createERNS_20ImplicitLocOpBuilderEN4llvm9StringRefENS_12FunctionTypeENS_9ArrayAttrES7_NS_11IntegerAttrE
FNL:1250,6022
FNA:1250,0,_ZN4mlir4sond5FunOp5buildERNS_9OpBuilderERNS_14OperationStateENS_9TypeRangeEN4llvm9StringRefENS_12FunctionTypeENS_9ArrayAttrESA_NS_11IntegerAttrE
FNL:1251,6039
FNA:1251,0,_ZN4mlir4sond5FunOp6createERNS_9OpBuilderENS_8LocationENS_9TypeRangeEN4llvm9StringRefENS_12FunctionTypeENS_9ArrayAttrES9_NS_11IntegerAttrE
FNL:1252,6047
FNA:1252,0,_ZN4mlir4sond5FunOp6createERNS_20ImplicitLocOpBuilderENS_9TypeRangeEN4llvm9StringRefENS_12FunctionTypeENS_9ArrayAttrES8_NS_11IntegerAttrE
FNL:1253,6051
FNA:1253,0,_ZN4mlir4sond5FunOp5buildERNS_9OpBuilderERNS_14OperationStateENS_9TypeRangeENS_10ValueRangeEN4llvm8ArrayRefINS_14NamedAttributeEEE
FNL:1254,606
FNA:1254,0,_ZN4mlir4sond5AddOp6createERNS_20ImplicitLocOpBuilderENS_9TypeRangeENS_5ValueES5_
FNL:1255,6071
FNA:1255,0,_ZN4mlir4sond5FunOp6createERNS_9OpBuilderENS_8LocationENS_9TypeRangeENS_10ValueRangeEN4llvm8ArrayRefINS_14NamedAttributeEEE
FNL:1256,6079
FNA:1256,0,_ZN4mlir4sond5FunOp6createERNS_20ImplicitLocOpBuilderENS_9TypeRangeENS_10ValueRangeEN4llvm8ArrayRefINS_14NamedAttributeEEE
FNL:1257,6083
FNA:1257,0,_ZN4mlir4sond5FunOp5buildERNS_9OpBuilderERNS_14OperationStateENS_9TypeRangeENS_10ValueRangeERKNS0_6detail23FunOpGenericAdaptorBase10PropertiesEN4llvm8ArrayRefINS_14NamedAttributeEEE
FNL:1258,6094
FNA:1258,0,_ZN4mlir4sond5FunOp6createERNS_9OpBuilderENS_8LocationENS_9TypeRangeENS_10ValueRangeERKNS0_6detail23FunOpGenericAdaptorBase10PropertiesEN4llvm8ArrayRefINS_14NamedAttributeEEE
FNL:1259,610
FNA:1259,0,_ZN4mlir4sond5AddOp5buildERNS_9OpBuilderERNS_14OperationStateENS_9TypeRangeENS_10ValueRangeEN4llvm8ArrayRefINS_14NamedAttributeEEE
FNL:1260,6102
FNA:1260,0,_ZN4mlir4sond5FunOp6createERNS_20ImplicitLocOpBuilderENS_9TypeRangeENS_10ValueRangeERKNS0_6detail23FunOpGenericAdaptorBase10PropertiesEN4llvm8ArrayRefINS_14NamedAttributeEEE
FNL:1261,6106
FNA:1261,0,_ZN4mlir4sond5FunOp20verifyInvariantsImplEv
FNL:1262,6139
FNA:1262,0,_ZN4mlir4sond5FunOp16verifyInvariantsEv
FNL:1263,6143
FNA:1263,0,_ZN4mlir4sond5FunOp5parseERNS_11OpAsmParserERNS_14OperationStateE
FNL:1264,6162
FNA:1264,0,_ZZN4mlir4sond5FunOp5parseERNS_11OpAsmParserERNS_14OperationStateEENK3$_0clEv
FNL:1265,6174
FNA:1265,0,_ZN4mlir4sond5FunOp5printERNS_12OpAsmPrinterE
FNL:1266,618
FNA:1266,0,_ZN4mlir4sond5AddOp6createERNS_9OpBuilderENS_8LocationENS_9TypeRangeENS_10ValueRangeEN4llvm8ArrayRefINS_14NamedAttributeEEE
FNL:1267,6200
FNA:1267,0,_ZN4mlir4sond6detail22IfOpGenericAdaptorBaseC1ENS0_4IfOpE
FNA:1267,0,_ZN4mlir4sond6detail22IfOpGenericAdaptorBaseC2ENS0_4IfOpE
FNL:1268,6203
FNA:1268,0,_ZN4mlir4sond11IfOpAdaptorC1ENS0_4IfOpE
FNA:1268,0,_ZN4mlir4sond11IfOpAdaptorC2ENS0_4IfOpE
FNL:1269,6205
FNA:1269,0,_ZN4mlir4sond11IfOpAdaptor6verifyENS_8LocationE
FNL:1270,6209
FNA:1270,0,_ZN4mlir4sond4IfOp17getAsmResultNamesEN4llvm12function_refIFvNS_5ValueENS2_9StringRefEEEE
FNL:1271,6218
FNA:1271,0,_ZN4mlir4sond4IfOp21setPropertiesFromAttrERNS_15EmptyPropertiesENS_9AttributeEN4llvm12function_refIFNS_18InFlightDiagnosticEvEEE
FNL:1272,6227
FNA:1272,0,_ZN4mlir4sond4IfOp19getPropertiesAsAttrEPNS_11MLIRContextERKNS_15EmptyPropertiesE
FNL:1273,6236
FNA:1273,0,_ZN4mlir4sond4IfOp21computePropertiesHashERKNS_15EmptyPropertiesE
FNL:1274,6241
FNA:1274,0,_ZN4mlir4sond4IfOp15getInherentAttrEPNS_11MLIRContextERKNS_15EmptyPropertiesEN4llvm9StringRefE
FNL:1275,6245
FNA:1275,0,_ZN4mlir4sond4IfOp15setInherentAttrERNS_15EmptyPropertiesEN4llvm9StringRefENS_9AttributeE
FNL:1276,6248
FNA:1276,0,_ZN4mlir4sond4IfOp21populateInherentAttrsEPNS_11MLIRContextERKNS_15EmptyPropertiesERNS_13NamedAttrListE
FNL:1277,6251
FNA:1277,0,_ZN4mlir4sond4IfOp19verifyInherentAttrsENS_13OperationNameERNS_13NamedAttrListEN4llvm12function_refIFNS_18InFlightDiagnosticEvEEE
FNL:1278,6255
FNA:1278,0,_ZN4mlir4sond4IfOp5buildERNS_9OpBuilderERNS_14OperationStateENS_4TypeES6_NS_5ValueES7_
FNL:1279,626
FNA:1279,0,_ZN4mlir4sond5AddOp6createERNS_20ImplicitLocOpBuilderENS_9TypeRangeENS_10ValueRangeEN4llvm8ArrayRefINS_14NamedAttributeEEE
FNL:1280,6262
FNA:1280,0,_ZN4mlir4sond4IfOp6createERNS_9OpBuilderENS_8LocationENS_4TypeES5_NS_5ValueES6_
FNL:1281,6270
FNA:1281,0,_ZN4mlir4sond4IfOp6createERNS_20ImplicitLocOpBuilderENS_4TypeES4_NS_5ValueES5_
FNL:1282,6274
FNA:1282,0,_ZN4mlir4sond4IfOp5buildERNS_9OpBuilderERNS_14OperationStateENS_9TypeRangeENS_5ValueES7_
FNL:1283,6281
FNA:1283,0,_ZN4mlir4sond4IfOp6createERNS_9OpBuilderENS_8LocationENS_9TypeRangeENS_5ValueES6_
FNL:1284,6289
FNA:1284,0,_ZN4mlir4sond4IfOp6createERNS_20ImplicitLocOpBuilderENS_9TypeRangeENS_5ValueES5_
FNL:1285,6293
FNA:1285,0,_ZN4mlir4sond4IfOp5buildERNS_9OpBuilderERNS_14OperationStateENS_9TypeRangeENS_10ValueRangeEN4llvm8ArrayRefINS_14NamedAttributeEEE
FNL:1286,630
FNA:1286,0,_ZN4mlir4sond5AddOp5buildERNS_9OpBuilderERNS_14OperationStateENS_9TypeRangeENS_10ValueRangeERKNS_15EmptyPropertiesEN4llvm8ArrayRefINS_14NamedAttributeEEE
FNL:1287,6301
FNA:1287,0,_ZN4mlir4sond4IfOp6createERNS_9OpBuilderENS_8LocationENS_9TypeRangeENS_10ValueRangeEN4llvm8ArrayRefINS_14NamedAttributeEEE
FNL:1288,6309
FNA:1288,0,_ZN4mlir4sond4IfOp6createERNS_20ImplicitLocOpBuilderENS_9TypeRangeENS_10ValueRangeEN4llvm8ArrayRefINS_14NamedAttributeEEE
FNL:1289,6313
FNA:1289,0,_ZN4mlir4sond4IfOp5buildERNS_9OpBuilderERNS_14OperationStateENS_9TypeRangeENS_10ValueRangeERKNS_15EmptyPropertiesEN4llvm8ArrayRefINS_14NamedAttributeEEE
FNL:1290,6322
FNA:1290,0,_ZN4mlir4sond4IfOp6createERNS_9OpBuilderENS_8LocationENS_9TypeRangeENS_10ValueRangeERKNS_15EmptyPropertiesEN4llvm8ArrayRefINS_14NamedAttributeEEE
FNL:1291,6330
FNA:1291,0,_ZN4mlir4sond4IfOp6createERNS_20ImplicitLocOpBuilderENS_9TypeRangeENS_10ValueRangeERKNS_15EmptyPropertiesEN4llvm8ArrayRefINS_14NamedAttributeEEE
FNL:1292,6334
FNA:1292,0,_ZN4mlir4sond4IfOp20verifyInvariantsImplEv
FNL:1293,6368
FNA:1293,0,_ZN4mlir4sond4IfOp16verifyInvariantsEv
FNL:1294,6372
FNA:1294,0,_ZN4mlir4sond4IfOp5parseERNS_11OpAsmParserERNS_14OperationStateE
FNL:1295,639
FNA:1295,0,_ZN4mlir4sond5AddOp6createERNS_9OpBuilderENS_8LocationENS_9TypeRangeENS_10ValueRangeERKNS_15EmptyPropertiesEN4llvm8ArrayRefINS_14NamedAttributeEEE
FNL:1296,6401
FNA:1296,0,_ZZN4mlir4sond4IfOp5parseERNS_11OpAsmParserERNS_14OperationStateEENK3$_0clEv
FNL:1297,6451
FNA:1297,0,_ZN4mlir4sond4IfOp5printERNS_12OpAsmPrinterE
FNL:1298,647
FNA:1298,0,_ZN4mlir4sond5AddOp6createERNS_20ImplicitLocOpBuilderENS_9TypeRangeENS_10ValueRangeERKNS_15EmptyPropertiesEN4llvm8ArrayRefINS_14NamedAttributeEEE
FNL:1299,6509
FNA:1299,0,_ZN4mlir4sond6detail24LoadOpGenericAdaptorBaseC1ENS0_6LoadOpE
FNA:1299,0,_ZN4mlir4sond6detail24LoadOpGenericAdaptorBaseC2ENS0_6LoadOpE
FNL:1300,651
FNA:1300,0,_ZN4mlir4sond5AddOp20verifyInvariantsImplEv
FNL:1301,6511
FNA:1301,0,_ZN4mlir4sond6detail24LoadOpGenericAdaptorBase27getODSOperandIndexAndLengthEjj
FNL:1302,6529
FNA:1302,0,_ZN4mlir4sond6detail24LoadOpGenericAdaptorBase7getNameEv
FNL:1303,6534
FNA:1303,0,_ZN4mlir4sond6detail24LoadOpGenericAdaptorBase8getAliasEv
FNL:1304,6539
FNA:1304,0,_ZN4mlir4sond6detail24LoadOpGenericAdaptorBase15getDeclaredTypeEv
FNL:1305,6545
FNA:1305,0,_ZN4mlir4sond13LoadOpAdaptorC1ENS0_6LoadOpE
FNA:1305,0,_ZN4mlir4sond13LoadOpAdaptorC2ENS0_6LoadOpE
FNL:1306,6547
FNA:1306,0,_ZN4mlir4sond13LoadOpAdaptor6verifyENS_8LocationE
FNL:1307,6566
FNA:1307,0,_ZN4mlir4sond6LoadOp27getODSOperandIndexAndLengthEj
FNL:1308,6584
FNA:1308,0,_ZN4mlir4sond6LoadOp16getOffsetMutableEv
FNL:1309,6590
FNA:1309,0,_ZN4mlir4sond6LoadOp21setPropertiesFromAttrERNS0_6detail24LoadOpGenericAdaptorBase10PropertiesENS_9AttributeEN4llvm12function_refIFNS_18InFlightDiagnosticEvEEE
FNL:1310,6641
FNA:1310,0,_ZN4mlir4sond6LoadOp19getPropertiesAsAttrEPNS_11MLIRContextERKNS0_6detail24LoadOpGenericAdaptorBase10PropertiesE
FNL:1311,6671
FNA:1311,0,_ZN4mlir4sond6LoadOp21computePropertiesHashERKNS0_6detail24LoadOpGenericAdaptorBase10PropertiesE
FNL:1312,6679
FNA:1312,0,_ZN4mlir4sond6LoadOp15getInherentAttrEPNS_11MLIRContextERKNS0_6detail24LoadOpGenericAdaptorBase10PropertiesEN4llvm9StringRefE
FNL:1313,6691
FNA:1313,0,_ZN4mlir4sond6LoadOp15setInherentAttrERNS0_6detail24LoadOpGenericAdaptorBase10PropertiesEN4llvm9StringRefENS_9AttributeE
FNL:1314,6708
FNA:1314,0,_ZN4mlir4sond6LoadOp21populateInherentAttrsEPNS_11MLIRContextERKNS0_6detail24LoadOpGenericAdaptorBase10PropertiesERNS_13NamedAttrListE
FNL:1315,6716
FNA:1315,0,_ZN4mlir4sond6LoadOp19verifyInherentAttrsENS_13OperationNameERNS_13NamedAttrListEN4llvm12function_refIFNS_18InFlightDiagnosticEvEEE
FNL:1316,6737
FNA:1316,0,_ZN4mlir4sond6LoadOp14readPropertiesERNS_21DialectBytecodeReaderERNS_14OperationStateE
FNL:1317,6750
FNA:1317,0,_ZN4mlir4sond6LoadOp15writePropertiesERNS_21DialectBytecodeWriterE
FNL:1318,6757
FNA:1318,0,_ZN4mlir4sond6LoadOp7getNameEv
FNL:1319,6762
FNA:1319,0,_ZN4mlir4sond6LoadOp8getAliasEv
FNL:1320,6767
FNA:1320,0,_ZN4mlir4sond6LoadOp15getDeclaredTypeEv
FNL:1321,6772
FNA:1321,0,_ZN4mlir4sond6LoadOp7setNameEN4llvm9StringRefE
FNL:1322,6776
FNA:1322,0,_ZN4mlir4sond6LoadOp8setAliasEj
FNL:1323,6780
FNA:1323,0,_ZN4mlir4sond6LoadOp15setDeclaredTypeENS_4TypeE
FNL:1324,6784
FNA:1324,0,_ZN4mlir4sond6LoadOp5buildERNS_9OpBuilderERNS_14OperationStateENS_4TypeENS_5ValueES7_S7_NS_10StringAttrENS_11IntegerAttrENS_8TypeAttrE
FNL:1325,679
FNA:1325,0,_ZN4mlir4sond5AddOp16verifyInvariantsEv
FNL:1326,6795
FNA:1326,0,_ZN4mlir4sond6LoadOp6createERNS_9OpBuilderENS_8LocationENS_4TypeENS_5ValueES6_S6_NS_10StringAttrENS_11IntegerAttrENS_8TypeAttrE
FNL:1327,6803
FNA:1327,0,_ZN4mlir4sond6LoadOp6createERNS_20ImplicitLocOpBuilderENS_4TypeENS_5ValueES5_S5_NS_10StringAttrENS_11IntegerAttrENS_8TypeAttrE
FNL:1328,6807
FNA:1328,0,_ZN4mlir4sond6LoadOp5buildERNS_9OpBuilderERNS_14OperationStateENS_9TypeRangeENS_5ValueES7_S7_NS_10StringAttrENS_11IntegerAttrENS_8TypeAttrE
FNL:1329,6819
FNA:1329,0,_ZN4mlir4sond6LoadOp6createERNS_9OpBuilderENS_8LocationENS_9TypeRangeENS_5ValueES6_S6_NS_10StringAttrENS_11IntegerAttrENS_8TypeAttrE
FNL:1330,6827
FNA:1330,0,_ZN4mlir4sond6LoadOp6createERNS_20ImplicitLocOpBuilderENS_9TypeRangeENS_5ValueES5_S5_NS_10StringAttrENS_11IntegerAttrENS_8TypeAttrE
FNL:1331,683
FNA:1331,0,_ZN4mlir4sond5AddOp5parseERNS_11OpAsmParserERNS_14OperationStateE
FNL:1332,6831
FNA:1332,0,_ZN4mlir4sond6LoadOp5buildERNS_9OpBuilderERNS_14OperationStateENS_4TypeENS_5ValueES7_S7_N4llvm9StringRefEjS6_
FNL:1333,6842
FNA:1333,0,_ZN4mlir4sond6LoadOp6createERNS_9OpBuilderENS_8LocationENS_4TypeENS_5ValueES6_S6_N4llvm9StringRefEjS5_
FNL:1334,6850
FNA:1334,0,_ZN4mlir4sond6LoadOp6createERNS_20ImplicitLocOpBuilderENS_4TypeENS_5ValueES5_S5_N4llvm9StringRefEjS4_
FNL:1335,6854
FNA:1335,0,_ZN4mlir4sond6LoadOp5buildERNS_9OpBuilderERNS_14OperationStateENS_9TypeRangeENS_5ValueES7_S7_N4llvm9StringRefEjNS_4TypeE
FNL:1336,6866
FNA:1336,0,_ZN4mlir4sond6LoadOp6createERNS_9OpBuilderENS_8LocationENS_9TypeRangeENS_5ValueES6_S6_N4llvm9StringRefEjNS_4TypeE
FNL:1337,6874
FNA:1337,0,_ZN4mlir4sond6LoadOp6createERNS_20ImplicitLocOpBuilderENS_9TypeRangeENS_5ValueES5_S5_N4llvm9StringRefEjNS_4TypeE
FNL:1338,6878
FNA:1338,0,_ZN4mlir4sond6LoadOp5buildERNS_9OpBuilderERNS_14OperationStateENS_9TypeRangeENS_10ValueRangeEN4llvm8ArrayRefINS_14NamedAttributeEEE
FNL:1339,6896
FNA:1339,0,_ZN4mlir4sond6LoadOp6createERNS_9OpBuilderENS_8LocationENS_9TypeRangeENS_10ValueRangeEN4llvm8ArrayRefINS_14NamedAttributeEEE
FNL:1340,6904
FNA:1340,0,_ZN4mlir4sond6LoadOp6createERNS_20ImplicitLocOpBuilderENS_9TypeRangeENS_10ValueRangeEN4llvm8ArrayRefINS_14NamedAttributeEEE
FNL:1341,6908
FNA:1341,0,_ZN4mlir4sond6LoadOp5buildERNS_9OpBuilderERNS_14OperationStateENS_9TypeRangeENS_10ValueRangeERKNS0_6detail24LoadOpGenericAdaptorBase10PropertiesEN4llvm8ArrayRefINS_14NamedAttributeEEE
FNL:1342,6917
FNA:1342,0,_ZN4mlir4sond6LoadOp6createERNS_9OpBuilderENS_8LocationENS_9TypeRangeENS_10ValueRangeERKNS0_6detail24LoadOpGenericAdaptorBase10PropertiesEN4llvm8ArrayRefINS_14NamedAttributeEEE
FNL:1343,6925
FNA:1343,0,_ZN4mlir4sond6LoadOp6createERNS_20ImplicitLocOpBuilderENS_9TypeRangeENS_10ValueRangeERKNS0_6detail24LoadOpGenericAdaptorBase10PropertiesEN4llvm8ArrayRefINS_14NamedAttributeEEE
FNL:1344,6929
FNA:1344,0,_ZN4mlir4sond6LoadOp20verifyInvariantsImplEv
FNL:1345,6983
FNA:1345,0,_ZN4mlir4sond6LoadOp16verifyInvariantsEv
FNL:1346,6987
FNA:1346,0,_ZN4mlir4sond6LoadOp5parseERNS_11OpAsmParserERNS_14OperationStateE
FNL:1347,7041
FNA:1347,0,_ZZN4mlir4sond6LoadOp5parseERNS_11OpAsmParserERNS_14OperationStateEENK3$_0clEv
FNL:1348,7084
FNA:1348,0,_ZN4mlir4sond6LoadOp5printERNS_12OpAsmPrinterE
FNL:1349,710
FNA:1349,0,_ZZN4mlir4sond5AddOp5parseERNS_11OpAsmParserERNS_14OperationStateEENK3$_0clEv
FNL:1350,7143
FNA:1350,0,_ZN4mlir4sond6detail24LoopOpGenericAdaptorBaseC1ENS0_6LoopOpE
FNA:1350,0,_ZN4mlir4sond6detail24LoopOpGenericAdaptorBaseC2ENS0_6LoopOpE
FNL:1351,7145
FNA:1351,0,_ZN4mlir4sond6detail24LoopOpGenericAdaptorBase27getODSOperandIndexAndLengthEjj
FNL:1352,7164
FNA:1352,0,_ZN4mlir4sond13LoopOpAdaptorC1ENS0_6LoopOpE
FNA:1352,0,_ZN4mlir4sond13LoopOpAdaptorC2ENS0_6LoopOpE
FNL:1353,7166
FNA:1353,0,_ZN4mlir4sond13LoopOpAdaptor6verifyENS_8LocationE
FNL:1354,7170
FNA:1354,0,_ZN4mlir4sond6LoopOp27getODSOperandIndexAndLengthEj
FNL:1355,7188
FNA:1355,0,_ZN4mlir4sond6LoopOp14getBackMutableEv
FNL:1356,7194
FNA:1356,0,_ZN4mlir4sond6LoopOp21setPropertiesFromAttrERNS_15EmptyPropertiesENS_9AttributeEN4llvm12function_refIFNS_18InFlightDiagnosticEvEEE
FNL:1357,7203
FNA:1357,0,_ZN4mlir4sond6LoopOp19getPropertiesAsAttrEPNS_11MLIRContextERKNS_15EmptyPropertiesE
FNL:1358,7212
FNA:1358,0,_ZN4mlir4sond6LoopOp21computePropertiesHashERKNS_15EmptyPropertiesE
FNL:1359,7217
FNA:1359,0,_ZN4mlir4sond6LoopOp15getInherentAttrEPNS_11MLIRContextERKNS_15EmptyPropertiesEN4llvm9StringRefE
FNL:1360,7221
FNA:1360,0,_ZN4mlir4sond6LoopOp15setInherentAttrERNS_15EmptyPropertiesEN4llvm9StringRefENS_9AttributeE
FNL:1361,7224
FNA:1361,0,_ZN4mlir4sond6LoopOp21populateInherentAttrsEPNS_11MLIRContextERKNS_15EmptyPropertiesERNS_13NamedAttrListE
FNL:1362,7227
FNA:1362,0,_ZN4mlir4sond6LoopOp19verifyInherentAttrsENS_13OperationNameERNS_13NamedAttrListEN4llvm12function_refIFNS_18InFlightDiagnosticEvEEE
FNL:1363,7231
FNA:1363,0,_ZN4mlir4sond6LoopOp5buildERNS_9OpBuilderERNS_14OperationStateENS_5ValueES6_
FNL:1364,7238
FNA:1364,0,_ZN4mlir4sond6LoopOp6createERNS_9OpBuilderENS_8LocationENS_5ValueES5_
FNL:1365,7246
FNA:1365,0,_ZN4mlir4sond6LoopOp6createERNS_20ImplicitLocOpBuilderENS_5ValueES4_
FNL:1366,7250
FNA:1366,0,_ZN4mlir4sond6LoopOp5buildERNS_9OpBuilderERNS_14OperationStateENS_9TypeRangeENS_5ValueES7_
FNL:1367,7259
FNA:1367,0,_ZN4mlir4sond6LoopOp6createERNS_9OpBuilderENS_8LocationENS_9TypeRangeENS_5ValueES6_
FNL:1368,7267
FNA:1368,0,_ZN4mlir4sond6LoopOp6createERNS_20ImplicitLocOpBuilderENS_9TypeRangeENS_5ValueES5_
FNL:1369,7271
FNA:1369,0,_ZN4mlir4sond6LoopOp5buildERNS_9OpBuilderERNS_14OperationStateENS_9TypeRangeENS_10ValueRangeEN4llvm8ArrayRefINS_14NamedAttributeEEE
FNL:1370,7281
FNA:1370,0,_ZN4mlir4sond6LoopOp6createERNS_9OpBuilderENS_8LocationENS_9TypeRangeENS_10ValueRangeEN4llvm8ArrayRefINS_14NamedAttributeEEE
FNL:1371,7289
FNA:1371,0,_ZN4mlir4sond6LoopOp6createERNS_20ImplicitLocOpBuilderENS_9TypeRangeENS_10ValueRangeEN4llvm8ArrayRefINS_14NamedAttributeEEE
FNL:1372,7293
FNA:1372,0,_ZN4mlir4sond6LoopOp5buildERNS_9OpBuilderERNS_14OperationStateENS_9TypeRangeENS_10ValueRangeERKNS_15EmptyPropertiesEN4llvm8ArrayRefINS_14NamedAttributeEEE
FNL:1373,7304
FNA:1373,0,_ZN4mlir4sond6LoopOp6createERNS_9OpBuilderENS_8LocationENS_9TypeRangeENS_10ValueRangeERKNS_15EmptyPropertiesEN4llvm8ArrayRefINS_14NamedAttributeEEE
FNL:1374,7312
FNA:1374,0,_ZN4mlir4sond6LoopOp6createERNS_20ImplicitLocOpBuilderENS_9TypeRangeENS_10ValueRangeERKNS_15EmptyPropertiesEN4llvm8ArrayRefINS_14NamedAttributeEEE
FNL:1375,7316
FNA:1375,0,_ZN4mlir4sond6LoopOp20verifyInvariantsImplEv
FNL:1376,7347
FNA:1376,0,_ZN4mlir4sond6LoopOp16verifyInvariantsEv
FNL:1377,7351
FNA:1377,0,_ZN4mlir4sond6LoopOp5parseERNS_11OpAsmParserERNS_14OperationStateE
FNL:1378,7406
FNA:1378,0,_ZZN4mlir4sond6LoopOp5parseERNS_11OpAsmParserERNS_14OperationStateEENK3$_0clEv
FNL:1379,7422
FNA:1379,0,_ZN4mlir4sond6LoopOp5printERNS_12OpAsmPrinterE
FNL:1380,7461
FNA:1380,0,_ZN4mlir4sond6detail28MemMergeOpGenericAdaptorBaseC1ENS0_10MemMergeOpE
FNA:1380,0,_ZN4mlir4sond6detail28MemMergeOpGenericAdaptorBaseC2ENS0_10MemMergeOpE
FNL:1381,7463
FNA:1381,0,_ZN4mlir4sond6detail28MemMergeOpGenericAdaptorBase27getODSOperandIndexAndLengthEjj
FNL:1382,7482
FNA:1382,0,_ZN4mlir4sond17MemMergeOpAdaptorC1ENS0_10MemMergeOpE
FNA:1382,0,_ZN4mlir4sond17MemMergeOpAdaptorC2ENS0_10MemMergeOpE
FNL:1383,7484
FNA:1383,0,_ZN4mlir4sond17MemMergeOpAdaptor6verifyENS_8LocationE
FNL:1384,7488
FNA:1384,0,_ZN4mlir4sond10MemMergeOp27getODSOperandIndexAndLengthEj
FNL:1385,750
FNA:1385,0,_ZN4mlir4sond5AddOp5printERNS_12OpAsmPrinterE
FNL:1386,7506
FNA:1386,0,_ZN4mlir4sond10MemMergeOp16getInputsMutableEv
FNL:1387,7512
FNA:1387,0,_ZN4mlir4sond10MemMergeOp21setPropertiesFromAttrERNS_15EmptyPropertiesENS_9AttributeEN4llvm12function_refIFNS_18InFlightDiagnosticEvEEE
FNL:1388,7521
FNA:1388,0,_ZN4mlir4sond10MemMergeOp19getPropertiesAsAttrEPNS_11MLIRContextERKNS_15EmptyPropertiesE
FNL:1389,7530
FNA:1389,0,_ZN4mlir4sond10MemMergeOp21computePropertiesHashERKNS_15EmptyPropertiesE
FNL:1390,7535
FNA:1390,0,_ZN4mlir4sond10MemMergeOp15getInherentAttrEPNS_11MLIRContextERKNS_15EmptyPropertiesEN4llvm9StringRefE
FNL:1391,7539
FNA:1391,0,_ZN4mlir4sond10MemMergeOp15setInherentAttrERNS_15EmptyPropertiesEN4llvm9StringRefENS_9AttributeE
FNL:1392,7542
FNA:1392,0,_ZN4mlir4sond10MemMergeOp21populateInherentAttrsEPNS_11MLIRContextERKNS_15EmptyPropertiesERNS_13NamedAttrListE
FNL:1393,7545
FNA:1393,0,_ZN4mlir4sond10MemMergeOp19verifyInherentAttrsENS_13OperationNameERNS_13NamedAttrListEN4llvm12function_refIFNS_18InFlightDiagnosticEvEEE
FNL:1394,7549
FNA:1394,0,_ZN4mlir4sond10MemMergeOp5buildERNS_9OpBuilderERNS_14OperationStateENS_4TypeENS_10ValueRangeE
FNL:1395,7554
FNA:1395,0,_ZN4mlir4sond10MemMergeOp6createERNS_9OpBuilderENS_8LocationENS_4TypeENS_10ValueRangeE
FNL:1396,7562
FNA:1396,0,_ZN4mlir4sond10MemMergeOp6createERNS_20ImplicitLocOpBuilderENS_4TypeENS_10ValueRangeE
FNL:1397,7566
FNA:1397,0,_ZN4mlir4sond10MemMergeOp5buildERNS_9OpBuilderERNS_14OperationStateENS_9TypeRangeENS_10ValueRangeEN4llvm8ArrayRefINS_14NamedAttributeEEE
FNL:1398,7573
FNA:1398,0,_ZN4mlir4sond10MemMergeOp6createERNS_9OpBuilderENS_8LocationENS_9TypeRangeENS_10ValueRangeEN4llvm8ArrayRefINS_14NamedAttributeEEE
FNL:1399,7581
FNA:1399,0,_ZN4mlir4sond10MemMergeOp6createERNS_20ImplicitLocOpBuilderENS_9TypeRangeENS_10ValueRangeEN4llvm8ArrayRefINS_14NamedAttributeEEE
FNL:1400,7585
FNA:1400,0,_ZN4mlir4sond10MemMergeOp5buildERNS_9OpBuilderERNS_14OperationStateENS_9TypeRangeENS_10ValueRangeERKNS_15EmptyPropertiesEN4llvm8ArrayRefINS_14NamedAttributeEEE
FNL:1401,7593
FNA:1401,0,_ZN4mlir4sond10MemMergeOp6createERNS_9OpBuilderENS_8LocationENS_9TypeRangeENS_10ValueRangeERKNS_15EmptyPropertiesEN4llvm8ArrayRefINS_14NamedAttributeEEE
FNL:1402,76
FNA:1402,0,_ZN4mlir4sondL48__mlir_ods_local_type_constraint_Cpp2SONDialect1EPNS_9OperationENS_4TypeEN4llvm9StringRefEj
FNL:1403,7601
FNA:1403,0,_ZN4mlir4sond10MemMergeOp6createERNS_20ImplicitLocOpBuilderENS_9TypeRangeENS_10ValueRangeERKNS_15EmptyPropertiesEN4llvm8ArrayRefINS_14NamedAttributeEEE
FNL:1404,7605
FNA:1404,0,_ZN4mlir4sond10MemMergeOp20verifyInvariantsImplEv
FNL:1405,7627
FNA:1405,0,_ZN4mlir4sond10MemMergeOp16verifyInvariantsEv
FNL:1406,7631
FNA:1406,0,_ZN4mlir4sond10MemMergeOp5parseERNS_11OpAsmParserERNS_14OperationStateE
FNL:1407,7646
FNA:1407,0,_ZZN4mlir4sond10MemMergeOp5parseERNS_11OpAsmParserERNS_14OperationStateEENK3$_0clEv
FNL:1408,7671
FNA:1408,0,_ZN4mlir4sond10MemMergeOp5printERNS_12OpAsmPrinterE
FNL:1409,7702
FNA:1409,0,_ZN4mlir4sond6detail26MinusFOpGenericAdaptorBaseC1ENS0_8MinusFOpE
FNA:1409,0,_ZN4mlir4sond6detail26MinusFOpGenericAdaptorBaseC2ENS0_8MinusFOpE
FNL:1410,7705
FNA:1410,0,_ZN4mlir4sond15MinusFOpAdaptorC1ENS0_8MinusFOpE
FNA:1410,0,_ZN4mlir4sond15MinusFOpAdaptorC2ENS0_8MinusFOpE
FNL:1411,7707
FNA:1411,0,_ZN4mlir4sond15MinusFOpAdaptor6verifyENS_8LocationE
FNL:1412,7711
FNA:1412,0,_ZN4mlir4sond8MinusFOp21setPropertiesFromAttrERNS_15EmptyPropertiesENS_9AttributeEN4llvm12function_refIFNS_18InFlightDiagnosticEvEEE
FNL:1413,7720
FNA:1413,0,_ZN4mlir4sond8MinusFOp19getPropertiesAsAttrEPNS_11MLIRContextERKNS_15EmptyPropertiesE
FNL:1414,7729
FNA:1414,0,_ZN4mlir4sond8MinusFOp21computePropertiesHashERKNS_15EmptyPropertiesE
FNL:1415,7734
FNA:1415,0,_ZN4mlir4sond8MinusFOp15getInherentAttrEPNS_11MLIRContextERKNS_15EmptyPropertiesEN4llvm9StringRefE
FNL:1416,7738
FNA:1416,0,_ZN4mlir4sond8MinusFOp15setInherentAttrERNS_15EmptyPropertiesEN4llvm9StringRefENS_9AttributeE
FNL:1417,7741
FNA:1417,0,_ZN4mlir4sond8MinusFOp21populateInherentAttrsEPNS_11MLIRContextERKNS_15EmptyPropertiesERNS_13NamedAttrListE
FNL:1418,7744
FNA:1418,0,_ZN4mlir4sond8MinusFOp19verifyInherentAttrsENS_13OperationNameERNS_13NamedAttrListEN4llvm12function_refIFNS_18InFlightDiagnosticEvEEE
FNL:1419,7748
FNA:1419,0,_ZN4mlir4sond8MinusFOp5buildERNS_9OpBuilderERNS_14OperationStateENS_4TypeENS_5ValueE
FNL:1420,7753
FNA:1420,0,_ZN4mlir4sond8MinusFOp6createERNS_9OpBuilderENS_8LocationENS_4TypeENS_5ValueE
FNL:1421,7761
FNA:1421,0,_ZN4mlir4sond8MinusFOp6createERNS_20ImplicitLocOpBuilderENS_4TypeENS_5ValueE
FNL:1422,7765
FNA:1422,0,_ZN4mlir4sond8MinusFOp5buildERNS_9OpBuilderERNS_14OperationStateENS_9TypeRangeENS_5ValueE
FNL:1423,7771
FNA:1423,0,_ZN4mlir4sond8MinusFOp6createERNS_9OpBuilderENS_8LocationENS_9TypeRangeENS_5ValueE
FNL:1424,7779
FNA:1424,0,_ZN4mlir4sond8MinusFOp6createERNS_20ImplicitLocOpBuilderENS_9TypeRangeENS_5ValueE
FNL:1425,7783
FNA:1425,0,_ZN4mlir4sond8MinusFOp5buildERNS_9OpBuilderERNS_14OperationStateENS_9TypeRangeENS_10ValueRangeEN4llvm8ArrayRefINS_14NamedAttributeEEE
FNL:1426,7791
FNA:1426,0,_ZN4mlir4sond8MinusFOp6createERNS_9OpBuilderENS_8LocationENS_9TypeRangeENS_10ValueRangeEN4llvm8ArrayRefINS_14NamedAttributeEEE
FNL:1427,7799
FNA:1427,0,_ZN4mlir4sond8MinusFOp6createERNS_20ImplicitLocOpBuilderENS_9TypeRangeENS_10ValueRangeEN4llvm8ArrayRefINS_14NamedAttributeEEE
FNL:1428,7803
FNA:1428,0,_ZN4mlir4sond8MinusFOp5buildERNS_9OpBuilderERNS_14OperationStateENS_9TypeRangeENS_10ValueRangeERKNS_15EmptyPropertiesEN4llvm8ArrayRefINS_14NamedAttributeEEE
FNL:1429,7812
FNA:1429,0,_ZN4mlir4sond8MinusFOp6createERNS_9OpBuilderENS_8LocationENS_9TypeRangeENS_10ValueRangeERKNS_15EmptyPropertiesEN4llvm8ArrayRefINS_14NamedAttributeEEE
FNL:1430,7820
FNA:1430,0,_ZN4mlir4sond8MinusFOp6createERNS_20ImplicitLocOpBuilderENS_9TypeRangeENS_10ValueRangeERKNS_15EmptyPropertiesEN4llvm8ArrayRefINS_14NamedAttributeEEE
FNL:1431,7824
FNA:1431,0,_ZN4mlir4sond8MinusFOp20verifyInvariantsImplEv
FNL:1432,7846
FNA:1432,0,_ZN4mlir4sond8MinusFOp16verifyInvariantsEv
FNL:1433,7850
FNA:1433,0,_ZN4mlir4sond8MinusFOp5parseERNS_11OpAsmParserERNS_14OperationStateE
FNL:1434,7866
FNA:1434,0,_ZZN4mlir4sond8MinusFOp5parseERNS_11OpAsmParserERNS_14OperationStateEENK3$_0clEv
FNL:1435,787
FNA:1435,0,_ZN4mlir4sond5AddOp10getEffectsERN4llvm15SmallVectorImplINS_11SideEffects14EffectInstanceINS_13MemoryEffects6EffectEEEEE
FNL:1436,7895
FNA:1436,0,_ZN4mlir4sond8MinusFOp5printERNS_12OpAsmPrinterE
FNL:1437,7920
FNA:1437,0,_ZN4mlir4sond8MinusFOp10getEffectsERN4llvm15SmallVectorImplINS_11SideEffects14EffectInstanceINS_13MemoryEffects6EffectEEEEE
FNL:1438,7935
FNA:1438,0,_ZN4mlir4sond6detail25MinusOpGenericAdaptorBaseC1ENS0_7MinusOpE
FNA:1438,0,_ZN4mlir4sond6detail25MinusOpGenericAdaptorBaseC2ENS0_7MinusOpE
FNL:1439,7938
FNA:1439,0,_ZN4mlir4sond14MinusOpAdaptorC1ENS0_7MinusOpE
FNA:1439,0,_ZN4mlir4sond14MinusOpAdaptorC2ENS0_7MinusOpE
FNL:1440,7940
FNA:1440,0,_ZN4mlir4sond14MinusOpAdaptor6verifyENS_8LocationE
FNL:1441,7944
FNA:1441,0,_ZN4mlir4sond7MinusOp21setPropertiesFromAttrERNS_15EmptyPropertiesENS_9AttributeEN4llvm12function_refIFNS_18InFlightDiagnosticEvEEE
FNL:1442,7953
FNA:1442,0,_ZN4mlir4sond7MinusOp19getPropertiesAsAttrEPNS_11MLIRContextERKNS_15EmptyPropertiesE
FNL:1443,7962
FNA:1443,0,_ZN4mlir4sond7MinusOp21computePropertiesHashERKNS_15EmptyPropertiesE
FNL:1444,7967
FNA:1444,0,_ZN4mlir4sond7MinusOp15getInherentAttrEPNS_11MLIRContextERKNS_15EmptyPropertiesEN4llvm9StringRefE
FNL:1445,7971
FNA:1445,0,_ZN4mlir4sond7MinusOp15setInherentAttrERNS_15EmptyPropertiesEN4llvm9StringRefENS_9AttributeE
FNL:1446,7974
FNA:1446,0,_ZN4mlir4sond7MinusOp21populateInherentAttrsEPNS_11MLIRContextERKNS_15EmptyPropertiesERNS_13NamedAttrListE
FNL:1447,7977
FNA:1447,0,_ZN4mlir4sond7MinusOp19verifyInherentAttrsENS_13OperationNameERNS_13NamedAttrListEN4llvm12function_refIFNS_18InFlightDiagnosticEvEEE
FNL:1448,7981
FNA:1448,0,_ZN4mlir4sond7MinusOp5buildERNS_9OpBuilderERNS_14OperationStateENS_4TypeENS_5ValueE
FNL:1449,7986
FNA:1449,0,_ZN4mlir4sond7MinusOp6createERNS_9OpBuilderENS_8LocationENS_4TypeENS_5ValueE
FNL:1450,7994
FNA:1450,0,_ZN4mlir4sond7MinusOp6createERNS_20ImplicitLocOpBuilderENS_4TypeENS_5ValueE
FNL:1451,7998
FNA:1451,0,_ZN4mlir4sond7MinusOp5buildERNS_9OpBuilderERNS_14OperationStateENS_9TypeRangeENS_5ValueE
FNL:1452,8004
FNA:1452,0,_ZN4mlir4sond7MinusOp6createERNS_9OpBuilderENS_8LocationENS_9TypeRangeENS_5ValueE
FNL:1453,8012
FNA:1453,0,_ZN4mlir4sond7MinusOp6createERNS_20ImplicitLocOpBuilderENS_9TypeRangeENS_5ValueE
FNL:1454,8016
FNA:1454,0,_ZN4mlir4sond7MinusOp5buildERNS_9OpBuilderERNS_14OperationStateENS_9TypeRangeENS_10ValueRangeEN4llvm8ArrayRefINS_14NamedAttributeEEE
FNL:1455,802
FNA:1455,0,_ZN4mlir4sond6detail23AndOpGenericAdaptorBaseC1ENS0_5AndOpE
FNA:1455,0,_ZN4mlir4sond6detail23AndOpGenericAdaptorBaseC2ENS0_5AndOpE
FNL:1456,8024
FNA:1456,0,_ZN4mlir4sond7MinusOp6createERNS_9OpBuilderENS_8LocationENS_9TypeRangeENS_10ValueRangeEN4llvm8ArrayRefINS_14NamedAttributeEEE
FNL:1457,8032
FNA:1457,0,_ZN4mlir4sond7MinusOp6createERNS_20ImplicitLocOpBuilderENS_9TypeRangeENS_10ValueRangeEN4llvm8ArrayRefINS_14NamedAttributeEEE
FNL:1458,8036
FNA:1458,0,_ZN4mlir4sond7MinusOp5buildERNS_9OpBuilderERNS_14OperationStateENS_9TypeRangeENS_10ValueRangeERKNS_15EmptyPropertiesEN4llvm8ArrayRefINS_14NamedAttributeEEE
FNL:1459,8045
FNA:1459,0,_ZN4mlir4sond7MinusOp6createERNS_9OpBuilderENS_8LocationENS_9TypeRangeENS_10ValueRangeERKNS_15EmptyPropertiesEN4llvm8ArrayRefINS_14NamedAttributeEEE
FNL:1460,805
FNA:1460,0,_ZN4mlir4sond12AndOpAdaptorC1ENS0_5AndOpE
FNA:1460,0,_ZN4mlir4sond12AndOpAdaptorC2ENS0_5AndOpE
FNL:1461,8053
FNA:1461,0,_ZN4mlir4sond7MinusOp6createERNS_20ImplicitLocOpBuilderENS_9TypeRangeENS_10ValueRangeERKNS_15EmptyPropertiesEN4llvm8ArrayRefINS_14NamedAttributeEEE
FNL:1462,8057
FNA:1462,0,_ZN4mlir4sond7MinusOp20verifyInvariantsImplEv
FNL:1463,807
FNA:1463,0,_ZN4mlir4sond12AndOpAdaptor6verifyENS_8LocationE
FNL:1464,8079
FNA:1464,0,_ZN4mlir4sond7MinusOp16verifyInvariantsEv
FNL:1465,8083
FNA:1465,0,_ZN4mlir4sond7MinusOp5parseERNS_11OpAsmParserERNS_14OperationStateE
FNL:1466,8099
FNA:1466,0,_ZZN4mlir4sond7MinusOp5parseERNS_11OpAsmParserERNS_14OperationStateEENK3$_0clEv
FNL:1467,811
FNA:1467,0,_ZN4mlir4sond5AndOp21setPropertiesFromAttrERNS_15EmptyPropertiesENS_9AttributeEN4llvm12function_refIFNS_18InFlightDiagnosticEvEEE
FNL:1468,8128
FNA:1468,0,_ZN4mlir4sond7MinusOp5printERNS_12OpAsmPrinterE
FNL:1469,8153
FNA:1469,0,_ZN4mlir4sond7MinusOp10getEffectsERN4llvm15SmallVectorImplINS_11SideEffects14EffectInstanceINS_13MemoryEffects6EffectEEEEE
FNL:1470,8168
FNA:1470,0,_ZN4mlir4sond6detail24MulFOpGenericAdaptorBaseC1ENS0_6MulFOpE
FNA:1470,0,_ZN4mlir4sond6detail24MulFOpGenericAdaptorBaseC2ENS0_6MulFOpE
FNL:1471,8171
FNA:1471,0,_ZN4mlir4sond13MulFOpAdaptorC1ENS0_6MulFOpE
FNA:1471,0,_ZN4mlir4sond13MulFOpAdaptorC2ENS0_6MulFOpE
FNL:1472,8173
FNA:1472,0,_ZN4mlir4sond13MulFOpAdaptor6verifyENS_8LocationE
FNL:1473,8177
FNA:1473,0,_ZN4mlir4sond6MulFOp21setPropertiesFromAttrERNS_15EmptyPropertiesENS_9AttributeEN4llvm12function_refIFNS_18InFlightDiagnosticEvEEE
FNL:1474,8186
FNA:1474,0,_ZN4mlir4sond6MulFOp19getPropertiesAsAttrEPNS_11MLIRContextERKNS_15EmptyPropertiesE
FNL:1475,8195
FNA:1475,0,_ZN4mlir4sond6MulFOp21computePropertiesHashERKNS_15EmptyPropertiesE
FNL:1476,820
FNA:1476,0,_ZN4mlir4sond5AndOp19getPropertiesAsAttrEPNS_11MLIRContextERKNS_15EmptyPropertiesE
FNL:1477,8200
FNA:1477,0,_ZN4mlir4sond6MulFOp15getInherentAttrEPNS_11MLIRContextERKNS_15EmptyPropertiesEN4llvm9StringRefE
FNL:1478,8204
FNA:1478,0,_ZN4mlir4sond6MulFOp15setInherentAttrERNS_15EmptyPropertiesEN4llvm9StringRefENS_9AttributeE
FNL:1479,8207
FNA:1479,0,_ZN4mlir4sond6MulFOp21populateInherentAttrsEPNS_11MLIRContextERKNS_15EmptyPropertiesERNS_13NamedAttrListE
FNL:1480,8210
FNA:1480,0,_ZN4mlir4sond6MulFOp19verifyInherentAttrsENS_13OperationNameERNS_13NamedAttrListEN4llvm12function_refIFNS_18InFlightDiagnosticEvEEE
FNL:1481,8214
FNA:1481,0,_ZN4mlir4sond6MulFOp5buildERNS_9OpBuilderERNS_14OperationStateENS_4TypeENS_5ValueES7_
FNL:1482,8220
FNA:1482,0,_ZN4mlir4sond6MulFOp6createERNS_9OpBuilderENS_8LocationENS_4TypeENS_5ValueES6_
FNL:1483,8228
FNA:1483,0,_ZN4mlir4sond6MulFOp6createERNS_20ImplicitLocOpBuilderENS_4TypeENS_5ValueES5_
FNL:1484,8232
FNA:1484,0,_ZN4mlir4sond6MulFOp5buildERNS_9OpBuilderERNS_14OperationStateENS_9TypeRangeENS_5ValueES7_
FNL:1485,8239
FNA:1485,0,_ZN4mlir4sond6MulFOp6createERNS_9OpBuilderENS_8LocationENS_9TypeRangeENS_5ValueES6_
FNL:1486,8247
FNA:1486,0,_ZN4mlir4sond6MulFOp6createERNS_20ImplicitLocOpBuilderENS_9TypeRangeENS_5ValueES5_
FNL:1487,8251
FNA:1487,0,_ZN4mlir4sond6MulFOp5buildERNS_9OpBuilderERNS_14OperationStateENS_9TypeRangeENS_10ValueRangeEN4llvm8ArrayRefINS_14NamedAttributeEEE
FNL:1488,8259
FNA:1488,0,_ZN4mlir4sond6MulFOp6createERNS_9OpBuilderENS_8LocationENS_9TypeRangeENS_10ValueRangeEN4llvm8ArrayRefINS_14NamedAttributeEEE
FNL:1489,8267
FNA:1489,0,_ZN4mlir4sond6MulFOp6createERNS_20ImplicitLocOpBuilderENS_9TypeRangeENS_10ValueRangeEN4llvm8ArrayRefINS_14NamedAttributeEEE
FNL:1490,8271
FNA:1490,0,_ZN4mlir4sond6MulFOp5buildERNS_9OpBuilderERNS_14OperationStateENS_9TypeRangeENS_10ValueRangeERKNS_15EmptyPropertiesEN4llvm8ArrayRefINS_14NamedAttributeEEE
FNL:1491,8280
FNA:1491,0,_ZN4mlir4sond6MulFOp6createERNS_9OpBuilderENS_8LocationENS_9TypeRangeENS_10ValueRangeERKNS_15EmptyPropertiesEN4llvm8ArrayRefINS_14NamedAttributeEEE
FNL:1492,8288
FNA:1492,0,_ZN4mlir4sond6MulFOp6createERNS_20ImplicitLocOpBuilderENS_9TypeRangeENS_10ValueRangeERKNS_15EmptyPropertiesEN4llvm8ArrayRefINS_14NamedAttributeEEE
FNL:1493,829
FNA:1493,0,_ZN4mlir4sond5AndOp21computePropertiesHashERKNS_15EmptyPropertiesE
FNL:1494,8292
FNA:1494,0,_ZN4mlir4sond6MulFOp20verifyInvariantsImplEv
FNL:1495,8320
FNA:1495,0,_ZN4mlir4sond6MulFOp16verifyInvariantsEv
FNL:1496,8324
FNA:1496,0,_ZN4mlir4sond6MulFOp5parseERNS_11OpAsmParserERNS_14OperationStateE
FNL:1497,834
FNA:1497,0,_ZN4mlir4sond5AndOp15getInherentAttrEPNS_11MLIRContextERKNS_15EmptyPropertiesEN4llvm9StringRefE
FNL:1498,8351
FNA:1498,0,_ZZN4mlir4sond6MulFOp5parseERNS_11OpAsmParserERNS_14OperationStateEENK3$_0clEv
FNL:1499,838
FNA:1499,0,_ZN4mlir4sond5AndOp15setInherentAttrERNS_15EmptyPropertiesEN4llvm9StringRefENS_9AttributeE
FNL:1500,8391
FNA:1500,0,_ZN4mlir4sond6MulFOp5printERNS_12OpAsmPrinterE
FNL:1501,841
FNA:1501,0,_ZN4mlir4sond5AndOp21populateInherentAttrsEPNS_11MLIRContextERKNS_15EmptyPropertiesERNS_13NamedAttrListE
FNL:1502,8428
FNA:1502,0,_ZN4mlir4sond6MulFOp10getEffectsERN4llvm15SmallVectorImplINS_11SideEffects14EffectInstanceINS_13MemoryEffects6EffectEEEEE
FNL:1503,844
FNA:1503,0,_ZN4mlir4sond5AndOp19verifyInherentAttrsENS_13OperationNameERNS_13NamedAttrListEN4llvm12function_refIFNS_18InFlightDiagnosticEvEEE
FNL:1504,8443
FNA:1504,0,_ZN4mlir4sond6detail23MulOpGenericAdaptorBaseC1ENS0_5MulOpE
FNA:1504,0,_ZN4mlir4sond6detail23MulOpGenericAdaptorBaseC2ENS0_5MulOpE
FNL:1505,8446
FNA:1505,0,_ZN4mlir4sond12MulOpAdaptorC1ENS0_5MulOpE
FNA:1505,0,_ZN4mlir4sond12MulOpAdaptorC2ENS0_5MulOpE
FNL:1506,8448
FNA:1506,0,_ZN4mlir4sond12MulOpAdaptor6verifyENS_8LocationE
FNL:1507,8452
FNA:1507,0,_ZN4mlir4sond5MulOp21setPropertiesFromAttrERNS_15EmptyPropertiesENS_9AttributeEN4llvm12function_refIFNS_18InFlightDiagnosticEvEEE
FNL:1508,8461
FNA:1508,0,_ZN4mlir4sond5MulOp19getPropertiesAsAttrEPNS_11MLIRContextERKNS_15EmptyPropertiesE
FNL:1509,8470
FNA:1509,0,_ZN4mlir4sond5MulOp21computePropertiesHashERKNS_15EmptyPropertiesE
FNL:1510,8475
FNA:1510,0,_ZN4mlir4sond5MulOp15getInherentAttrEPNS_11MLIRContextERKNS_15EmptyPropertiesEN4llvm9StringRefE
FNL:1511,8479
FNA:1511,0,_ZN4mlir4sond5MulOp15setInherentAttrERNS_15EmptyPropertiesEN4llvm9StringRefENS_9AttributeE
FNL:1512,848
FNA:1512,0,_ZN4mlir4sond5AndOp5buildERNS_9OpBuilderERNS_14OperationStateENS_4TypeENS_5ValueES7_
FNL:1513,8482
FNA:1513,0,_ZN4mlir4sond5MulOp21populateInherentAttrsEPNS_11MLIRContextERKNS_15EmptyPropertiesERNS_13NamedAttrListE
FNL:1514,8485
FNA:1514,0,_ZN4mlir4sond5MulOp19verifyInherentAttrsENS_13OperationNameERNS_13NamedAttrListEN4llvm12function_refIFNS_18InFlightDiagnosticEvEEE
FNL:1515,8489
FNA:1515,0,_ZN4mlir4sond5MulOp5buildERNS_9OpBuilderERNS_14OperationStateENS_4TypeENS_5ValueES7_
FNL:1516,8495
FNA:1516,0,_ZN4mlir4sond5MulOp6createERNS_9OpBuilderENS_8LocationENS_4TypeENS_5ValueES6_
FNL:1517,8503
FNA:1517,0,_ZN4mlir4sond5MulOp6createERNS_20ImplicitLocOpBuilderENS_4TypeENS_5ValueES5_
FNL:1518,8507
FNA:1518,0,_ZN4mlir4sond5MulOp5buildERNS_9OpBuilderERNS_14OperationStateENS_9TypeRangeENS_5ValueES7_
FNL:1519,8514
FNA:1519,0,_ZN4mlir4sond5MulOp6createERNS_9OpBuilderENS_8LocationENS_9TypeRangeENS_5ValueES6_
FNL:1520,8522
FNA:1520,0,_ZN4mlir4sond5MulOp6createERNS_20ImplicitLocOpBuilderENS_9TypeRangeENS_5ValueES5_
FNL:1521,8526
FNA:1521,0,_ZN4mlir4sond5MulOp5buildERNS_9OpBuilderERNS_14OperationStateENS_9TypeRangeENS_10ValueRangeEN4llvm8ArrayRefINS_14NamedAttributeEEE
FNL:1522,8534
FNA:1522,0,_ZN4mlir4sond5MulOp6createERNS_9OpBuilderENS_8LocationENS_9TypeRangeENS_10ValueRangeEN4llvm8ArrayRefINS_14NamedAttributeEEE
FNL:1523,854
FNA:1523,0,_ZN4mlir4sond5AndOp6createERNS_9OpBuilderENS_8LocationENS_4TypeENS_5ValueES6_
FNL:1524,8542
FNA:1524,0,_ZN4mlir4sond5MulOp6createERNS_20ImplicitLocOpBuilderENS_9TypeRangeENS_10ValueRangeEN4llvm8ArrayRefINS_14NamedAttributeEEE
FNL:1525,8546
FNA:1525,0,_ZN4mlir4sond5MulOp5buildERNS_9OpBuilderERNS_14OperationStateENS_9TypeRangeENS_10ValueRangeERKNS_15EmptyPropertiesEN4llvm8ArrayRefINS_14NamedAttributeEEE
FNL:1526,8555
FNA:1526,0,_ZN4mlir4sond5MulOp6createERNS_9OpBuilderENS_8LocationENS_9TypeRangeENS_10ValueRangeERKNS_15EmptyPropertiesEN4llvm8ArrayRefINS_14NamedAttributeEEE
FNL:1527,8563
FNA:1527,0,_ZN4mlir4sond5MulOp6createERNS_20ImplicitLocOpBuilderENS_9TypeRangeENS_10ValueRangeERKNS_15EmptyPropertiesEN4llvm8ArrayRefINS_14NamedAttributeEEE
FNL:1528,8567
FNA:1528,0,_ZN4mlir4sond5MulOp20verifyInvariantsImplEv
FNL:1529,8595
FNA:1529,0,_ZN4mlir4sond5MulOp16verifyInvariantsEv
FNL:1530,8599
FNA:1530,0,_ZN4mlir4sond5MulOp5parseERNS_11OpAsmParserERNS_14OperationStateE
FNL:1531,86
FNA:1531,0,_ZN4mlir4sondL48__mlir_ods_local_type_constraint_Cpp2SONDialect2EPNS_9OperationENS_4TypeEN4llvm9StringRefEj
FNL:1532,862
FNA:1532,0,_ZN4mlir4sond5AndOp6createERNS_20ImplicitLocOpBuilderENS_4TypeENS_5ValueES5_
FNL:1533,8626
FNA:1533,0,_ZZN4mlir4sond5MulOp5parseERNS_11OpAsmParserERNS_14OperationStateEENK3$_0clEv
FNL:1534,866
FNA:1534,0,_ZN4mlir4sond5AndOp5buildERNS_9OpBuilderERNS_14OperationStateENS_9TypeRangeENS_5ValueES7_
FNL:1535,8666
FNA:1535,0,_ZN4mlir4sond5MulOp5printERNS_12OpAsmPrinterE
FNL:1536,8703
FNA:1536,0,_ZN4mlir4sond5MulOp10getEffectsERN4llvm15SmallVectorImplINS_11SideEffects14EffectInstanceINS_13MemoryEffects6EffectEEEEE
FNL:1537,8718
FNA:1537,0,_ZN4mlir4sond6detail25NeverOpGenericAdaptorBaseC1ENS0_7NeverOpE
FNA:1537,0,_ZN4mlir4sond6detail25NeverOpGenericAdaptorBaseC2ENS0_7NeverOpE
FNL:1538,8721
FNA:1538,0,_ZN4mlir4sond14NeverOpAdaptorC1ENS0_7NeverOpE
FNA:1538,0,_ZN4mlir4sond14NeverOpAdaptorC2ENS0_7NeverOpE
FNL:1539,8723
FNA:1539,0,_ZN4mlir4sond14NeverOpAdaptor6verifyENS_8LocationE
FNL:1540,8727
FNA:1540,0,_ZN4mlir4sond7NeverOp17getAsmResultNamesEN4llvm12function_refIFvNS_5ValueENS2_9StringRefEEEE
FNL:1541,873
FNA:1541,0,_ZN4mlir4sond5AndOp6createERNS_9OpBuilderENS_8LocationENS_9TypeRangeENS_5ValueES6_
FNL:1542,8736
FNA:1542,0,_ZN4mlir4sond7NeverOp21setPropertiesFromAttrERNS_15EmptyPropertiesENS_9AttributeEN4llvm12function_refIFNS_18InFlightDiagnosticEvEEE
FNL:1543,8745
FNA:1543,0,_ZN4mlir4sond7NeverOp19getPropertiesAsAttrEPNS_11MLIRContextERKNS_15EmptyPropertiesE
FNL:1544,8754
FNA:1544,0,_ZN4mlir4sond7NeverOp21computePropertiesHashERKNS_15EmptyPropertiesE
FNL:1545,8759
FNA:1545,0,_ZN4mlir4sond7NeverOp15getInherentAttrEPNS_11MLIRContextERKNS_15EmptyPropertiesEN4llvm9StringRefE
FNL:1546,8763
FNA:1546,0,_ZN4mlir4sond7NeverOp15setInherentAttrERNS_15EmptyPropertiesEN4llvm9StringRefENS_9AttributeE
FNL:1547,8766
FNA:1547,0,_ZN4mlir4sond7NeverOp21populateInherentAttrsEPNS_11MLIRContextERKNS_15EmptyPropertiesERNS_13NamedAttrListE
FNL:1548,8769
FNA:1548,0,_ZN4mlir4sond7NeverOp19verifyInherentAttrsENS_13OperationNameERNS_13NamedAttrListEN4llvm12function_refIFNS_18InFlightDiagnosticEvEEE
FNL:1549,8773
FNA:1549,0,_ZN4mlir4sond7NeverOp5buildERNS_9OpBuilderERNS_14OperationStateENS_4TypeES6_NS_5ValueE
FNL:1550,8779
FNA:1550,0,_ZN4mlir4sond7NeverOp6createERNS_9OpBuilderENS_8LocationENS_4TypeES5_NS_5ValueE
FNL:1551,8787
FNA:1551,0,_ZN4mlir4sond7NeverOp6createERNS_20ImplicitLocOpBuilderENS_4TypeES4_NS_5ValueE
FNL:1552,8791
FNA:1552,0,_ZN4mlir4sond7NeverOp5buildERNS_9OpBuilderERNS_14OperationStateENS_9TypeRangeENS_5ValueE
FNL:1553,8797
FNA:1553,0,_ZN4mlir4sond7NeverOp6createERNS_9OpBuilderENS_8LocationENS_9TypeRangeENS_5ValueE
FNL:1554,8805
FNA:1554,0,_ZN4mlir4sond7NeverOp6createERNS_20ImplicitLocOpBuilderENS_9TypeRangeENS_5ValueE
FNL:1555,8809
FNA:1555,0,_ZN4mlir4sond7NeverOp5buildERNS_9OpBuilderERNS_14OperationStateENS_9TypeRangeENS_10ValueRangeEN4llvm8ArrayRefINS_14NamedAttributeEEE
FNL:1556,881
FNA:1556,0,_ZN4mlir4sond5AndOp6createERNS_20ImplicitLocOpBuilderENS_9TypeRangeENS_5ValueES5_
FNL:1557,8817
FNA:1557,0,_ZN4mlir4sond7NeverOp6createERNS_9OpBuilderENS_8LocationENS_9TypeRangeENS_10ValueRangeEN4llvm8ArrayRefINS_14NamedAttributeEEE
FNL:1558,8825
FNA:1558,0,_ZN4mlir4sond7NeverOp6createERNS_20ImplicitLocOpBuilderENS_9TypeRangeENS_10ValueRangeEN4llvm8ArrayRefINS_14NamedAttributeEEE
FNL:1559,8829
FNA:1559,0,_ZN4mlir4sond7NeverOp5buildERNS_9OpBuilderERNS_14OperationStateENS_9TypeRangeENS_10ValueRangeERKNS_15EmptyPropertiesEN4llvm8ArrayRefINS_14NamedAttributeEEE
FNL:1560,8838
FNA:1560,0,_ZN4mlir4sond7NeverOp6createERNS_9OpBuilderENS_8LocationENS_9TypeRangeENS_10ValueRangeERKNS_15EmptyPropertiesEN4llvm8ArrayRefINS_14NamedAttributeEEE
FNL:1561,8846
FNA:1561,0,_ZN4mlir4sond7NeverOp6createERNS_20ImplicitLocOpBuilderENS_9TypeRangeENS_10ValueRangeERKNS_15EmptyPropertiesEN4llvm8ArrayRefINS_14NamedAttributeEEE
FNL:1562,885
FNA:1562,0,_ZN4mlir4sond5AndOp5buildERNS_9OpBuilderERNS_14OperationStateENS_9TypeRangeENS_10ValueRangeEN4llvm8ArrayRefINS_14NamedAttributeEEE
FNL:1563,8850
FNA:1563,0,_ZN4mlir4sond7NeverOp20verifyInvariantsImplEv
FNL:1564,8878
FNA:1564,0,_ZN4mlir4sond7NeverOp16verifyInvariantsEv
FNL:1565,8882
FNA:1565,0,_ZN4mlir4sond7NeverOp5parseERNS_11OpAsmParserERNS_14OperationStateE
FNL:1566,8900
FNA:1566,0,_ZZN4mlir4sond7NeverOp5parseERNS_11OpAsmParserERNS_14OperationStateEENK3$_0clEv
FNL:1567,893
FNA:1567,0,_ZN4mlir4sond5AndOp6createERNS_9OpBuilderENS_8LocationENS_9TypeRangeENS_10ValueRangeEN4llvm8ArrayRefINS_14NamedAttributeEEE
FNL:1568,8939
FNA:1568,0,_ZN4mlir4sond7NeverOp5printERNS_12OpAsmPrinterE
FNL:1569,8985
FNA:1569,0,_ZN4mlir4sond6detail23NewOpGenericAdaptorBaseC1ENS0_5NewOpE
FNA:1569,0,_ZN4mlir4sond6detail23NewOpGenericAdaptorBaseC2ENS0_5NewOpE
FNL:1570,8987
FNA:1570,0,_ZN4mlir4sond6detail23NewOpGenericAdaptorBase16getAllocatedTypeEv
FNL:1571,8993
FNA:1571,0,_ZN4mlir4sond12NewOpAdaptorC1ENS0_5NewOpE
FNA:1571,0,_ZN4mlir4sond12NewOpAdaptorC2ENS0_5NewOpE
FNL:1572,8995
FNA:1572,0,_ZN4mlir4sond12NewOpAdaptor6verifyENS_8LocationE
FNL:1573,9004
FNA:1573,0,_ZN4mlir4sond5NewOp17getAsmResultNamesEN4llvm12function_refIFvNS_5ValueENS2_9StringRefEEEE
FNL:1574,901
FNA:1574,0,_ZN4mlir4sond5AndOp6createERNS_20ImplicitLocOpBuilderENS_9TypeRangeENS_10ValueRangeEN4llvm8ArrayRefINS_14NamedAttributeEEE
FNL:1575,9016
FNA:1575,0,_ZN4mlir4sond5NewOp21setPropertiesFromAttrERNS0_6detail23NewOpGenericAdaptorBase10PropertiesENS_9AttributeEN4llvm12function_refIFNS_18InFlightDiagnosticEvEEE
FNL:1576,9039
FNA:1576,0,_ZN4mlir4sond5NewOp19getPropertiesAsAttrEPNS_11MLIRContextERKNS0_6detail23NewOpGenericAdaptorBase10PropertiesE
FNL:1577,905
FNA:1577,0,_ZN4mlir4sond5AndOp5buildERNS_9OpBuilderERNS_14OperationStateENS_9TypeRangeENS_10ValueRangeERKNS_15EmptyPropertiesEN4llvm8ArrayRefINS_14NamedAttributeEEE
FNL:1578,9055
FNA:1578,0,_ZN4mlir4sond5NewOp21computePropertiesHashERKNS0_6detail23NewOpGenericAdaptorBase10PropertiesE
FNL:1579,9061
FNA:1579,0,_ZN4mlir4sond5NewOp15getInherentAttrEPNS_11MLIRContextERKNS0_6detail23NewOpGenericAdaptorBase10PropertiesEN4llvm9StringRefE
FNL:1580,9067
FNA:1580,0,_ZN4mlir4sond5NewOp15setInherentAttrERNS0_6detail23NewOpGenericAdaptorBase10PropertiesEN4llvm9StringRefENS_9AttributeE
FNL:1581,9074
FNA:1581,0,_ZN4mlir4sond5NewOp21populateInherentAttrsEPNS_11MLIRContextERKNS0_6detail23NewOpGenericAdaptorBase10PropertiesERNS_13NamedAttrListE
FNL:1582,9078
FNA:1582,0,_ZN4mlir4sond5NewOp19verifyInherentAttrsENS_13OperationNameERNS_13NamedAttrListEN4llvm12function_refIFNS_18InFlightDiagnosticEvEEE
FNL:1583,9087
FNA:1583,0,_ZN4mlir4sond5NewOp14readPropertiesERNS_21DialectBytecodeReaderERNS_14OperationStateE
FNL:1584,9094
FNA:1584,0,_ZN4mlir4sond5NewOp15writePropertiesERNS_21DialectBytecodeWriterE
FNL:1585,9099
FNA:1585,0,_ZN4mlir4sond5NewOp16getAllocatedTypeEv
FNL:1586,9104
FNA:1586,0,_ZN4mlir4sond5NewOp16setAllocatedTypeENS_4TypeE
FNL:1587,9108
FNA:1587,0,_ZN4mlir4sond5NewOp5buildERNS_9OpBuilderERNS_14OperationStateENS_4TypeES6_S6_NS_5ValueES7_NS_8TypeAttrE
FNL:1588,9117
FNA:1588,0,_ZN4mlir4sond5NewOp6createERNS_9OpBuilderENS_8LocationENS_4TypeES5_S5_NS_5ValueES6_NS_8TypeAttrE
FNL:1589,9125
FNA:1589,0,_ZN4mlir4sond5NewOp6createERNS_20ImplicitLocOpBuilderENS_4TypeES4_S4_NS_5ValueES5_NS_8TypeAttrE
FNL:1590,9129
FNA:1590,0,_ZN4mlir4sond5NewOp5buildERNS_9OpBuilderERNS_14OperationStateENS_9TypeRangeENS_5ValueES7_NS_8TypeAttrE
FNL:1591,9137
FNA:1591,0,_ZN4mlir4sond5NewOp6createERNS_9OpBuilderENS_8LocationENS_9TypeRangeENS_5ValueES6_NS_8TypeAttrE
FNL:1592,914
FNA:1592,0,_ZN4mlir4sond5AndOp6createERNS_9OpBuilderENS_8LocationENS_9TypeRangeENS_10ValueRangeERKNS_15EmptyPropertiesEN4llvm8ArrayRefINS_14NamedAttributeEEE
FNL:1593,9145
FNA:1593,0,_ZN4mlir4sond5NewOp6createERNS_20ImplicitLocOpBuilderENS_9TypeRangeENS_5ValueES5_NS_8TypeAttrE
FNL:1594,9149
FNA:1594,0,_ZN4mlir4sond5NewOp5buildERNS_9OpBuilderERNS_14OperationStateENS_4TypeES6_S6_NS_5ValueES7_S6_
FNL:1595,9158
FNA:1595,0,_ZN4mlir4sond5NewOp6createERNS_9OpBuilderENS_8LocationENS_4TypeES5_S5_NS_5ValueES6_S5_
FNL:1596,9166
FNA:1596,0,_ZN4mlir4sond5NewOp6createERNS_20ImplicitLocOpBuilderENS_4TypeES4_S4_NS_5ValueES5_S4_
FNL:1597,9170
FNA:1597,0,_ZN4mlir4sond5NewOp5buildERNS_9OpBuilderERNS_14OperationStateENS_9TypeRangeENS_5ValueES7_NS_4TypeE
FNL:1598,9178
FNA:1598,0,_ZN4mlir4sond5NewOp6createERNS_9OpBuilderENS_8LocationENS_9TypeRangeENS_5ValueES6_NS_4TypeE
FNL:1599,9186
FNA:1599,0,_ZN4mlir4sond5NewOp6createERNS_20ImplicitLocOpBuilderENS_9TypeRangeENS_5ValueES5_NS_4TypeE
FNL:1600,9190
FNA:1600,0,_ZN4mlir4sond5NewOp5buildERNS_9OpBuilderERNS_14OperationStateENS_9TypeRangeENS_10ValueRangeEN4llvm8ArrayRefINS_14NamedAttributeEEE
FNL:1601,9208
FNA:1601,0,_ZN4mlir4sond5NewOp6createERNS_9OpBuilderENS_8LocationENS_9TypeRangeENS_10ValueRangeEN4llvm8ArrayRefINS_14NamedAttributeEEE
FNL:1602,9216
FNA:1602,0,_ZN4mlir4sond5NewOp6createERNS_20ImplicitLocOpBuilderENS_9TypeRangeENS_10ValueRangeEN4llvm8ArrayRefINS_14NamedAttributeEEE
FNL:1603,922
FNA:1603,0,_ZN4mlir4sond5AndOp6createERNS_20ImplicitLocOpBuilderENS_9TypeRangeENS_10ValueRangeERKNS_15EmptyPropertiesEN4llvm8ArrayRefINS_14NamedAttributeEEE
FNL:1604,9220
FNA:1604,0,_ZN4mlir4sond5NewOp5buildERNS_9OpBuilderERNS_14OperationStateENS_9TypeRangeENS_10ValueRangeERKNS0_6detail23NewOpGenericAdaptorBase10PropertiesEN4llvm8ArrayRefINS_14NamedAttributeEEE
FNL:1605,9229
FNA:1605,0,_ZN4mlir4sond5NewOp6createERNS_9OpBuilderENS_8LocationENS_9TypeRangeENS_10ValueRangeERKNS0_6detail23NewOpGenericAdaptorBase10PropertiesEN4llvm8ArrayRefINS_14NamedAttributeEEE
FNL:1606,9237
FNA:1606,0,_ZN4mlir4sond5NewOp6createERNS_20ImplicitLocOpBuilderENS_9TypeRangeENS_10ValueRangeERKNS0_6detail23NewOpGenericAdaptorBase10PropertiesEN4llvm8ArrayRefINS_14NamedAttributeEEE
FNL:1607,9241
FNA:1607,0,_ZN4mlir4sond5NewOp20verifyInvariantsImplEv
FNL:1608,926
FNA:1608,0,_ZN4mlir4sond5AndOp20verifyInvariantsImplEv
FNL:1609,9286
FNA:1609,0,_ZN4mlir4sond5NewOp16verifyInvariantsEv
FNL:1610,9290
FNA:1610,0,_ZN4mlir4sond5NewOp5parseERNS_11OpAsmParserERNS_14OperationStateE
FNL:1611,9347
FNA:1611,0,_ZZN4mlir4sond5NewOp5parseERNS_11OpAsmParserERNS_14OperationStateEENK3$_0clEv
FNL:1612,9389
FNA:1612,0,_ZN4mlir4sond5NewOp5printERNS_12OpAsmPrinterE
FNL:1613,9460
FNA:1613,0,_ZN4mlir4sond6detail23NotOpGenericAdaptorBaseC1ENS0_5NotOpE
FNA:1613,0,_ZN4mlir4sond6detail23NotOpGenericAdaptorBaseC2ENS0_5NotOpE
FNL:1614,9463
FNA:1614,0,_ZN4mlir4sond12NotOpAdaptorC1ENS0_5NotOpE
FNA:1614,0,_ZN4mlir4sond12NotOpAdaptorC2ENS0_5NotOpE
FNL:1615,9465
FNA:1615,0,_ZN4mlir4sond12NotOpAdaptor6verifyENS_8LocationE
FNL:1616,9469
FNA:1616,0,_ZN4mlir4sond5NotOp21setPropertiesFromAttrERNS_15EmptyPropertiesENS_9AttributeEN4llvm12function_refIFNS_18InFlightDiagnosticEvEEE
FNL:1617,9478
FNA:1617,0,_ZN4mlir4sond5NotOp19getPropertiesAsAttrEPNS_11MLIRContextERKNS_15EmptyPropertiesE
FNL:1618,9487
FNA:1618,0,_ZN4mlir4sond5NotOp21computePropertiesHashERKNS_15EmptyPropertiesE
FNL:1619,9492
FNA:1619,0,_ZN4mlir4sond5NotOp15getInherentAttrEPNS_11MLIRContextERKNS_15EmptyPropertiesEN4llvm9StringRefE
FNL:1620,9496
FNA:1620,0,_ZN4mlir4sond5NotOp15setInherentAttrERNS_15EmptyPropertiesEN4llvm9StringRefENS_9AttributeE
FNL:1621,9499
FNA:1621,0,_ZN4mlir4sond5NotOp21populateInherentAttrsEPNS_11MLIRContextERKNS_15EmptyPropertiesERNS_13NamedAttrListE
FNL:1622,9502
FNA:1622,0,_ZN4mlir4sond5NotOp19verifyInherentAttrsENS_13OperationNameERNS_13NamedAttrListEN4llvm12function_refIFNS_18InFlightDiagnosticEvEEE
FNL:1623,9506
FNA:1623,0,_ZN4mlir4sond5NotOp5buildERNS_9OpBuilderERNS_14OperationStateENS_4TypeENS_5ValueE
FNL:1624,9511
FNA:1624,0,_ZN4mlir4sond5NotOp6createERNS_9OpBuilderENS_8LocationENS_4TypeENS_5ValueE
FNL:1625,9519
FNA:1625,0,_ZN4mlir4sond5NotOp6createERNS_20ImplicitLocOpBuilderENS_4TypeENS_5ValueE
FNL:1626,9523
FNA:1626,0,_ZN4mlir4sond5NotOp5buildERNS_9OpBuilderERNS_14OperationStateENS_9TypeRangeENS_5ValueE
FNL:1627,9529
FNA:1627,0,_ZN4mlir4sond5NotOp6createERNS_9OpBuilderENS_8LocationENS_9TypeRangeENS_5ValueE
FNL:1628,9537
FNA:1628,0,_ZN4mlir4sond5NotOp6createERNS_20ImplicitLocOpBuilderENS_9TypeRangeENS_5ValueE
FNL:1629,954
FNA:1629,0,_ZN4mlir4sond5AndOp16verifyInvariantsEv
FNL:1630,9541
FNA:1630,0,_ZN4mlir4sond5NotOp5buildERNS_9OpBuilderERNS_14OperationStateENS_9TypeRangeENS_10ValueRangeEN4llvm8ArrayRefINS_14NamedAttributeEEE
FNL:1631,9549
FNA:1631,0,_ZN4mlir4sond5NotOp6createERNS_9OpBuilderENS_8LocationENS_9TypeRangeENS_10ValueRangeEN4llvm8ArrayRefINS_14NamedAttributeEEE
FNL:1632,9557
FNA:1632,0,_ZN4mlir4sond5NotOp6createERNS_20ImplicitLocOpBuilderENS_9TypeRangeENS_10ValueRangeEN4llvm8ArrayRefINS_14NamedAttributeEEE
FNL:1633,9561
FNA:1633,0,_ZN4mlir4sond5NotOp5buildERNS_9OpBuilderERNS_14OperationStateENS_9TypeRangeENS_10ValueRangeERKNS_15EmptyPropertiesEN4llvm8ArrayRefINS_14NamedAttributeEEE
FNL:1634,9570
FNA:1634,0,_ZN4mlir4sond5NotOp6createERNS_9OpBuilderENS_8LocationENS_9TypeRangeENS_10ValueRangeERKNS_15EmptyPropertiesEN4llvm8ArrayRefINS_14NamedAttributeEEE
FNL:1635,9578
FNA:1635,0,_ZN4mlir4sond5NotOp6createERNS_20ImplicitLocOpBuilderENS_9TypeRangeENS_10ValueRangeERKNS_15EmptyPropertiesEN4llvm8ArrayRefINS_14NamedAttributeEEE
FNL:1636,958
FNA:1636,0,_ZN4mlir4sond5AndOp5parseERNS_11OpAsmParserERNS_14OperationStateE
FNL:1637,9582
FNA:1637,0,_ZN4mlir4sond5NotOp20verifyInvariantsImplEv
FNL:1638,96
FNA:1638,0,_ZN4mlir4sondL48__mlir_ods_local_type_constraint_Cpp2SONDialect3EPNS_9OperationENS_4TypeEN4llvm9StringRefEj
FNL:1639,9604
FNA:1639,0,_ZN4mlir4sond5NotOp16verifyInvariantsEv
FNL:1640,9608
FNA:1640,0,_ZN4mlir4sond5NotOp5parseERNS_11OpAsmParserERNS_14OperationStateE
FNL:1641,9624
FNA:1641,0,_ZZN4mlir4sond5NotOp5parseERNS_11OpAsmParserERNS_14OperationStateEENK3$_0clEv
FNL:1642,9653
FNA:1642,0,_ZN4mlir4sond5NotOp5printERNS_12OpAsmPrinterE
FNL:1643,9678
FNA:1643,0,_ZN4mlir4sond5NotOp10getEffectsERN4llvm15SmallVectorImplINS_11SideEffects14EffectInstanceINS_13MemoryEffects6EffectEEEEE
FNL:1644,9693
FNA:1644,0,_ZN4mlir4sond6detail22OrOpGenericAdaptorBaseC1ENS0_4OrOpE
FNA:1644,0,_ZN4mlir4sond6detail22OrOpGenericAdaptorBaseC2ENS0_4OrOpE
FNL:1645,9696
FNA:1645,0,_ZN4mlir4sond11OrOpAdaptorC1ENS0_4OrOpE
FNA:1645,0,_ZN4mlir4sond11OrOpAdaptorC2ENS0_4OrOpE
FNL:1646,9698
FNA:1646,0,_ZN4mlir4sond11OrOpAdaptor6verifyENS_8LocationE
FNL:1647,9702
FNA:1647,0,_ZN4mlir4sond4OrOp21setPropertiesFromAttrERNS_15EmptyPropertiesENS_9AttributeEN4llvm12function_refIFNS_18InFlightDiagnosticEvEEE
FNL:1648,9711
FNA:1648,0,_ZN4mlir4sond4OrOp19getPropertiesAsAttrEPNS_11MLIRContextERKNS_15EmptyPropertiesE
FNL:1649,9720
FNA:1649,0,_ZN4mlir4sond4OrOp21computePropertiesHashERKNS_15EmptyPropertiesE
FNL:1650,9725
FNA:1650,0,_ZN4mlir4sond4OrOp15getInherentAttrEPNS_11MLIRContextERKNS_15EmptyPropertiesEN4llvm9StringRefE
FNL:1651,9729
FNA:1651,0,_ZN4mlir4sond4OrOp15setInherentAttrERNS_15EmptyPropertiesEN4llvm9StringRefENS_9AttributeE
FNL:1652,9732
FNA:1652,0,_ZN4mlir4sond4OrOp21populateInherentAttrsEPNS_11MLIRContextERKNS_15EmptyPropertiesERNS_13NamedAttrListE
FNL:1653,9735
FNA:1653,0,_ZN4mlir4sond4OrOp19verifyInherentAttrsENS_13OperationNameERNS_13NamedAttrListEN4llvm12function_refIFNS_18InFlightDiagnosticEvEEE
FNL:1654,9739
FNA:1654,0,_ZN4mlir4sond4OrOp5buildERNS_9OpBuilderERNS_14OperationStateENS_4TypeENS_5ValueES7_
FNL:1655,9745
FNA:1655,0,_ZN4mlir4sond4OrOp6createERNS_9OpBuilderENS_8LocationENS_4TypeENS_5ValueES6_
FNL:1656,9753
FNA:1656,0,_ZN4mlir4sond4OrOp6createERNS_20ImplicitLocOpBuilderENS_4TypeENS_5ValueES5_
FNL:1657,9757
FNA:1657,0,_ZN4mlir4sond4OrOp5buildERNS_9OpBuilderERNS_14OperationStateENS_9TypeRangeENS_5ValueES7_
FNL:1658,9764
FNA:1658,0,_ZN4mlir4sond4OrOp6createERNS_9OpBuilderENS_8LocationENS_9TypeRangeENS_5ValueES6_
FNL:1659,9772
FNA:1659,0,_ZN4mlir4sond4OrOp6createERNS_20ImplicitLocOpBuilderENS_9TypeRangeENS_5ValueES5_
FNL:1660,9776
FNA:1660,0,_ZN4mlir4sond4OrOp5buildERNS_9OpBuilderERNS_14OperationStateENS_9TypeRangeENS_10ValueRangeEN4llvm8ArrayRefINS_14NamedAttributeEEE
FNL:1661,9784
FNA:1661,0,_ZN4mlir4sond4OrOp6createERNS_9OpBuilderENS_8LocationENS_9TypeRangeENS_10ValueRangeEN4llvm8ArrayRefINS_14NamedAttributeEEE
FNL:1662,9792
FNA:1662,0,_ZN4mlir4sond4OrOp6createERNS_20ImplicitLocOpBuilderENS_9TypeRangeENS_10ValueRangeEN4llvm8ArrayRefINS_14NamedAttributeEEE
FNL:1663,9796
FNA:1663,0,_ZN4mlir4sond4OrOp5buildERNS_9OpBuilderERNS_14OperationStateENS_9TypeRangeENS_10ValueRangeERKNS_15EmptyPropertiesEN4llvm8ArrayRefINS_14NamedAttributeEEE
FNL:1664,9805
FNA:1664,0,_ZN4mlir4sond4OrOp6createERNS_9OpBuilderENS_8LocationENS_9TypeRangeENS_10ValueRangeERKNS_15EmptyPropertiesEN4llvm8ArrayRefINS_14NamedAttributeEEE
FNL:1665,9813
FNA:1665,0,_ZN4mlir4sond4OrOp6createERNS_20ImplicitLocOpBuilderENS_9TypeRangeENS_10ValueRangeERKNS_15EmptyPropertiesEN4llvm8ArrayRefINS_14NamedAttributeEEE
FNL:1666,9817
FNA:1666,0,_ZN4mlir4sond4OrOp20verifyInvariantsImplEv
FNL:1667,9845
FNA:1667,0,_ZN4mlir4sond4OrOp16verifyInvariantsEv
FNL:1668,9849
FNA:1668,0,_ZN4mlir4sond4OrOp5parseERNS_11OpAsmParserERNS_14OperationStateE
FNL:1669,985
FNA:1669,0,_ZZN4mlir4sond5AndOp5parseERNS_11OpAsmParserERNS_14OperationStateEENK3$_0clEv
FNL:1670,9876
FNA:1670,0,_ZZN4mlir4sond4OrOp5parseERNS_11OpAsmParserERNS_14OperationStateEENK3$_0clEv
FNL:1671,9916
FNA:1671,0,_ZN4mlir4sond4OrOp5printERNS_12OpAsmPrinterE
FNL:1672,9953
FNA:1672,0,_ZN4mlir4sond4OrOp10getEffectsERN4llvm15SmallVectorImplINS_11SideEffects14EffectInstanceINS_13MemoryEffects6EffectEEEEE
FNL:1673,9968
FNA:1673,0,_ZN4mlir4sond6detail24ParmOpGenericAdaptorBaseC1ENS0_6ParmOpE
FNA:1673,0,_ZN4mlir4sond6detail24ParmOpGenericAdaptorBaseC2ENS0_6ParmOpE
FNL:1674,9970
FNA:1674,0,_ZN4mlir4sond6detail24ParmOpGenericAdaptorBase8getIndexEv
FNL:1675,9975
FNA:1675,0,_ZN4mlir4sond6detail24ParmOpGenericAdaptorBase8getLabelEv
FNL:1676,9981
FNA:1676,0,_ZN4mlir4sond13ParmOpAdaptorC1ENS0_6ParmOpE
FNA:1676,0,_ZN4mlir4sond13ParmOpAdaptorC2ENS0_6ParmOpE
FNL:1677,9983
FNA:1677,0,_ZN4mlir4sond13ParmOpAdaptor6verifyENS_8LocationE
FNL:1678,9996
FNA:1678,0,_ZN4mlir4sond6ParmOp21setPropertiesFromAttrERNS0_6detail24ParmOpGenericAdaptorBase10PropertiesENS_9AttributeEN4llvm12function_refIFNS_18InFlightDiagnosticEvEEE
FNF:1679
FNH:5
DA:76,0
DA:83,0
DA:86,0
DA:93,0
DA:96,0
DA:99,0
DA:100,0
DA:101,0
DA:103,0
DA:104,0
DA:106,0
DA:108,0
DA:109,0
DA:110,0
DA:111,0
DA:112,0
DA:113,0
DA:115,0
DA:116,0
DA:120,0
DA:122,0
DA:123,0
DA:124,0
DA:125,0
DA:126,0
DA:127,0
DA:129,0
DA:130,0
DA:134,0
DA:136,0
DA:137,0
DA:138,0
DA:139,0
DA:140,0
DA:141,0
DA:143,0
DA:144,0
DA:148,0
DA:150,0
DA:151,0
DA:152,0
DA:153,0
DA:154,0
DA:155,0
DA:157,0
DA:158,0
DA:162,0
DA:164,0
DA:165,0
DA:166,0
DA:167,0
DA:168,0
DA:169,0
DA:171,0
DA:172,0
DA:176,0
DA:178,0
DA:179,0
DA:180,0
DA:181,0
DA:182,0
DA:183,0
DA:185,0
DA:186,0
DA:190,0
DA:192,0
DA:193,0
DA:194,0
DA:195,0
DA:196,0
DA:197,0
DA:199,0
DA:200,0
DA:204,0
DA:206,0
DA:207,0
DA:208,0
DA:209,0
DA:210,0
DA:211,0
DA:213,0
DA:214,0
DA:218,0
DA:220,0
DA:221,0
DA:222,0
DA:223,0
DA:224,0
DA:225,0
DA:227,0
DA:228,0
DA:232,0
DA:240,0
DA:252,0
DA:255,0
DA:257,0
DA:258,0
DA:261,0
DA:262,0
DA:263,0
DA:264,0
DA:265,0
DA:267,0
DA:268,0
DA:270,0
DA:271,0
DA:272,0
DA:274,0
DA:275,0
DA:276,0
DA:277,0
DA:279,0
DA:281,0
DA:284,0
DA:285,0
DA:288,0
DA:289,0
DA:291,0
DA:292,0
DA:294,0
DA:295,0
DA:298,0
DA:299,0
DA:300,0
DA:301,0
DA:302,0
DA:304,0
DA:305,0
DA:306,0
DA:307,0
DA:308,0
DA:310,0
DA:312,0
DA:313,0
DA:316,0
DA:317,0
DA:318,0
DA:319,0
DA:320,0
DA:321,0
DA:323,0
DA:324,0
DA:325,0
DA:326,0
DA:327,0
DA:329,0
DA:331,0
DA:332,0
DA:335,0
DA:336,0
DA:337,0
DA:338,0
DA:339,0
DA:340,0
DA:341,0
DA:343,0
DA:344,0
DA:345,0
DA:346,0
DA:347,0
DA:349,0
DA:351,0
DA:352,0
DA:355,0
DA:356,0
DA:357,0
DA:358,0
DA:359,0
DA:360,0
DA:361,0
DA:362,0
DA:364,0
DA:365,0
DA:366,0
DA:367,0
DA:368,0
DA:370,0
DA:372,0
DA:373,0
DA:376,0
DA:378,0
DA:379,0
DA:381,0
DA:382,0
DA:383,0
DA:385,0
DA:387,0
DA:388,0
DA:389,0
DA:393,0
DA:394,0
DA:396,0
DA:397,0
DA:398,0
DA:401,0
DA:402,0
DA:404,0
DA:405,0
DA:408,0
DA:409,0
DA:410,0
DA:412,0
DA:413,0
DA:415,0
DA:416,0
DA:417,0
DA:418,0
DA:419,0
DA:420,0
DA:422,0
DA:423,0
DA:424,0
DA:425,0
DA:426,0
DA:428,0
DA:429,0
DA:430,0
DA:432,0
DA:433,0
DA:434,0
DA:435,0
DA:436,0
DA:437,0
DA:438,0
DA:440,0
DA:441,0
DA:444,0
DA:445,0
DA:446,0
DA:447,0
DA:449,0
DA:450,0
DA:453,0
DA:454,0
DA:455,0
DA:456,0
DA:458,0
DA:459,0
DA:462,0
DA:463,0
DA:464,0
DA:465,0
DA:467,0
DA:468,0
DA:469,0
DA:470,0
DA:471,0
DA:472,0
DA:473,0
DA:475,0
DA:476,0
DA:477,0
DA:478,0
DA:479,0
DA:480,0
DA:481,0
DA:482,0
DA:483,0
DA:484,0
DA:486,0
DA:487,0
DA:488,0
DA:490,0
DA:492,0
DA:493,0
DA:495,0
DA:496,0
DA:497,0
DA:499,0
DA:501,0
DA:502,0
DA:504,0
DA:505,0
DA:506,0
DA:508,0
DA:510,0
DA:512,0
DA:513,0
DA:527,0
DA:530,0
DA:532,0
DA:533,0
DA:536,0
DA:537,0
DA:538,0
DA:539,0
DA:540,0
DA:542,0
DA:543,0
DA:545,0
DA:546,0
DA:547,0
DA:549,0
DA:550,0
DA:551,0
DA:552,0
DA:554,0
DA:556,0
DA:559,0
DA:560,0
DA:563,0
DA:564,0
DA:566,0
DA:567,0
DA:569,0
DA:570,0
DA:573,8
DA:574,8
DA:575,8
DA:576,8
DA:577,8
DA:579,0
DA:580,0
DA:581,0
DA:582,0
DA:583,0
DA:585,0
DA:587,0
DA:588,0
DA:591,0
DA:592,0
DA:593,0
DA:594,0
DA:595,0
DA:596,0
DA:598,0
DA:599,0
DA:600,0
DA:601,0
DA:602,0
DA:604,0
DA:606,0
DA:607,0
DA:610,0
DA:611,0
DA:612,0
DA:613,0
DA:614,0
DA:615,0
DA:616,0
DA:618,0
DA:619,0
DA:620,0
DA:621,0
DA:622,0
DA:624,0
DA:626,0
DA:627,0
DA:630,0
DA:631,0
DA:632,0
DA:633,0
DA:634,0
DA:635,0
DA:636,0
DA:637,0
DA:639,0
DA:640,0
DA:641,0
DA:642,0
DA:643,0
DA:645,0
DA:647,0
DA:648,0
DA:651,0
DA:653,0
DA:654,0
DA:656,0
DA:657,0
DA:658,0
DA:660,0
DA:662,0
DA:663,0
DA:664,0
DA:668,0
DA:669,0
DA:671,0
DA:672,0
DA:673,0
DA:676,0
DA:677,0
DA:679,0
DA:680,0
DA:683,0
DA:684,0
DA:685,0
DA:687,0
DA:688,0
DA:690,0
DA:691,0
DA:692,0
DA:693,0
DA:694,0
DA:695,0
DA:697,0
DA:698,0
DA:699,0
DA:700,0
DA:701,0
DA:703,0
DA:704,0
DA:705,0
DA:707,0
DA:708,0
DA:709,0
DA:710,0
DA:711,0
DA:712,0
DA:713,0
DA:715,0
DA:716,0
DA:719,0
DA:720,0
DA:721,0
DA:722,0
DA:724,0
DA:725,0
DA:728,0
DA:729,0
DA:730,0
DA:731,0
DA:733,0
DA:734,0
DA:737,0
DA:738,0
DA:739,0
DA:740,0
DA:742,0
DA:743,0
DA:744,0
DA:745,0
DA:746,0
DA:747,0
DA:748,0
DA:750,0
DA:751,0
DA:752,0
DA:753,0
DA:754,0
DA:755,0
DA:756,0
DA:757,0
DA:758,0
DA:759,0
DA:761,0
DA:762,0
DA:763,0
DA:765,0
DA:767,0
DA:768,0
DA:770,0
DA:771,0
DA:772,0
DA:774,0
DA:776,0
DA:777,0
DA:779,0
DA:780,0
DA:781,0
DA:783,0
DA:785,0
DA:787,0
DA:788,0
DA:802,0
DA:805,0
DA:807,0
DA:808,0
DA:811,0
DA:812,0
DA:813,0
DA:814,0
DA:815,0
DA:817,0
DA:818,0
DA:820,0
DA:821,0
DA:822,0
DA:824,0
DA:825,0
DA:826,0
DA:827,0
DA:829,0
DA:831,0
DA:834,0
DA:835,0
DA:838,0
DA:839,0
DA:841,0
DA:842,0
DA:844,0
DA:845,0
DA:848,0
DA:849,0
DA:850,0
DA:851,0
DA:852,0
DA:854,0
DA:855,0
DA:856,0
DA:857,0
DA:858,0
DA:860,0
DA:862,0
DA:863,0
DA:866,0
DA:867,0
DA:868,0
DA:869,0
DA:870,0
DA:871,0
DA:873,0
DA:874,0
DA:875,0
DA:876,0
DA:877,0
DA:879,0
DA:881,0
DA:882,0
DA:885,0
DA:886,0
DA:887,0
DA:888,0
DA:889,0
DA:890,0
DA:891,0
DA:893,0
DA:894,0
DA:895,0
DA:896,0
DA:897,0
DA:899,0
DA:901,0
DA:902,0
DA:905,0
DA:906,0
DA:907,0
DA:908,0
DA:909,0
DA:910,0
DA:911,0
DA:912,0
DA:914,0
DA:915,0
DA:916,0
DA:917,0
DA:918,0
DA:920,0
DA:922,0
DA:923,0
DA:926,0
DA:928,0
DA:929,0
DA:931,0
DA:932,0
DA:933,0
DA:935,0
DA:937,0
DA:938,0
DA:939,0
DA:943,0
DA:944,0
DA:946,0
DA:947,0
DA:948,0
DA:951,0
DA:952,0
DA:954,0
DA:955,0
DA:958,0
DA:959,0
DA:960,0
DA:962,0
DA:963,0
DA:965,0
DA:966,0
DA:967,0
DA:968,0
DA:969,0
DA:970,0
DA:972,0
DA:973,0
DA:974,0
DA:975,0
DA:976,0
DA:978,0
DA:979,0
DA:980,0
DA:982,0
DA:983,0
DA:984,0
DA:985,0
DA:986,0
DA:987,0
DA:988,0
DA:990,0
DA:991,0
DA:994,0
DA:995,0
DA:996,0
DA:997,0
DA:999,0
DA:1000,0
DA:1003,0
DA:1004,0
DA:1005,0
DA:1006,0
DA:1008,0
DA:1009,0
DA:1012,0
DA:1013,0
DA:1014,0
DA:1015,0
DA:1017,0
DA:1018,0
DA:1019,0
DA:1020,0
DA:1021,0
DA:1022,0
DA:1023,0
DA:1025,0
DA:1026,0
DA:1027,0
DA:1028,0
DA:1029,0
DA:1030,0
DA:1031,0
DA:1032,0
DA:1033,0
DA:1034,0
DA:1036,0
DA:1037,0
DA:1038,0
DA:1040,0
DA:1042,0
DA:1043,0
DA:1045,0
DA:1046,0
DA:1047,0
DA:1049,0
DA:1051,0
DA:1052,0
DA:1054,0
DA:1055,0
DA:1056,0
DA:1058,0
DA:1060,0
DA:1062,0
DA:1063,0
DA:1077,0
DA:1079,0
DA:1080,0
DA:1081,0
DA:1082,0
DA:1084,0
DA:1085,0
DA:1086,0
DA:1090,0
DA:1092,0
DA:1093,0
DA:1094,0
DA:1095,0
DA:1097,0
DA:1098,0
DA:1100,0
DA:1101,0
DA:1102,0
DA:1103,0
DA:1105,0
DA:1106,0
DA:1107,0
DA:1108,0
DA:1109,0
DA:1113,0
DA:1114,0
DA:1115,0
DA:1116,0
DA:1117,0
DA:1118,0
DA:1119,0
DA:1120,0
DA:1121,0
DA:1123,0
DA:1127,0
DA:1128,0
DA:1129,0
DA:1130,0
DA:1131,0
DA:1132,0
DA:1133,0
DA:1134,0
DA:1135,0
DA:1137,0
DA:1139,0
DA:1140,0
DA:1142,0
DA:1143,0
DA:1144,0
DA:1147,0
DA:1148,0
DA:1149,0
DA:1150,0
DA:1154,0
DA:1155,0
DA:1156,0
DA:1157,0
DA:1160,0
DA:1161,0
DA:1162,0
DA:1163,0
DA:1165,0
DA:1167,0
DA:1168,0
DA:1169,0
DA:1172,0
DA:1173,0
DA:1174,0
DA:1176,0
DA:1177,0
DA:1178,0
DA:1179,0
DA:1181,0
DA:1182,0
DA:1183,0
DA:1184,0
DA:1187,0
DA:1188,0
DA:1189,0
DA:1191,0
DA:1193,0
DA:1194,0
DA:1196,0
DA:1197,0
DA:1199,0
DA:1201,0
DA:1202,0
DA:1203,0
DA:1207,0
DA:1208,0
DA:1209,0
DA:1211,0
DA:1212,0
DA:1214,0
DA:1215,0
DA:1216,0
DA:1217,0
DA:1219,0
DA:1220,0
DA:1221,0
DA:1222,0
DA:1224,0
DA:1225,0
DA:1226,0
DA:1228,0
DA:1229,0
DA:1231,0
DA:1232,0
DA:1233,0
DA:1234,0
DA:1236,0
DA:1237,0
DA:1238,0
DA:1241,0
DA:1242,0
DA:1243,0
DA:1245,0
DA:1246,0
DA:1247,0
DA:1248,0
DA:1250,0
DA:1251,0
DA:1253,0
DA:1254,0
DA:1255,0
DA:1256,0
DA:1257,0
DA:1258,0
DA:1259,0
DA:1260,0
DA:1262,0
DA:1263,0
DA:1264,0
DA:1265,0
DA:1266,0
DA:1268,0
DA:1270,0
DA:1271,0
DA:1274,0
DA:1275,0
DA:1276,0
DA:1277,0
DA:1278,0
DA:1279,0
DA:1280,0
DA:1281,0
DA:1282,0
DA:1284,0
DA:1285,0
DA:1286,0
DA:1287,0
DA:1288,0
DA:1290,0
DA:1292,0
DA:1293,0
DA:1296,0
DA:1297,0
DA:1298,0
DA:1299,0
DA:1300,0
DA:1301,0
DA:1302,0
DA:1303,0
DA:1305,0
DA:1306,0
DA:1307,0
DA:1308,0
DA:1309,0
DA:1311,0
DA:1313,0
DA:1314,0
DA:1317,0
DA:1318,0
DA:1319,0
DA:1320,0
DA:1321,0
DA:1322,0
DA:1323,0
DA:1324,0
DA:1325,0
DA:1327,0
DA:1328,0
DA:1329,0
DA:1330,0
DA:1331,0
DA:1333,0
DA:1335,0
DA:1336,0
DA:1339,0
DA:1340,0
DA:1341,0
DA:1342,0
DA:1343,0
DA:1344,0
DA:1346,0
DA:1348,0
DA:1350,0
DA:1351,0
DA:1352,0
DA:1353,0
DA:1354,0
DA:1355,0
DA:1357,0
DA:1358,0
DA:1359,0
DA:1360,0
DA:1361,0
DA:1363,0
DA:1365,0
DA:1366,0
DA:1369,0
DA:1370,0
DA:1371,0
DA:1372,0
DA:1373,0
DA:1374,0
DA:1375,0
DA:1376,0
DA:1378,0
DA:1379,0
DA:1380,0
DA:1381,0
DA:1382,0
DA:1384,0
DA:1386,0
DA:1387,0
DA:1390,0
DA:1391,0
DA:1392,0
DA:1393,0
DA:1395,0
DA:1396,0
DA:1398,0
DA:1399,0
DA:1401,0
DA:1402,0
DA:1404,0
DA:1405,0
DA:1406,0
DA:1410,0
DA:1411,0
DA:1413,0
DA:1414,0
DA:1415,0
DA:1418,0
DA:1419,0
DA:1421,0
DA:1422,0
DA:1425,0
DA:1426,0
DA:1427,0
DA:1429,0
DA:1430,0
DA:1431,0
DA:1432,0
DA:1433,0
DA:1434,0
DA:1436,0
DA:1437,0
DA:1438,0
DA:1439,0
DA:1440,0
DA:1442,0
DA:1443,0
DA:1445,0
DA:1446,0
DA:1447,0
DA:1448,0
DA:1450,0
DA:1451,0
DA:1453,0
DA:1454,0
DA:1455,0
DA:1456,0
DA:1458,0
DA:1459,0
DA:1460,0
DA:1461,0
DA:1462,0
DA:1463,0
DA:1464,0
DA:1466,0
DA:1467,0
DA:1470,0
DA:1471,0
DA:1472,0
DA:1473,0
DA:1475,0
DA:1476,0
DA:1479,0
DA:1480,0
DA:1481,0
DA:1482,0
DA:1484,0
DA:1485,0
DA:1486,0
DA:1487,0
DA:1488,0
DA:1490,0
DA:1491,0
DA:1492,0
DA:1493,0
DA:1494,0
DA:1495,0
DA:1496,0
DA:1497,0
DA:1498,0
DA:1499,0
DA:1500,0
DA:1501,0
DA:1502,0
DA:1503,0
DA:1504,0
DA:1505,0
DA:1506,0
DA:1508,0
DA:1509,0
DA:1510,0
DA:1512,0
DA:1514,0
DA:1515,0
DA:1517,0
DA:1518,0
DA:1519,0
DA:1521,0
DA:1523,0
DA:1537,0
DA:1540,0
DA:1542,0
DA:1543,0
DA:1546,0
DA:1547,0
DA:1548,0
DA:1549,0
DA:1550,0
DA:1551,0
DA:1552,0
DA:1553,0
DA:1554,0
DA:1555,0
DA:1556,0
DA:1558,0
DA:1559,0
DA:1560,0
DA:1561,0
DA:1562,0
DA:1564,0
DA:1565,0
DA:1567,0
DA:1568,0
DA:1569,0
DA:1571,0
DA:1572,0
DA:1573,0
DA:1574,0
DA:1576,0
DA:1578,0
DA:1581,0
DA:1582,0
DA:1585,0
DA:1586,0
DA:1588,0
DA:1589,0
DA:1591,0
DA:1592,0
DA:1595,0
DA:1596,0
DA:1597,0
DA:1598,0
DA:1599,0
DA:1600,0
DA:1602,0
DA:1603,0
DA:1604,0
DA:1605,0
DA:1606,0
DA:1608,0
DA:1610,0
DA:1611,0
DA:1614,0
DA:1615,0
DA:1616,0
DA:1617,0
DA:1618,0
DA:1620,0
DA:1621,0
DA:1622,0
DA:1623,0
DA:1624,0
DA:1626,0
DA:1628,0
DA:1629,0
DA:1632,0
DA:1633,0
DA:1634,0
DA:1635,0
DA:1636,0
DA:1637,0
DA:1638,0
DA:1640,0
DA:1641,0
DA:1642,0
DA:1643,0
DA:1644,0
DA:1646,0
DA:1648,0
DA:1649,0
DA:1652,0
DA:1653,0
DA:1654,0
DA:1655,0
DA:1656,0
DA:1657,0
DA:1658,0
DA:1659,0
DA:1661,0
DA:1662,0
DA:1663,0
DA:1664,0
DA:1665,0
DA:1667,0
DA:1669,0
DA:1670,0
DA:1673,0
DA:1675,0
DA:1676,0
DA:1678,0
DA:1679,0
DA:1680,0
DA:1684,0
DA:1685,0
DA:1687,0
DA:1688,0
DA:1689,0
DA:1691,0
DA:1693,0
DA:1694,0
DA:1695,0
DA:1697,0
DA:1699,0
DA:1700,0
DA:1701,0
DA:1704,0
DA:1705,0
DA:1707,0
DA:1708,0
DA:1711,0
DA:1712,0
DA:1713,0
DA:1715,0
DA:1716,0
DA:1717,0
DA:1718,0
DA:1719,0
DA:1720,0
DA:1721,0
DA:1722,0
DA:1724,0
DA:1725,0
DA:1726,0
DA:1728,0
DA:1729,0
DA:1730,0
DA:1731,0
DA:1732,0
DA:1733,0
DA:1734,0
DA:1736,0
DA:1737,0
DA:1740,0
DA:1741,0
DA:1742,0
DA:1743,0
DA:1745,0
DA:1746,0
DA:1749,0
DA:1750,0
DA:1751,0
DA:1752,0
DA:1754,0
DA:1755,0
DA:1758,0
DA:1759,0
DA:1760,0
DA:1761,0
DA:1763,0
DA:1764,0
DA:1767,0
DA:1768,0
DA:1769,0
DA:1770,0
DA:1772,0
DA:1773,0
DA:1774,0
DA:1775,0
DA:1776,0
DA:1777,0
DA:1778,0
DA:1780,0
DA:1781,0
DA:1782,0
DA:1783,0
DA:1784,0
DA:1785,0
DA:1786,0
DA:1788,0
DA:1789,0
DA:1790,0
DA:1792,0
DA:1794,0
DA:1795,0
DA:1797,0
DA:1798,0
DA:1799,0
DA:1801,0
DA:1803,0
DA:1804,0
DA:1806,0
DA:1807,0
DA:1808,0
DA:1810,0
DA:1812,0
DA:1813,0
DA:1815,0
DA:1816,0
DA:1817,0
DA:1819,0
DA:1821,0
DA:1835,0
DA:1837,0
DA:1838,0
DA:1839,0
DA:1840,0
DA:1841,0
DA:1845,0
DA:1850,0
DA:1851,0
DA:1852,0
DA:1855,0
DA:1856,0
DA:1857,0
DA:1861,0
DA:1863,0
DA:1864,0
DA:1866,0
DA:1867,0
DA:1868,0
DA:1869,0
DA:1871,0
DA:1872,0
DA:1873,0
DA:1874,0
DA:1875,0
DA:1879,0
DA:1884,0
DA:1885,0
DA:1886,0
DA:1889,0
DA:1890,0
DA:1891,0
DA:1892,0
DA:1893,0
DA:1895,0
DA:1896,0
DA:1897,0
DA:1898,0
DA:1899,0
DA:1903,0
DA:1904,0
DA:1905,0
DA:1906,0
DA:1907,0
DA:1908,0
DA:1909,0
DA:1910,0
DA:1911,0
DA:1913,0
DA:1915,0
DA:1916,0
DA:1918,0
DA:1919,0
DA:1920,0
DA:1923,0
DA:1924,0
DA:1925,0
DA:1926,0
DA:1929,0
DA:1930,0
DA:1931,0
DA:1932,0
DA:1934,0
DA:1936,0
DA:1937,0
DA:1940,0
DA:1941,0
DA:1942,0
DA:1943,0
DA:1944,0
DA:1946,0
DA:1947,0
DA:1948,0
DA:1949,0
DA:1951,0
DA:1953,0
DA:1954,0
DA:1955,0
DA:1957,0
DA:1959,0
DA:1960,0
DA:1961,0
DA:1963,0
DA:1964,0
DA:1966,0
DA:1967,0
DA:1968,0
DA:1969,0
DA:1970,0
DA:1971,0
DA:1973,0
DA:1974,0
DA:1976,0
DA:1977,0
DA:1979,0
DA:1980,0
DA:1981,0
DA:1984,0
DA:1985,0
DA:1986,0
DA:1987,0
DA:1989,0
DA:1990,0
DA:1992,0
DA:1993,0
DA:1994,0
DA:1995,0
DA:1996,0
DA:1997,0
DA:1998,0
DA:1999,0
DA:2000,0
DA:2001,0
DA:2003,0
DA:2004,0
DA:2005,0
DA:2006,0
DA:2007,0
DA:2009,0
DA:2011,0
DA:2012,0
DA:2015,0
DA:2016,0
DA:2017,0
DA:2018,0
DA:2019,0
DA:2020,0
DA:2021,0
DA:2022,0
DA:2023,0
DA:2024,0
DA:2025,0
DA:2027,0
DA:2028,0
DA:2029,0
DA:2030,0
DA:2031,0
DA:2033,0
DA:2035,0
DA:2036,0
DA:2039,0
DA:2040,0
DA:2041,0
DA:2042,0
DA:2043,0
DA:2044,0
DA:2046,0
DA:2048,0
DA:2050,0
DA:2051,0
DA:2052,0
DA:2053,0
DA:2054,0
DA:2055,0
DA:2057,0
DA:2058,0
DA:2059,0
DA:2060,0
DA:2061,0
DA:2063,0
DA:2065,0
DA:2066,0
DA:2069,0
DA:2070,0
DA:2071,0
DA:2072,0
DA:2073,0
DA:2074,0
DA:2075,0
DA:2076,0
DA:2078,0
DA:2079,0
DA:2080,0
DA:2081,0
DA:2082,0
DA:2084,0
DA:2086,0
DA:2087,0
DA:2090,0
DA:2091,0
DA:2093,0
DA:2094,0
DA:2096,0
DA:2097,0
DA:2099,0
DA:2100,0
DA:2101,0
DA:2103,0
DA:2105,0
DA:2106,0
DA:2107,0
DA:2109,0
DA:2111,0
DA:2112,0
DA:2113,0
DA:2115,0
DA:2117,0
DA:2118,0
DA:2119,0
DA:2123,0
DA:2124,0
DA:2126,0
DA:2127,0
DA:2128,0
DA:2131,0
DA:2132,0
DA:2134,0
DA:2135,0
DA:2138,0
DA:2139,0
DA:2140,0
DA:2141,0
DA:2143,0
DA:2144,0
DA:2146,0
DA:2147,0
DA:2149,0
DA:2150,0
DA:2152,0
DA:2153,0
DA:2154,0
DA:2155,0
DA:2156,0
DA:2157,0
DA:2158,0
DA:2159,0
DA:2160,0
DA:2163,0
DA:2164,0
DA:2165,0
DA:2166,0
DA:2167,0
DA:2168,0
DA:2169,0
DA:2171,0
DA:2172,0
DA:2173,0
DA:2174,0
DA:2175,0
DA:2176,0
DA:2177,0
DA:2179,0
DA:2180,0
DA:2181,0
DA:2182,0
DA:2183,0
DA:2185,0
DA:2186,0
DA:2187,0
DA:2188,0
DA:2189,0
DA:2191,0
DA:2192,0
DA:2193,0
DA:2195,0
DA:2196,0
DA:2197,0
DA:2198,0
DA:2199,0
DA:2200,0
DA:2201,0
DA:2203,0
DA:2204,0
DA:2207,0
DA:2208,0
DA:2209,0
DA:2210,0
DA:2212,0
DA:2213,0
DA:2216,0
DA:2217,0
DA:2218,0
DA:2219,0
DA:2221,0
DA:2222,0
DA:2224,0
DA:2225,0
DA:2226,0
DA:2227,0
DA:2230,0
DA:2231,0
DA:2232,0
DA:2233,0
DA:2235,0
DA:2236,0
DA:2239,0
DA:2240,0
DA:2241,0
DA:2242,0
DA:2244,0
DA:2245,0
DA:2246,0
DA:2247,0
DA:2248,0
DA:2249,0
DA:2250,0
DA:2251,0
DA:2252,0
DA:2253,0
DA:2254,0
DA:2256,0
DA:2257,0
DA:2258,0
DA:2259,0
DA:2260,0
DA:2261,0
DA:2262,0
DA:2263,0
DA:2264,0
DA:2265,0
DA:2266,0
DA:2267,0
DA:2268,0
DA:2269,0
DA:2270,0
DA:2271,0
DA:2272,0
DA:2273,0
DA:2274,0
DA:2275,0
DA:2277,0
DA:2278,0
DA:2279,0
DA:2281,0
DA:2283,0
DA:2284,0
DA:2286,0
DA:2287,0
DA:2288,0
DA:2290,0
DA:2292,0
DA:2293,0
DA:2294,0
DA:2295,0
DA:2296,0
DA:2298,0
DA:2299,0
DA:2300,0
DA:2302,0
DA:2304,0
DA:2305,0
DA:2307,0
DA:2308,0
DA:2309,0
DA:2311,0
DA:2313,0
DA:2327,0
DA:2329,0
DA:2330,0
DA:2331,0
DA:2332,0
DA:2335,0
DA:2337,0
DA:2338,0
DA:2339,0
DA:2341,0
DA:2342,0
DA:2343,0
DA:2344,0
DA:2346,0
DA:2347,0
DA:2348,0
DA:2349,0
DA:2350,0
DA:2354,0
DA:2355,0
DA:2356,0
DA:2357,0
DA:2358,0
DA:2359,0
DA:2360,0
DA:2361,0
DA:2362,0
DA:2364,0
DA:2366,0
DA:2367,0
DA:2369,0
DA:2370,0
DA:2371,0
DA:2374,0
DA:2375,0
DA:2376,0
DA:2377,0
DA:2380,0
DA:2381,0
DA:2382,0
DA:2383,0
DA:2385,0
DA:2387,0
DA:2388,0
DA:2391,0
DA:2392,0
DA:2393,0
DA:2394,0
DA:2395,0
DA:2397,0
DA:2398,0
DA:2399,0
DA:2400,0
DA:2402,0
DA:2404,0
DA:2405,0
DA:2406,0
DA:2408,0
DA:2410,0
DA:2411,0
DA:2412,0
DA:2414,0
DA:2415,0
DA:2417,0
DA:2418,0
DA:2419,0
DA:2420,0
DA:2421,0
DA:2422,0
DA:2424,0
DA:2425,0
DA:2426,0
DA:2427,0
DA:2429,0
DA:2430,0
DA:2431,0
DA:2432,0
DA:2434,0
DA:2435,0
DA:2436,0
DA:2438,0
DA:2439,0
DA:2440,0
DA:2441,0
DA:2442,0
DA:2444,0
DA:2445,0
DA:2446,0
DA:2447,0
DA:2448,0
DA:2450,0
DA:2452,0
DA:2453,0
DA:2456,0
DA:2457,0
DA:2458,0
DA:2459,0
DA:2460,0
DA:2461,0
DA:2463,0
DA:2464,0
DA:2465,0
DA:2466,0
DA:2467,0
DA:2469,0
DA:2471,0
DA:2472,0
DA:2475,0
DA:2476,0
DA:2477,0
DA:2478,0
DA:2479,0
DA:2481,0
DA:2482,0
DA:2483,0
DA:2484,0
DA:2485,0
DA:2487,0
DA:2489,0
DA:2490,0
DA:2493,0
DA:2494,0
DA:2495,0
DA:2496,0
DA:2497,0
DA:2498,0
DA:2500,0
DA:2501,0
DA:2502,0
DA:2503,0
DA:2504,0
DA:2506,0
DA:2508,0
DA:2509,0
DA:2512,0
DA:2513,0
DA:2514,0
DA:2515,0
DA:2516,0
DA:2517,0
DA:2519,0
DA:2521,0
DA:2523,0
DA:2524,0
DA:2525,0
DA:2526,0
DA:2527,0
DA:2528,0
DA:2530,0
DA:2531,0
DA:2532,0
DA:2533,0
DA:2534,0
DA:2536,0
DA:2538,0
DA:2539,0
DA:2542,0
DA:2543,0
DA:2544,0
DA:2545,0
DA:2546,0
DA:2547,0
DA:2548,0
DA:2549,0
DA:2551,0
DA:2552,0
DA:2553,0
DA:2554,0
DA:2555,0
DA:2557,0
DA:2559,0
DA:2560,0
DA:2563,0
DA:2564,0
DA:2565,0
DA:2567,0
DA:2568,0
DA:2570,0
DA:2571,0
DA:2573,0
DA:2574,0
DA:2575,0
DA:2579,0
DA:2580,0
DA:2582,0
DA:2583,0
DA:2584,0
DA:2587,0
DA:2588,0
DA:2590,0
DA:2591,0
DA:2594,0
DA:2595,0
DA:2596,0
DA:2598,0
DA:2599,0
DA:2600,0
DA:2601,0
DA:2602,0
DA:2604,0
DA:2605,0
DA:2606,0
DA:2607,0
DA:2608,0
DA:2610,0
DA:2611,0
DA:2613,0
DA:2615,0
DA:2616,0
DA:2617,0
DA:2618,0
DA:2619,0
DA:2620,0
DA:2621,0
DA:2623,0
DA:2624,0
DA:2627,0
DA:2628,0
DA:2629,0
DA:2630,0
DA:2632,0
DA:2633,0
DA:2636,0
DA:2637,0
DA:2638,0
DA:2639,0
DA:2641,0
DA:2642,0
DA:2643,0
DA:2644,0
DA:2645,0
DA:2647,0
DA:2648,0
DA:2649,0
DA:2650,0
DA:2651,0
DA:2652,0
DA:2653,0
DA:2654,0
DA:2655,0
DA:2656,0
DA:2657,0
DA:2659,0
DA:2660,0
DA:2661,0
DA:2663,0
DA:2665,0
DA:2666,0
DA:2668,0
DA:2669,0
DA:2670,0
DA:2672,0
DA:2674,0
DA:2688,0
DA:2690,0
DA:2691,0
DA:2692,0
DA:2696,0
DA:2698,0
DA:2699,0
DA:2700,0
DA:2702,0
DA:2703,0
DA:2704,0
DA:2705,0
DA:2707,0
DA:2708,0
DA:2709,0
DA:2710,0
DA:2711,0
DA:2715,0
DA:2716,0
DA:2717,0
DA:2718,0
DA:2719,0
DA:2720,0
DA:2721,0
DA:2722,0
DA:2723,0
DA:2725,0
DA:2727,0
DA:2728,0
DA:2730,0
DA:2731,0
DA:2732,0
DA:2735,0
DA:2736,0
DA:2737,0
DA:2738,0
DA:2741,0
DA:2742,0
DA:2743,0
DA:2744,0
DA:2746,0
DA:2748,0
DA:2749,0
DA:2752,0
DA:2753,0
DA:2754,0
DA:2755,0
DA:2756,0
DA:2758,0
DA:2759,0
DA:2760,0
DA:2761,0
DA:2763,0
DA:2765,0
DA:2766,0
DA:2767,0
DA:2769,0
DA:2771,0
DA:2772,0
DA:2773,0
DA:2775,0
DA:2776,0
DA:2778,0
DA:2779,0
DA:2780,0
DA:2781,0
DA:2782,0
DA:2783,0
DA:2785,0
DA:2786,0
DA:2787,0
DA:2788,0
DA:2790,0
DA:2791,0
DA:2792,0
DA:2795,0
DA:2796,0
DA:2797,0
DA:2799,0
DA:2800,0
DA:2801,0
DA:2802,0
DA:2803,0
DA:2805,0
DA:2806,0
DA:2807,0
DA:2808,0
DA:2809,0
DA:2811,0
DA:2813,0
DA:2814,0
DA:2817,0
DA:2818,0
DA:2819,0
DA:2820,0
DA:2821,0
DA:2822,0
DA:2824,0
DA:2825,0
DA:2826,0
DA:2827,0
DA:2828,0
DA:2830,0
DA:2832,0
DA:2833,0
DA:2836,0
DA:2837,0
DA:2838,0
DA:2839,0
DA:2840,0
DA:2842,0
DA:2843,0
DA:2844,0
DA:2845,0
DA:2846,0
DA:2848,0
DA:2850,0
DA:2851,0
DA:2854,0
DA:2855,0
DA:2856,0
DA:2857,0
DA:2858,0
DA:2859,0
DA:2861,0
DA:2862,0
DA:2863,0
DA:2864,0
DA:2865,0
DA:2867,0
DA:2869,0
DA:2870,0
DA:2873,0
DA:2874,0
DA:2875,0
DA:2876,0
DA:2877,0
DA:2878,0
DA:2880,0
DA:2882,0
DA:2884,0
DA:2885,0
DA:2886,0
DA:2887,0
DA:2888,0
DA:2889,0
DA:2891,0
DA:2892,0
DA:2893,0
DA:2894,0
DA:2895,0
DA:2897,0
DA:2899,0
DA:2900,0
DA:2903,0
DA:2904,0
DA:2905,0
DA:2906,0
DA:2907,0
DA:2908,0
DA:2909,0
DA:2910,0
DA:2912,0
DA:2913,0
DA:2914,0
DA:2915,0
DA:2916,0
DA:2918,0
DA:2920,0
DA:2921,0
DA:2924,0
DA:2925,0
DA:2926,0
DA:2928,0
DA:2929,0
DA:2931,0
DA:2932,0
DA:2934,0
DA:2935,0
DA:2936,0
DA:2940,0
DA:2941,0
DA:2943,0
DA:2944,0
DA:2945,0
DA:2948,0
DA:2949,0
DA:2951,0
DA:2952,0
DA:2955,0
DA:2956,0
DA:2957,0
DA:2959,0
DA:2960,0
DA:2961,0
DA:2962,0
DA:2963,0
DA:2965,0
DA:2966,0
DA:2967,0
DA:2968,0
DA:2969,0
DA:2971,0
DA:2972,0
DA:2974,0
DA:2976,0
DA:2977,0
DA:2978,0
DA:2979,0
DA:2980,0
DA:2981,0
DA:2982,0
DA:2984,0
DA:2985,0
DA:2988,0
DA:2989,0
DA:2990,0
DA:2991,0
DA:2993,0
DA:2994,0
DA:2997,0
DA:2998,0
DA:2999,0
DA:3000,0
DA:3002,0
DA:3003,0
DA:3004,0
DA:3005,0
DA:3006,0
DA:3008,0
DA:3009,0
DA:3010,0
DA:3011,0
DA:3012,0
DA:3013,0
DA:3014,0
DA:3015,0
DA:3016,0
DA:3017,0
DA:3018,0
DA:3020,0
DA:3021,0
DA:3022,0
DA:3024,0
DA:3026,0
DA:3027,0
DA:3029,0
DA:3030,0
DA:3031,0
DA:3033,0
DA:3035,0
DA:3037,0
DA:3038,0
DA:3052,0
DA:3054,0
DA:3055,0
DA:3056,0
DA:3060,0
DA:3062,0
DA:3063,0
DA:3064,0
DA:3066,0
DA:3067,0
DA:3068,0
DA:3069,0
DA:3071,0
DA:3072,0
DA:3073,0
DA:3074,0
DA:3075,0
DA:3079,0
DA:3080,0
DA:3081,0
DA:3082,0
DA:3083,0
DA:3084,0
DA:3085,0
DA:3086,0
DA:3087,0
DA:3089,0
DA:3091,0
DA:3092,0
DA:3094,0
DA:3095,0
DA:3096,0
DA:3099,0
DA:3100,0
DA:3101,0
DA:3102,0
DA:3105,0
DA:3106,0
DA:3107,0
DA:3108,0
DA:3110,0
DA:3112,0
DA:3113,0
DA:3116,0
DA:3117,0
DA:3118,0
DA:3119,0
DA:3120,0
DA:3122,0
DA:3123,0
DA:3124,0
DA:3125,0
DA:3127,0
DA:3129,0
DA:3130,0
DA:3131,0
DA:3133,0
DA:3135,0
DA:3136,0
DA:3137,0
DA:3139,0
DA:3140,0
DA:3142,0
DA:3143,0
DA:3144,0
DA:3145,0
DA:3146,0
DA:3147,0
DA:3149,0
DA:3150,0
DA:3151,0
DA:3152,0
DA:3154,0
DA:3155,0
DA:3156,0
DA:3159,0
DA:3160,0
DA:3161,0
DA:3163,0
DA:3164,0
DA:3165,0
DA:3166,0
DA:3167,0
DA:3168,0
DA:3170,0
DA:3171,0
DA:3172,0
DA:3173,0
DA:3174,0
DA:3176,0
DA:3178,0
DA:3179,0
DA:3182,0
DA:3183,0
DA:3184,0
DA:3185,0
DA:3186,0
DA:3187,0
DA:3188,0
DA:3190,0
DA:3191,0
DA:3192,0
DA:3193,0
DA:3194,0
DA:3196,0
DA:3198,0
DA:3199,0
DA:3202,0
DA:3203,0
DA:3204,0
DA:3205,0
DA:3206,0
DA:3207,0
DA:3209,0
DA:3210,0
DA:3211,0
DA:3212,0
DA:3213,0
DA:3215,0
DA:3217,0
DA:3218,0
DA:3221,0
DA:3222,0
DA:3223,0
DA:3224,0
DA:3225,0
DA:3226,0
DA:3227,0
DA:3229,0
DA:3230,0
DA:3231,0
DA:3232,0
DA:3233,0
DA:3235,0
DA:3237,0
DA:3238,0
DA:3241,0
DA:3242,0
DA:3243,0
DA:3244,0
DA:3245,0
DA:3246,0
DA:3248,0
DA:3250,0
DA:3252,0
DA:3253,0
DA:3254,0
DA:3255,0
DA:3256,0
DA:3257,0
DA:3259,0
DA:3260,0
DA:3261,0
DA:3262,0
DA:3263,0
DA:3265,0
DA:3267,0
DA:3268,0
DA:3271,0
DA:3272,0
DA:3273,0
DA:3274,0
DA:3275,0
DA:3276,0
DA:3277,0
DA:3278,0
DA:3280,0
DA:3281,0
DA:3282,0
DA:3283,0
DA:3284,0
DA:3286,0
DA:3288,0
DA:3289,0
DA:3292,0
DA:3293,0
DA:3294,0
DA:3296,0
DA:3297,0
DA:3299,0
DA:3300,0
DA:3302,0
DA:3303,0
DA:3304,0
DA:3306,0
DA:3308,0
DA:3309,0
DA:3310,0
DA:3314,0
DA:3315,0
DA:3317,0
DA:3318,0
DA:3319,0
DA:3322,0
DA:3323,0
DA:3325,0
DA:3326,0
DA:3329,0
DA:3330,0
DA:3331,0
DA:3333,0
DA:3334,0
DA:3336,0
DA:3337,0
DA:3338,0
DA:3339,0
DA:3340,0
DA:3341,0
DA:3342,0
DA:3344,0
DA:3345,0
DA:3346,0
DA:3347,0
DA:3348,0
DA:3350,0
DA:3351,0
DA:3352,0
DA:3353,0
DA:3354,0
DA:3356,0
DA:3357,0
DA:3359,0
DA:3361,0
DA:3362,0
DA:3363,0
DA:3364,0
DA:3365,0
DA:3366,0
DA:3367,0
DA:3369,0
DA:3370,0
DA:3373,0
DA:3374,0
DA:3375,0
DA:3376,0
DA:3378,0
DA:3379,0
DA:3382,0
DA:3383,0
DA:3384,0
DA:3385,0
DA:3387,0
DA:3388,0
DA:3391,0
DA:3392,0
DA:3393,0
DA:3394,0
DA:3396,0
DA:3397,0
DA:3398,0
DA:3399,0
DA:3400,0
DA:3401,0
DA:3402,0
DA:3404,0
DA:3405,0
DA:3406,0
DA:3407,0
DA:3408,0
DA:3409,0
DA:3410,0
DA:3411,0
DA:3412,0
DA:3413,0
DA:3414,0
DA:3415,0
DA:3416,0
DA:3417,0
DA:3419,0
DA:3420,0
DA:3421,0
DA:3423,0
DA:3425,0
DA:3426,0
DA:3428,0
DA:3429,0
DA:3430,0
DA:3432,0
DA:3434,0
DA:3435,0
DA:3437,0
DA:3438,0
DA:3439,0
DA:3441,0
DA:3443,0
DA:3445,0
DA:3446,0
DA:3460,0
DA:3462,0
DA:3463,0
DA:3464,0
DA:3467,0
DA:3468,0
DA:3469,0
DA:3470,0
DA:3473,0
DA:3475,0
DA:3476,0
DA:3477,0
DA:3478,0
DA:3479,0
DA:3481,0
DA:3482,0
DA:3484,0
DA:3485,0
DA:3486,0
DA:3487,0
DA:3489,0
DA:3490,0
DA:3491,0
DA:3492,0
DA:3493,0
DA:3497,0
DA:3498,0
DA:3499,0
DA:3500,0
DA:3501,0
DA:3502,0
DA:3503,0
DA:3504,0
DA:3505,0
DA:3507,0
DA:3511,0
DA:3512,0
DA:3513,0
DA:3514,0
DA:3515,0
DA:3516,0
DA:3517,0
DA:3518,0
DA:3519,0
DA:3521,0
DA:3523,0
DA:3524,0
DA:3526,0
DA:3527,0
DA:3528,0
DA:3531,0
DA:3532,0
DA:3533,0
DA:3534,0
DA:3538,0
DA:3539,0
DA:3540,0
DA:3541,0
DA:3544,0
DA:3545,0
DA:3546,0
DA:3547,0
DA:3549,0
DA:3551,0
DA:3552,0
DA:3553,0
DA:3556,0
DA:3557,0
DA:3558,0
DA:3560,0
DA:3561,0
DA:3562,0
DA:3563,0
DA:3565,0
DA:3566,0
DA:3567,0
DA:3568,0
DA:3571,0
DA:3572,0
DA:3573,0
DA:3575,0
DA:3577,0
DA:3578,0
DA:3580,0
DA:3581,0
DA:3583,0
DA:3585,0
DA:3586,0
DA:3587,0
DA:3591,0
DA:3592,0
DA:3593,0
DA:3595,0
DA:3596,0
DA:3598,0
DA:3599,0
DA:3600,0
DA:3601,0
DA:3603,0
DA:3604,0
DA:3605,0
DA:3606,0
DA:3608,0
DA:3609,0
DA:3610,0
DA:3611,0
DA:3612,0
DA:3614,0
DA:3615,0
DA:3616,0
DA:3619,0
DA:3620,0
DA:3621,0
DA:3622,0
DA:3624,0
DA:3625,0
DA:3626,0
DA:3628,0
DA:3629,0
DA:3630,0
DA:3632,0
DA:3633,0
DA:3634,0
DA:3635,0
DA:3636,0
DA:3638,0
DA:3639,0
DA:3640,0
DA:3641,0
DA:3642,0
DA:3644,0
DA:3646,0
DA:3647,0
DA:3650,0
DA:3651,0
DA:3652,0
DA:3653,0
DA:3654,0
DA:3655,0
DA:3657,0
DA:3658,0
DA:3659,0
DA:3660,0
DA:3661,0
DA:3663,0
DA:3665,0
DA:3666,0
DA:3669,0
DA:3670,0
DA:3671,0
DA:3672,0
DA:3673,0
DA:3675,0
DA:3676,0
DA:3677,0
DA:3678,0
DA:3679,0
DA:3681,0
DA:3683,0
DA:3684,0
DA:3687,0
DA:3688,0
DA:3689,0
DA:3690,0
DA:3691,0
DA:3692,0
DA:3694,0
DA:3695,0
DA:3696,0
DA:3697,0
DA:3698,0
DA:3700,0
DA:3702,0
DA:3703,0
DA:3706,0
DA:3707,0
DA:3708,0
DA:3709,0
DA:3710,0
DA:3711,0
DA:3713,0
DA:3715,0
DA:3717,0
DA:3718,0
DA:3719,0
DA:3720,0
DA:3721,0
DA:3722,0
DA:3724,0
DA:3725,0
DA:3726,0
DA:3727,0
DA:3728,0
DA:3730,0
DA:3732,0
DA:3733,0
DA:3736,0
DA:3737,0
DA:3738,0
DA:3739,0
DA:3740,0
DA:3741,0
DA:3742,0
DA:3743,0
DA:3745,0
DA:3746,0
DA:3747,0
DA:3748,0
DA:3749,0
DA:3751,0
DA:3753,0
DA:3754,0
DA:3757,0
DA:3758,0
DA:3759,0
DA:3760,0
DA:3761,0
DA:3763,0
DA:3764,0
DA:3766,0
DA:3767,0
DA:3769,0
DA:3770,0
DA:3772,0
DA:3773,0
DA:3774,0
DA:3777,0
DA:3778,0
DA:3780,0
DA:3781,0
DA:3784,0
DA:3785,0
DA:3786,0
DA:3787,0
DA:3788,0
DA:3790,0
DA:3791,0
DA:3793,0
DA:3794,0
DA:3795,0
DA:3797,0
DA:3798,0
DA:3800,0
DA:3802,0
DA:3803,0
DA:3804,0
DA:3805,0
DA:3806,0
DA:3807,0
DA:3808,0
DA:3810,0
DA:3811,0
DA:3814,0
DA:3815,0
DA:3816,0
DA:3817,0
DA:3819,0
DA:3820,0
DA:3821,0
DA:3823,0
DA:3824,0
DA:3825,0
DA:3826,0
DA:3827,0
DA:3828,0
DA:3829,0
DA:3830,0
DA:3831,0
DA:3832,0
DA:3833,0
DA:3834,0
DA:3836,0
DA:3837,0
DA:3838,0
DA:3840,0
DA:3842,0
DA:3844,0
DA:3845,0
DA:3859,0
DA:3861,0
DA:3862,0
DA:3863,0
DA:3867,0
DA:3869,0
DA:3870,0
DA:3871,0
DA:3873,0
DA:3874,0
DA:3875,0
DA:3876,0
DA:3878,0
DA:3879,0
DA:3880,0
DA:3881,0
DA:3882,0
DA:3886,0
DA:3887,0
DA:3888,0
DA:3889,0
DA:3890,0
DA:3891,0
DA:3892,0
DA:3893,0
DA:3894,0
DA:3896,0
DA:3898,0
DA:3899,0
DA:3901,0
DA:3902,0
DA:3903,0
DA:3906,0
DA:3907,0
DA:3908,0
DA:3909,0
DA:3912,0
DA:3913,0
DA:3914,0
DA:3915,0
DA:3917,0
DA:3919,0
DA:3920,0
DA:3923,17
DA:3924,17
DA:3925,17
DA:3926,0
DA:3927,17
DA:3929,17
DA:3930,17
DA:3931,17
DA:3932,17
DA:3934,17
DA:3936,0
DA:3937,0
DA:3938,0
DA:3940,0
DA:3942,0
DA:3943,0
DA:3944,0
DA:3946,0
DA:3947,0
DA:3949,0
DA:3950,0
DA:3951,0
DA:3952,0
DA:3953,0
DA:3954,0
DA:3956,0
DA:3957,0
DA:3958,0
DA:3959,0
DA:3961,11
DA:3962,11
DA:3963,11
DA:3966,17
DA:3967,17
DA:3968,17
DA:3970,17
DA:3972,0
DA:3973,0
DA:3974,0
DA:3975,0
DA:3976,0
DA:3978,0
DA:3980,0
DA:3981,0
DA:3984,0
DA:3985,0
DA:3986,0
DA:3987,0
DA:3988,0
DA:3990,0
DA:3991,0
DA:3992,0
DA:3993,0
DA:3994,0
DA:3996,0
DA:3998,0
DA:3999,0
DA:4002,0
DA:4003,0
DA:4004,0
DA:4005,0
DA:4006,0
DA:4007,0
DA:4009,0
DA:4011,0
DA:4013,0
DA:4014,0
DA:4015,0
DA:4016,0
DA:4017,0
DA:4018,0
DA:4020,0
DA:4021,0
DA:4022,0
DA:4023,0
DA:4024,0
DA:4026,0
DA:4028,0
DA:4029,0
DA:4032,0
DA:4033,0
DA:4034,0
DA:4035,0
DA:4036,0
DA:4037,0
DA:4038,0
DA:4039,0
DA:4041,0
DA:4042,0
DA:4043,0
DA:4044,0
DA:4045,0
DA:4047,0
DA:4049,0
DA:4050,0
DA:4053,0
DA:4054,0
DA:4055,0
DA:4057,0
DA:4058,0
DA:4060,0
DA:4061,0
DA:4063,0
DA:4064,0
DA:4065,0
DA:4068,0
DA:4069,0
DA:4071,0
DA:4072,0
DA:4075,0
DA:4076,0
DA:4077,0
DA:4078,0
DA:4079,0
DA:4083,0
DA:4084,0
DA:4088,0
DA:4089,0
DA:4090,0
DA:4091,0
DA:4092,0
DA:4093,0
DA:4094,0
DA:4096,0
DA:4098,0
DA:4099,0
DA:4100,0
DA:4101,0
DA:4102,0
DA:4103,0
DA:4105,0
DA:4108,0
DA:4109,0
DA:4110,0
DA:4113,0
DA:4114,0
DA:4116,0
DA:4117,0
DA:4131,0
DA:4134,0
DA:4136,0
DA:4137,0
DA:4140,0
DA:4141,0
DA:4142,0
DA:4143,0
DA:4144,0
DA:4146,0
DA:4147,0
DA:4149,0
DA:4150,0
DA:4151,0
DA:4153,0
DA:4154,0
DA:4155,0
DA:4156,0
DA:4158,0
DA:4160,0
DA:4163,0
DA:4164,0
DA:4167,0
DA:4168,0
DA:4170,0
DA:4171,0
DA:4173,0
DA:4174,0
DA:4177,0
DA:4178,0
DA:4179,0
DA:4181,0
DA:4182,0
DA:4183,0
DA:4184,0
DA:4185,0
DA:4187,0
DA:4189,0
DA:4190,0
DA:4193,0
DA:4194,0
DA:4195,0
DA:4196,0
DA:4198,0
DA:4199,0
DA:4200,0
DA:4201,0
DA:4202,0
DA:4204,0
DA:4206,0
DA:4207,0
DA:4210,0
DA:4211,0
DA:4212,0
DA:4213,0
DA:4214,0
DA:4215,0
DA:4216,0
DA:4218,0
DA:4219,0
DA:4220,0
DA:4221,0
DA:4222,0
DA:4224,0
DA:4226,0
DA:4227,0
DA:4230,0
DA:4231,0
DA:4232,0
DA:4233,0
DA:4234,0
DA:4235,0
DA:4236,0
DA:4237,0
DA:4239,0
DA:4240,0
DA:4241,0
DA:4242,0
DA:4243,0
DA:4245,0
DA:4247,0
DA:4248,0
DA:4251,0
DA:4253,0
DA:4254,0
DA:4256,0
DA:4257,0
DA:4258,0
DA:4261,0
DA:4262,0
DA:4264,0
DA:4265,0
DA:4268,0
DA:4269,0
DA:4270,0
DA:4272,0
DA:4273,0
DA:4274,0
DA:4275,0
DA:4276,0
DA:4277,0
DA:4278,0
DA:4280,0
DA:4281,0
DA:4284,0
DA:4285,0
DA:4286,0
DA:4287,0
DA:4289,0
DA:4290,0
DA:4291,0
DA:4293,0
DA:4294,0
DA:4295,0
DA:4296,0
DA:4297,0
DA:4299,0
DA:4300,0
DA:4301,0
DA:4303,0
DA:4305,0
DA:4307,0
DA:4308,0
DA:4322,0
DA:4325,0
DA:4327,0
DA:4328,0
DA:4331,0
DA:4332,0
DA:4333,0
DA:4334,0
DA:4335,0
DA:4337,0
DA:4338,0
DA:4340,0
DA:4341,0
DA:4342,0
DA:4344,0
DA:4345,0
DA:4346,0
DA:4347,0
DA:4349,0
DA:4351,0
DA:4354,0
DA:4355,0
DA:4358,0
DA:4359,0
DA:4361,0
DA:4362,0
DA:4364,0
DA:4365,0
DA:4368,0
DA:4369,0
DA:4370,0
DA:4371,0
DA:4372,0
DA:4374,0
DA:4375,0
DA:4376,0
DA:4377,0
DA:4378,0
DA:4380,0
DA:4382,0
DA:4383,0
DA:4386,0
DA:4387,0
DA:4388,0
DA:4389,0
DA:4390,0
DA:4391,0
DA:4393,0
DA:4394,0
DA:4395,0
DA:4396,0
DA:4397,0
DA:4399,0
DA:4401,0
DA:4402,0
DA:4405,0
DA:4406,0
DA:4407,0
DA:4408,0
DA:4409,0
DA:4410,0
DA:4411,0
DA:4413,0
DA:4414,0
DA:4415,0
DA:4416,0
DA:4417,0
DA:4419,0
DA:4421,0
DA:4422,0
DA:4425,0
DA:4426,0
DA:4427,0
DA:4428,0
DA:4429,0
DA:4430,0
DA:4431,0
DA:4432,0
DA:4434,0
DA:4435,0
DA:4436,0
DA:4437,0
DA:4438,0
DA:4440,0
DA:4442,0
DA:4443,0
DA:4446,0
DA:4448,0
DA:4449,0
DA:4451,0
DA:4452,0
DA:4453,0
DA:4455,0
DA:4457,0
DA:4458,0
DA:4459,0
DA:4463,0
DA:4464,0
DA:4466,0
DA:4467,0
DA:4468,0
DA:4471,0
DA:4472,0
DA:4474,0
DA:4475,0
DA:4478,0
DA:4479,0
DA:4480,0
DA:4482,0
DA:4483,0
DA:4485,0
DA:4486,0
DA:4487,0
DA:4488,0
DA:4489,0
DA:4490,0
DA:4492,0
DA:4493,0
DA:4494,0
DA:4495,0
DA:4496,0
DA:4498,0
DA:4499,0
DA:4500,0
DA:4502,0
DA:4503,0
DA:4504,0
DA:4505,0
DA:4506,0
DA:4507,0
DA:4508,0
DA:4510,0
DA:4511,0
DA:4514,0
DA:4515,0
DA:4516,0
DA:4517,0
DA:4519,0
DA:4520,0
DA:4523,0
DA:4524,0
DA:4525,0
DA:4526,0
DA:4528,0
DA:4529,0
DA:4532,0
DA:4533,0
DA:4534,0
DA:4535,0
DA:4537,0
DA:4538,0
DA:4539,0
DA:4540,0
DA:4541,0
DA:4542,0
DA:4543,0
DA:4545,0
DA:4546,0
DA:4547,0
DA:4548,0
DA:4549,0
DA:4550,0
DA:4551,0
DA:4552,0
DA:4553,0
DA:4554,0
DA:4556,0
DA:4557,0
DA:4558,0
DA:4560,0
DA:4562,0
DA:4563,0
DA:4565,0
DA:4566,0
DA:4567,0
DA:4569,0
DA:4571,0
DA:4572,0
DA:4574,0
DA:4575,0
DA:4576,0
DA:4578,0
DA:4580,0
DA:4582,0
DA:4583,0
DA:4597,0
DA:4600,0
DA:4602,0
DA:4603,0
DA:4606,0
DA:4607,0
DA:4608,0
DA:4609,0
DA:4610,0
DA:4612,0
DA:4613,0
DA:4615,0
DA:4616,0
DA:4617,0
DA:4619,0
DA:4620,0
DA:4621,0
DA:4622,0
DA:4624,0
DA:4626,0
DA:4629,0
DA:4630,0
DA:4633,0
DA:4634,0
DA:4636,0
DA:4637,0
DA:4639,0
DA:4640,0
DA:4643,0
DA:4644,0
DA:4645,0
DA:4646,0
DA:4647,0
DA:4649,0
DA:4650,0
DA:4651,0
DA:4652,0
DA:4653,0
DA:4655,0
DA:4657,0
DA:4658,0
DA:4661,0
DA:4662,0
DA:4663,0
DA:4664,0
DA:4665,0
DA:4666,0
DA:4668,0
DA:4669,0
DA:4670,0
DA:4671,0
DA:4672,0
DA:4674,0
DA:4676,0
DA:4677,0
DA:4680,0
DA:4681,0
DA:4682,0
DA:4683,0
DA:4684,0
DA:4685,0
DA:4686,0
DA:4688,0
DA:4689,0
DA:4690,0
DA:4691,0
DA:4692,0
DA:4694,0
DA:4696,0
DA:4697,0
DA:4700,0
DA:4701,0
DA:4702,0
DA:4703,0
DA:4704,0
DA:4705,0
DA:4706,0
DA:4707,0
DA:4709,0
DA:4710,0
DA:4711,0
DA:4712,0
DA:4713,0
DA:4715,0
DA:4717,0
DA:4718,0
DA:4721,0
DA:4723,0
DA:4724,0
DA:4726,0
DA:4727,0
DA:4728,0
DA:4730,0
DA:4732,0
DA:4733,0
DA:4734,0
DA:4738,0
DA:4739,0
DA:4741,0
DA:4742,0
DA:4743,0
DA:4746,0
DA:4747,0
DA:4749,0
DA:4750,0
DA:4753,0
DA:4754,0
DA:4755,0
DA:4757,0
DA:4758,0
DA:4760,0
DA:4761,0
DA:4762,0
DA:4763,0
DA:4764,0
DA:4765,0
DA:4767,0
DA:4768,0
DA:4769,0
DA:4770,0
DA:4771,0
DA:4773,0
DA:4774,0
DA:4775,0
DA:4777,0
DA:4778,0
DA:4779,0
DA:4780,0
DA:4781,0
DA:4782,0
DA:4783,0
DA:4785,0
DA:4786,0
DA:4789,0
DA:4790,0
DA:4791,0
DA:4792,0
DA:4794,0
DA:4795,0
DA:4798,0
DA:4799,0
DA:4800,0
DA:4801,0
DA:4803,0
DA:4804,0
DA:4807,0
DA:4808,0
DA:4809,0
DA:4810,0
DA:4812,0
DA:4813,0
DA:4814,0
DA:4815,0
DA:4816,0
DA:4817,0
DA:4818,0
DA:4820,0
DA:4821,0
DA:4822,0
DA:4823,0
DA:4824,0
DA:4825,0
DA:4826,0
DA:4827,0
DA:4828,0
DA:4829,0
DA:4831,0
DA:4832,0
DA:4833,0
DA:4835,0
DA:4837,0
DA:4838,0
DA:4840,0
DA:4841,0
DA:4842,0
DA:4844,0
DA:4846,0
DA:4847,0
DA:4849,0
DA:4850,0
DA:4851,0
DA:4853,0
DA:4855,0
DA:4857,0
DA:4858,0
DA:4872,0
DA:4874,0
DA:4875,0
DA:4876,0
DA:4879,0
DA:4880,0
DA:4881,0
DA:4885,0
DA:4887,0
DA:4888,0
DA:4889,0
DA:4890,0
DA:4891,0
DA:4893,0
DA:4894,0
DA:4896,0
DA:4897,0
DA:4898,0
DA:4899,0
DA:4901,0
DA:4902,0
DA:4903,0
DA:4904,0
DA:4905,0
DA:4909,0
DA:4910,0
DA:4911,0
DA:4912,0
DA:4913,0
DA:4914,0
DA:4915,0
DA:4916,0
DA:4917,0
DA:4919,0
DA:4923,0
DA:4924,0
DA:4925,0
DA:4926,0
DA:4927,0
DA:4928,0
DA:4929,0
DA:4930,0
DA:4931,0
DA:4933,0
DA:4935,0
DA:4936,0
DA:4938,0
DA:4939,0
DA:4940,0
DA:4943,0
DA:4944,0
DA:4945,0
DA:4946,0
DA:4950,0
DA:4951,0
DA:4952,0
DA:4953,0
DA:4956,0
DA:4957,0
DA:4958,0
DA:4959,0
DA:4961,0
DA:4963,0
DA:4964,0
DA:4965,0
DA:4968,0
DA:4969,0
DA:4970,0
DA:4972,0
DA:4973,0
DA:4974,0
DA:4975,0
DA:4977,0
DA:4978,0
DA:4979,0
DA:4980,0
DA:4983,0
DA:4984,0
DA:4985,0
DA:4987,0
DA:4989,0
DA:4990,0
DA:4992,0
DA:4993,0
DA:4995,0
DA:4997,0
DA:4998,0
DA:4999,0
DA:5003,0
DA:5004,0
DA:5005,0
DA:5007,0
DA:5008,0
DA:5010,0
DA:5011,0
DA:5012,0
DA:5013,0
DA:5015,0
DA:5016,0
DA:5017,0
DA:5018,0
DA:5020,0
DA:5021,0
DA:5022,0
DA:5023,0
DA:5024,0
DA:5026,0
DA:5027,0
DA:5028,0
DA:5031,0
DA:5032,0
DA:5033,0
DA:5036,0
DA:5037,0
DA:5038,0
DA:5040,0
DA:5041,0
DA:5042,0
DA:5044,0
DA:5045,0
DA:5046,0
DA:5047,0
DA:5048,0
DA:5050,0
DA:5051,0
DA:5052,0
DA:5053,0
DA:5054,0
DA:5056,0
DA:5058,0
DA:5059,0
DA:5062,0
DA:5063,0
DA:5064,0
DA:5065,0
DA:5066,0
DA:5067,0
DA:5069,0
DA:5070,0
DA:5071,0
DA:5072,0
DA:5073,0
DA:5075,0
DA:5077,0
DA:5078,0
DA:5081,0
DA:5082,0
DA:5083,0
DA:5084,0
DA:5085,0
DA:5087,0
DA:5088,0
DA:5089,0
DA:5090,0
DA:5091,0
DA:5093,0
DA:5095,0
DA:5096,0
DA:5099,0
DA:5100,0
DA:5101,0
DA:5102,0
DA:5103,0
DA:5104,0
DA:5106,0
DA:5107,0
DA:5108,0
DA:5109,0
DA:5110,0
DA:5112,0
DA:5114,0
DA:5115,0
DA:5118,0
DA:5119,0
DA:5120,0
DA:5121,0
DA:5122,0
DA:5123,0
DA:5125,0
DA:5127,0
DA:5129,0
DA:5130,0
DA:5131,0
DA:5132,0
DA:5133,0
DA:5134,0
DA:5136,0
DA:5137,0
DA:5138,0
DA:5139,0
DA:5140,0
DA:5142,0
DA:5144,0
DA:5145,0
DA:5148,0
DA:5149,0
DA:5150,0
DA:5151,0
DA:5152,0
DA:5153,0
DA:5154,0
DA:5155,0
DA:5157,0
DA:5158,0
DA:5159,0
DA:5160,0
DA:5161,0
DA:5163,0
DA:5165,0
DA:5166,0
DA:5169,0
DA:5170,0
DA:5171,0
DA:5172,0
DA:5173,0
DA:5175,0
DA:5176,0
DA:5178,0
DA:5179,0
DA:5181,0
DA:5182,0
DA:5184,0
DA:5185,0
DA:5186,0
DA:5189,0
DA:5190,0
DA:5192,0
DA:5193,0
DA:5196,0
DA:5197,0
DA:5198,0
DA:5199,0
DA:5200,0
DA:5202,0
DA:5203,0
DA:5205,0
DA:5206,0
DA:5207,0
DA:5209,0
DA:5210,0
DA:5212,0
DA:5214,0
DA:5215,0
DA:5216,0
DA:5217,0
DA:5218,0
DA:5219,0
DA:5220,0
DA:5222,0
DA:5223,0
DA:5226,0
DA:5227,0
DA:5228,0
DA:5229,0
DA:5231,0
DA:5232,0
DA:5233,0
DA:5235,0
DA:5236,0
DA:5237,0
DA:5238,0
DA:5239,0
DA:5240,0
DA:5241,0
DA:5242,0
DA:5243,0
DA:5244,0
DA:5245,0
DA:5246,0
DA:5248,0
DA:5249,0
DA:5250,0
DA:5252,0
DA:5254,0
DA:5256,0
DA:5257,0
DA:5271,0
DA:5273,0
DA:5274,0
DA:5275,0
DA:5279,0
DA:5281,0
DA:5282,0
DA:5283,0
DA:5285,0
DA:5286,0
DA:5287,0
DA:5288,0
DA:5290,0
DA:5291,0
DA:5292,0
DA:5293,0
DA:5294,0
DA:5298,0
DA:5299,0
DA:5300,0
DA:5301,0
DA:5302,0
DA:5303,0
DA:5304,0
DA:5305,0
DA:5306,0
DA:5308,0
DA:5310,0
DA:5311,0
DA:5313,0
DA:5314,0
DA:5315,0
DA:5318,0
DA:5319,0
DA:5320,0
DA:5321,0
DA:5324,0
DA:5325,0
DA:5326,0
DA:5327,0
DA:5329,0
DA:5331,0
DA:5332,0
DA:5335,0
DA:5336,0
DA:5337,0
DA:5338,0
DA:5339,0
DA:5341,0
DA:5342,0
DA:5343,0
DA:5344,0
DA:5346,0
DA:5348,0
DA:5349,0
DA:5350,0
DA:5352,0
DA:5354,0
DA:5355,0
DA:5356,0
DA:5358,0
DA:5359,0
DA:5361,0
DA:5362,0
DA:5363,0
DA:5364,0
DA:5365,0
DA:5366,0
DA:5368,0
DA:5369,0
DA:5370,0
DA:5371,0
DA:5373,0
DA:5374,0
DA:5375,0
DA:5378,0
DA:5379,0
DA:5380,0
DA:5382,0
DA:5383,0
DA:5384,0
DA:5385,0
DA:5387,0
DA:5388,0
DA:5389,0
DA:5390,0
DA:5391,0
DA:5393,0
DA:5395,0
DA:5396,0
DA:5399,0
DA:5400,0
DA:5401,0
DA:5402,0
DA:5403,0
DA:5405,0
DA:5406,0
DA:5407,0
DA:5408,0
DA:5409,0
DA:5411,0
DA:5413,0
DA:5414,0
DA:5417,0
DA:5418,0
DA:5419,0
DA:5420,0
DA:5422,0
DA:5423,0
DA:5424,0
DA:5425,0
DA:5426,0
DA:5428,0
DA:5430,0
DA:5431,0
DA:5434,0
DA:5435,0
DA:5436,0
DA:5437,0
DA:5438,0
DA:5440,0
DA:5441,0
DA:5442,0
DA:5443,0
DA:5444,0
DA:5446,0
DA:5448,0
DA:5449,0
DA:5452,0
DA:5453,0
DA:5454,0
DA:5455,0
DA:5456,0
DA:5457,0
DA:5459,0
DA:5461,0
DA:5463,0
DA:5464,0
DA:5465,0
DA:5466,0
DA:5467,0
DA:5468,0
DA:5470,0
DA:5471,0
DA:5472,0
DA:5473,0
DA:5474,0
DA:5476,0
DA:5478,0
DA:5479,0
DA:5482,0
DA:5483,0
DA:5484,0
DA:5485,0
DA:5486,0
DA:5487,0
DA:5488,0
DA:5489,0
DA:5491,0
DA:5492,0
DA:5493,0
DA:5494,0
DA:5495,0
DA:5497,0
DA:5499,0
DA:5500,0
DA:5503,0
DA:5504,0
DA:5505,0
DA:5507,0
DA:5508,0
DA:5510,0
DA:5511,0
DA:5513,0
DA:5514,0
DA:5515,0
DA:5518,0
DA:5519,0
DA:5521,0
DA:5522,0
DA:5525,0
DA:5526,0
DA:5527,0
DA:5528,0
DA:5530,0
DA:5531,0
DA:5533,0
DA:5535,0
DA:5536,0
DA:5537,0
DA:5538,0
DA:5539,0
DA:5540,0
DA:5541,0
DA:5543,0
DA:5544,0
DA:5547,0
DA:5548,0
DA:5549,0
DA:5550,0
DA:5552,0
DA:5553,0
DA:5554,0
DA:5556,0
DA:5557,0
DA:5558,0
DA:5559,0
DA:5560,0
DA:5561,0
DA:5562,0
DA:5563,0
DA:5565,0
DA:5566,0
DA:5567,0
DA:5569,0
DA:5571,0
DA:5573,0
DA:5574,0
DA:5588,0
DA:5590,0
DA:5591,0
DA:5592,0
DA:5595,0
DA:5596,0
DA:5597,0
DA:5600,0
DA:5601,0
DA:5602,0
DA:5605,0
DA:5606,0
DA:5607,0
DA:5610,0
DA:5611,0
DA:5612,0
DA:5613,0
DA:5616,0
DA:5618,0
DA:5619,0
DA:5620,0
DA:5621,0
DA:5622,0
DA:5623,0
DA:5624,0
DA:5625,0
DA:5627,0
DA:5628,0
DA:5630,0
DA:5631,0
DA:5633,0
DA:5634,0
DA:5636,0
DA:5637,0
DA:5639,0
DA:5640,0
DA:5641,0
DA:5642,0
DA:5644,0
DA:5645,0
DA:5646,0
DA:5647,0
DA:5648,0
DA:5652,0
DA:5653,0
DA:5654,0
DA:5655,0
DA:5656,0
DA:5657,0
DA:5658,0
DA:5659,0
DA:5660,0
DA:5662,0
DA:5666,0
DA:5667,0
DA:5668,0
DA:5669,0
DA:5670,0
DA:5671,0
DA:5672,0
DA:5673,0
DA:5674,0
DA:5676,0
DA:5680,0
DA:5681,0
DA:5682,0
DA:5683,0
DA:5684,0
DA:5685,0
DA:5686,0
DA:5687,0
DA:5688,0
DA:5690,0
DA:5694,0
DA:5695,0
DA:5696,0
DA:5697,0
DA:5698,0
DA:5699,0
DA:5700,0
DA:5701,0
DA:5702,0
DA:5704,0
DA:5708,0
DA:5709,0
DA:5710,0
DA:5711,0
DA:5712,0
DA:5713,0
DA:5714,0
DA:5715,0
DA:5716,0
DA:5718,0
DA:5720,0
DA:5721,0
DA:5723,0
DA:5724,0
DA:5725,0
DA:5728,0
DA:5729,0
DA:5730,0
DA:5731,0
DA:5735,0
DA:5736,0
DA:5737,0
DA:5738,0
DA:5742,0
DA:5743,0
DA:5744,0
DA:5745,0
DA:5749,0
DA:5750,0
DA:5751,0
DA:5752,0
DA:5756,0
DA:5757,0
DA:5758,0
DA:5759,0
DA:5762,0
DA:5763,0
DA:5764,0
DA:5765,0
DA:5767,0
DA:5769,0
DA:5770,0
DA:5771,0
DA:5772,0
DA:5773,0
DA:5774,0
DA:5777,0
DA:5778,0
DA:5779,0
DA:5781,0
DA:5782,0
DA:5784,0
DA:5785,0
DA:5787,0
DA:5788,0
DA:5790,0
DA:5791,0
DA:5792,0
DA:5793,0
DA:5795,0
DA:5796,0
DA:5797,0
DA:5798,0
DA:5801,0
DA:5802,0
DA:5803,0
DA:5806,0
DA:5807,0
DA:5808,0
DA:5811,0
DA:5812,0
DA:5813,0
DA:5816,0
DA:5817,0
DA:5818,0
DA:5820,0
DA:5822,0
DA:5823,0
DA:5825,0
DA:5827,0
DA:5829,0
DA:5831,0
DA:5832,0
DA:5834,0
DA:5836,0
DA:5837,0
DA:5838,0
DA:5842,0
DA:5843,0
DA:5844,0
DA:5848,0
DA:5849,0
DA:5850,0
DA:5854,0
DA:5855,0
DA:5856,0
DA:5860,0
DA:5861,0
DA:5862,0
DA:5864,0
DA:5865,0
DA:5867,0
DA:5868,0
DA:5869,0
DA:5870,0
DA:5872,0
DA:5873,0
DA:5875,0
DA:5876,0
DA:5878,0
DA:5879,0
DA:5881,0
DA:5882,0
DA:5883,0
DA:5884,0
DA:5886,0
DA:5887,0
DA:5889,0
DA:5891,0
DA:5892,0
DA:5894,0
DA:5895,0
DA:5896,0
DA:5898,0
DA:5899,0
DA:5900,0
DA:5903,0
DA:5904,0
DA:5905,0
DA:5908,0
DA:5909,0
DA:5910,0
DA:5913,0
DA:5914,0
DA:5915,0
DA:5918,0
DA:5919,0
DA:5920,0
DA:5921,0
DA:5923,0
DA:5924,0
DA:5925,0
DA:5927,0
DA:5928,0
DA:5929,0
DA:5931,0
DA:5932,0
DA:5933,0
DA:5934,0
DA:5936,0
DA:5937,0
DA:5939,0
DA:5940,0
DA:5941,0
DA:5942,0
DA:5943,0
DA:5944,0
DA:5945,0
DA:5946,0
DA:5947,0
DA:5948,0
DA:5949,0
DA:5950,0
DA:5951,0
DA:5952,0
DA:5954,0
DA:5955,0
DA:5956,0
DA:5957,0
DA:5958,0
DA:5960,0
DA:5962,0
DA:5963,0
DA:5966,0
DA:5967,0
DA:5968,0
DA:5969,0
DA:5970,0
DA:5971,0
DA:5972,0
DA:5973,0
DA:5974,0
DA:5975,0
DA:5976,0
DA:5977,0
DA:5978,0
DA:5979,0
DA:5980,0
DA:5981,0
DA:5983,0
DA:5984,0
DA:5985,0
DA:5986,0
DA:5987,0
DA:5989,0
DA:5991,0
DA:5992,0
DA:5995,0
DA:5996,0
DA:5997,0
DA:5998,0
DA:5999,0
DA:6000,0
DA:6001,0
DA:6002,0
DA:6003,0
DA:6004,0
DA:6005,0
DA:6006,0
DA:6007,0
DA:6008,0
DA:6010,0
DA:6011,0
DA:6012,0
DA:6013,0
DA:6014,0
DA:6016,0
DA:6018,0
DA:6019,0
DA:6022,0
DA:6023,0
DA:6024,0
DA:6025,0
DA:6026,0
DA:6027,0
DA:6028,0
DA:6029,0
DA:6030,0
DA:6031,0
DA:6032,0
DA:6033,0
DA:6034,0
DA:6035,0
DA:6036,0
DA:6037,0
DA:6039,0
DA:6040,0
DA:6041,0
DA:6042,0
DA:6043,0
DA:6045,0
DA:6047,0
DA:6048,0
DA:6051,0
DA:6052,0
DA:6053,0
DA:6054,0
DA:6055,0
DA:6056,0
DA:6057,0
DA:6058,0
DA:6060,0
DA:6062,0
DA:6064,0
DA:6065,0
DA:6066,0
DA:6067,0
DA:6068,0
DA:6069,0
DA:6071,0
DA:6072,0
DA:6073,0
DA:6074,0
DA:6075,0
DA:6077,0
DA:6079,0
DA:6080,0
DA:6083,0
DA:6084,0
DA:6085,0
DA:6086,0
DA:6087,0
DA:6088,0
DA:6089,0
DA:6090,0
DA:6091,0
DA:6092,0
DA:6094,0
DA:6095,0
DA:6096,0
DA:6097,0
DA:6098,0
DA:6100,0
DA:6102,0
DA:6103,0
DA:6106,0
DA:6107,0
DA:6108,0
DA:6109,0
DA:6110,0
DA:6111,0
DA:6112,0
DA:6113,0
DA:6115,0
DA:6116,0
DA:6118,0
DA:6119,0
DA:6121,0
DA:6122,0
DA:6124,0
DA:6125,0
DA:6127,0
DA:6128,0
DA:6130,0
DA:6132,0
DA:6133,0
DA:6134,0
DA:6136,0
DA:6137,0
DA:6139,0
DA:6140,0
DA:6143,0
DA:6144,0
DA:6145,0
DA:6146,0
DA:6148,0
DA:6149,0
DA:6150,0
DA:6151,0
DA:6152,0
DA:6154,0
DA:6155,0
DA:6157,0
DA:6159,0
DA:6160,0
DA:6161,0
DA:6162,0
DA:6163,0
DA:6164,0
DA:6165,0
DA:6168,0
DA:6169,0
DA:6170,0
DA:6171,0
DA:6172,0
DA:6174,0
DA:6175,0
DA:6176,0
DA:6177,0
DA:6178,0
DA:6179,0
DA:6180,0
DA:6181,0
DA:6182,0
DA:6183,0
DA:6184,0
DA:6185,0
DA:6186,0
DA:6200,0
DA:6203,0
DA:6205,0
DA:6206,0
DA:6209,0
DA:6210,0
DA:6211,0
DA:6212,0
DA:6213,0
DA:6214,0
DA:6215,0
DA:6216,0
DA:6218,0
DA:6219,0
DA:6220,0
DA:6221,0
DA:6222,0
DA:6224,0
DA:6225,0
DA:6227,0
DA:6228,0
DA:6229,0
DA:6231,0
DA:6232,0
DA:6233,0
DA:6234,0
DA:6236,0
DA:6238,0
DA:6241,0
DA:6242,0
DA:6245,0
DA:6246,0
DA:6248,0
DA:6249,0
DA:6251,0
DA:6252,0
DA:6255,0
DA:6256,0
DA:6257,0
DA:6258,0
DA:6259,0
DA:6260,0
DA:6262,0
DA:6263,0
DA:6264,0
DA:6265,0
DA:6266,0
DA:6268,0
DA:6270,0
DA:6271,0
DA:6274,0
DA:6275,0
DA:6276,0
DA:6277,0
DA:6278,0
DA:6279,0
DA:6281,0
DA:6282,0
DA:6283,0
DA:6284,0
DA:6285,0
DA:6287,0
DA:6289,0
DA:6290,0
DA:6293,0
DA:6294,0
DA:6295,0
DA:6296,0
DA:6297,0
DA:6298,0
DA:6299,0
DA:6301,0
DA:6302,0
DA:6303,0
DA:6304,0
DA:6305,0
DA:6307,0
DA:6309,0
DA:6310,0
DA:6313,0
DA:6314,0
DA:6315,0
DA:6316,0
DA:6317,0
DA:6318,0
DA:6319,0
DA:6320,0
DA:6322,0
DA:6323,0
DA:6324,0
DA:6325,0
DA:6326,0
DA:6328,0
DA:6330,0
DA:6331,0
DA:6334,0
DA:6336,0
DA:6337,0
DA:6339,0
DA:6340,0
DA:6341,0
DA:6343,0
DA:6345,0
DA:6346,0
DA:6347,0
DA:6351,0
DA:6352,0
DA:6354,0
DA:6355,0
DA:6356,0
DA:6358,0
DA:6360,0
DA:6361,0
DA:6362,0
DA:6365,0
DA:6366,0
DA:6368,0
DA:6369,0
DA:6372,0
DA:6373,0
DA:6374,0
DA:6376,0
DA:6377,0
DA:6379,0
DA:6380,0
DA:6381,0
DA:6382,0
DA:6383,0
DA:6384,0
DA:6385,0
DA:6386,0
DA:6388,0
DA:6389,0
DA:6390,0
DA:6391,0
DA:6392,0
DA:6394,0
DA:6395,0
DA:6396,0
DA:6398,0
DA:6399,0
DA:6400,0
DA:6401,0
DA:6402,0
DA:6403,0
DA:6404,0
DA:6406,0
DA:6407,0
DA:6410,0
DA:6411,0
DA:6412,0
DA:6413,0
DA:6415,0
DA:6416,0
DA:6419,0
DA:6420,0
DA:6421,0
DA:6422,0
DA:6424,0
DA:6425,0
DA:6428,0
DA:6429,0
DA:6430,0
DA:6431,0
DA:6433,0
DA:6434,0
DA:6437,0
DA:6438,0
DA:6439,0
DA:6440,0
DA:6442,0
DA:6443,0
DA:6444,0
DA:6445,0
DA:6446,0
DA:6447,0
DA:6448,0
DA:6449,0
DA:6451,0
DA:6452,0
DA:6453,0
DA:6454,0
DA:6455,0
DA:6456,0
DA:6457,0
DA:6458,0
DA:6459,0
DA:6460,0
DA:6462,0
DA:6463,0
DA:6464,0
DA:6466,0
DA:6468,0
DA:6469,0
DA:6471,0
DA:6472,0
DA:6473,0
DA:6475,0
DA:6477,0
DA:6478,0
DA:6480,0
DA:6481,0
DA:6482,0
DA:6484,0
DA:6486,0
DA:6487,0
DA:6489,0
DA:6490,0
DA:6491,0
DA:6493,0
DA:6495,0
DA:6509,0
DA:6511,0
DA:6512,0
DA:6513,0
DA:6514,0
DA:6515,0
DA:6519,0
DA:6524,0
DA:6525,0
DA:6526,0
DA:6529,0
DA:6530,0
DA:6531,0
DA:6534,0
DA:6535,0
DA:6536,0
DA:6537,0
DA:6539,0
DA:6540,0
DA:6541,0
DA:6545,0
DA:6547,0
DA:6548,0
DA:6549,0
DA:6550,0
DA:6551,0
DA:6552,0
DA:6553,0
DA:6555,0
DA:6556,0
DA:6558,0
DA:6559,0
DA:6561,0
DA:6562,0
DA:6563,0
DA:6564,0
DA:6566,0
DA:6567,0
DA:6568,0
DA:6569,0
DA:6570,0
DA:6574,0
DA:6579,0
DA:6580,0
DA:6581,0
DA:6584,0
DA:6585,0
DA:6586,0
DA:6587,0
DA:6588,0
DA:6590,0
DA:6591,0
DA:6592,0
DA:6593,0
DA:6594,0
DA:6598,0
DA:6599,0
DA:6600,0
DA:6601,0
DA:6602,0
DA:6603,0
DA:6604,0
DA:6605,0
DA:6606,0
DA:6608,0
DA:6612,0
DA:6613,0
DA:6614,0
DA:6615,0
DA:6616,0
DA:6617,0
DA:6618,0
DA:6619,0
DA:6620,0
DA:6622,0
DA:6626,0
DA:6627,0
DA:6628,0
DA:6629,0
DA:6630,0
DA:6631,0
DA:6632,0
DA:6633,0
DA:6634,0
DA:6636,0
DA:6638,0
DA:6639,0
DA:6641,0
DA:6642,0
DA:6643,0
DA:6646,0
DA:6647,0
DA:6648,0
DA:6649,0
DA:6653,0
DA:6654,0
DA:6655,0
DA:6656,0
DA:6660,0
DA:6661,0
DA:6662,0
DA:6663,0
DA:6666,0
DA:6667,0
DA:6668,0
DA:6669,0
DA:6671,0
DA:6673,0
DA:6674,0
DA:6675,0
DA:6676,0
DA:6679,0
DA:6680,0
DA:6681,0
DA:6683,0
DA:6684,0
DA:6686,0
DA:6687,0
DA:6688,0
DA:6689,0
DA:6691,0
DA:6692,0
DA:6693,0
DA:6694,0
DA:6697,0
DA:6698,0
DA:6699,0
DA:6702,0
DA:6703,0
DA:6704,0
DA:6706,0
DA:6708,0
DA:6709,0
DA:6711,0
DA:6713,0
DA:6714,0
DA:6716,0
DA:6718,0
DA:6719,0
DA:6720,0
DA:6724,0
DA:6725,0
DA:6726,0
DA:6730,0
DA:6731,0
DA:6732,0
DA:6734,0
DA:6735,0
DA:6737,0
DA:6738,0
DA:6739,0
DA:6740,0
DA:6742,0
DA:6743,0
DA:6745,0
DA:6746,0
DA:6747,0
DA:6748,0
DA:6750,0
DA:6751,0
DA:6752,0
DA:6753,0
DA:6754,0
DA:6755,0
DA:6757,0
DA:6758,0
DA:6759,0
DA:6762,0
DA:6763,0
DA:6764,0
DA:6765,0
DA:6767,0
DA:6768,0
DA:6769,0
DA:6772,0
DA:6773,0
DA:6774,0
DA:6776,0
DA:6777,0
DA:6778,0
DA:6780,0
DA:6781,0
DA:6782,0
DA:6784,0
DA:6785,0
DA:6786,0
DA:6787,0
DA:6788,0
DA:6789,0
DA:6790,0
DA:6791,0
DA:6792,0
DA:6793,0
DA:6795,0
DA:6796,0
DA:6797,0
DA:6798,0
DA:6799,0
DA:6801,0
DA:6803,0
DA:6804,0
DA:6807,0
DA:6808,0
DA:6809,0
DA:6810,0
DA:6811,0
DA:6812,0
DA:6813,0
DA:6814,0
DA:6815,0
DA:6816,0
DA:6817,0
DA:6819,0
DA:6820,0
DA:6821,0
DA:6822,0
DA:6823,0
DA:6825,0
DA:6827,0
DA:6828,0
DA:6831,0
DA:6832,0
DA:6833,0
DA:6834,0
DA:6835,0
DA:6836,0
DA:6837,0
DA:6838,0
DA:6839,0
DA:6840,0
DA:6842,0
DA:6843,0
DA:6844,0
DA:6845,0
DA:6846,0
DA:6848,0
DA:6850,0
DA:6851,0
DA:6854,0
DA:6855,0
DA:6856,0
DA:6857,0
DA:6858,0
DA:6859,0
DA:6860,0
DA:6861,0
DA:6862,0
DA:6863,0
DA:6864,0
DA:6866,0
DA:6867,0
DA:6868,0
DA:6869,0
DA:6870,0
DA:6872,0
DA:6874,0
DA:6875,0
DA:6878,0
DA:6879,0
DA:6880,0
DA:6881,0
DA:6882,0
DA:6883,0
DA:6885,0
DA:6887,0
DA:6889,0
DA:6890,0
DA:6891,0
DA:6892,0
DA:6893,0
DA:6894,0
DA:6896,0
DA:6897,0
DA:6898,0
DA:6899,0
DA:6900,0
DA:6902,0
DA:6904,0
DA:6905,0
DA:6908,0
DA:6909,0
DA:6910,0
DA:6911,0
DA:6912,0
DA:6913,0
DA:6914,0
DA:6915,0
DA:6917,0
DA:6918,0
DA:6919,0
DA:6920,0
DA:6921,0
DA:6923,0
DA:6925,0
DA:6926,0
DA:6929,0
DA:6930,0
DA:6931,0
DA:6932,0
DA:6933,0
DA:6934,0
DA:6935,0
DA:6937,0
DA:6938,0
DA:6940,0
DA:6941,0
DA:6943,0
DA:6944,0
DA:6946,0
DA:6947,0
DA:6949,0
DA:6950,0
DA:6951,0
DA:6953,0
DA:6955,0
DA:6956,0
DA:6957,0
DA:6959,0
DA:6961,0
DA:6962,0
DA:6963,0
DA:6966,0
DA:6967,0
DA:6968,0
DA:6972,0
DA:6973,0
DA:6975,0
DA:6976,0
DA:6977,0
DA:6980,0
DA:6981,0
DA:6983,0
DA:6984,0
DA:6987,0
DA:6988,0
DA:6989,0
DA:6991,0
DA:6992,0
DA:6994,0
DA:6995,0
DA:6997,0
DA:6998,0
DA:6999,0
DA:7000,0
DA:7001,0
DA:7002,0
DA:7003,0
DA:7005,0
DA:7006,0
DA:7007,0
DA:7008,0
DA:7009,0
DA:7011,0
DA:7012,0
DA:7013,0
DA:7014,0
DA:7017,0
DA:7018,0
DA:7020,0
DA:7021,0
DA:7022,0
DA:7023,0
DA:7024,0
DA:7025,0
DA:7027,0
DA:7028,0
DA:7029,0
DA:7030,0
DA:7031,0
DA:7033,0
DA:7034,0
DA:7036,0
DA:7038,0
DA:7039,0
DA:7040,0
DA:7041,0
DA:7042,0
DA:7043,0
DA:7044,0
DA:7046,0
DA:7047,0
DA:7050,0
DA:7051,0
DA:7052,0
DA:7053,0
DA:7055,0
DA:7056,0
DA:7059,0
DA:7060,0
DA:7061,0
DA:7062,0
DA:7064,0
DA:7065,0
DA:7068,0
DA:7069,0
DA:7070,0
DA:7071,0
DA:7073,0
DA:7074,0
DA:7075,0
DA:7076,0
DA:7077,0
DA:7078,0
DA:7079,0
DA:7080,0
DA:7081,0
DA:7082,0
DA:7084,0
DA:7085,0
DA:7086,0
DA:7087,0
DA:7088,0
DA:7089,0
DA:7090,0
DA:7091,0
DA:7092,0
DA:7093,0
DA:7094,0
DA:7095,0
DA:7096,0
DA:7097,0
DA:7098,0
DA:7099,0
DA:7100,0
DA:7101,0
DA:7102,0
DA:7103,0
DA:7105,0
DA:7106,0
DA:7107,0
DA:7109,0
DA:7111,0
DA:7112,0
DA:7114,0
DA:7115,0
DA:7116,0
DA:7118,0
DA:7120,0
DA:7121,0
DA:7123,0
DA:7124,0
DA:7125,0
DA:7127,0
DA:7129,0
DA:7143,0
DA:7145,0
DA:7146,0
DA:7147,0
DA:7148,0
DA:7149,0
DA:7153,0
DA:7158,0
DA:7159,0
DA:7160,0
DA:7164,0
DA:7166,0
DA:7167,0
DA:7170,0
DA:7171,0
DA:7172,0
DA:7173,0
DA:7174,0
DA:7178,0
DA:7183,0
DA:7184,0
DA:7185,0
DA:7188,0
DA:7189,0
DA:7190,0
DA:7191,0
DA:7192,0
DA:7194,0
DA:7195,0
DA:7196,0
DA:7197,0
DA:7198,0
DA:7200,0
DA:7201,0
DA:7203,0
DA:7204,0
DA:7205,0
DA:7207,0
DA:7208,0
DA:7209,0
DA:7210,0
DA:7212,0
DA:7214,0
DA:7217,0
DA:7218,0
DA:7221,0
DA:7222,0
DA:7224,0
DA:7225,0
DA:7227,0
DA:7228,0
DA:7231,0
DA:7232,0
DA:7233,0
DA:7234,0
DA:7235,0
DA:7236,0
DA:7238,0
DA:7239,0
DA:7240,0
DA:7241,0
DA:7242,0
DA:7244,0
DA:7246,0
DA:7247,0
DA:7250,0
DA:7251,0
DA:7252,0
DA:7253,0
DA:7254,0
DA:7255,0
DA:7256,0
DA:7257,0
DA:7259,0
DA:7260,0
DA:7261,0
DA:7262,0
DA:7263,0
DA:7265,0
DA:7267,0
DA:7268,0
DA:7271,0
DA:7272,0
DA:7273,0
DA:7274,0
DA:7275,0
DA:7276,0
DA:7277,0
DA:7278,0
DA:7279,0
DA:7281,0
DA:7282,0
DA:7283,0
DA:7284,0
DA:7285,0
DA:7287,0
DA:7289,0
DA:7290,0
DA:7293,0
DA:7294,0
DA:7295,0
DA:7296,0
DA:7297,0
DA:7298,0
DA:7299,0
DA:7300,0
DA:7301,0
DA:7302,0
DA:7304,0
DA:7305,0
DA:7306,0
DA:7307,0
DA:7308,0
DA:7310,0
DA:7312,0
DA:7313,0
DA:7316,0
DA:7318,0
DA:7319,0
DA:7321,0
DA:7322,0
DA:7323,0
DA:7325,0
DA:7327,0
DA:7328,0
DA:7329,0
DA:7332,0
DA:7333,0
DA:7334,0
DA:7338,0
DA:7340,0
DA:7341,0
DA:7342,0
DA:7344,0
DA:7345,0
DA:7347,0
DA:7348,0
DA:7351,0
DA:7352,0
DA:7353,0
DA:7355,0
DA:7356,0
DA:7357,0
DA:7358,0
DA:7360,0
DA:7361,0
DA:7363,0
DA:7364,0
DA:7365,0
DA:7366,0
DA:7367,0
DA:7370,0
DA:7371,0
DA:7372,0
DA:7373,0
DA:7375,0
DA:7378,0
DA:7379,0
DA:7381,0
DA:7382,0
DA:7383,0
DA:7384,0
DA:7385,0
DA:7386,0
DA:7388,0
DA:7389,0
DA:7392,0
DA:7394,0
DA:7395,0
DA:7396,0
DA:7397,0
DA:7398,0
DA:7399,0
DA:7401,0
DA:7403,0
DA:7404,0
DA:7405,0
DA:7406,0
DA:7407,0
DA:7408,0
DA:7409,0
DA:7412,0
DA:7413,0
DA:7414,0
DA:7415,0
DA:7416,0
DA:7417,0
DA:7418,0
DA:7419,0
DA:7420,0
DA:7422,0
DA:7423,0
DA:7424,0
DA:7425,0
DA:7426,0
DA:7428,0
DA:7429,0
DA:7430,0
DA:7432,0
DA:7434,0
DA:7435,0
DA:7436,0
DA:7437,0
DA:7438,0
DA:7439,0
DA:7440,0
DA:7441,0
DA:7442,0
DA:7443,0
DA:7444,0
DA:7445,0
DA:7446,0
DA:7447,0
DA:7461,0
DA:7463,0
DA:7464,0
DA:7465,0
DA:7466,0
DA:7467,0
DA:7471,0
DA:7476,0
DA:7477,0
DA:7478,0
DA:7482,0
DA:7484,0
DA:7485,0
DA:7488,0
DA:7489,0
DA:7490,0
DA:7491,0
DA:7492,0
DA:7496,0
DA:7501,0
DA:7502,0
DA:7503,0
DA:7506,0
DA:7507,0
DA:7508,0
DA:7509,0
DA:7510,0
DA:7512,0
DA:7513,0
DA:7514,0
DA:7515,0
DA:7516,0
DA:7518,0
DA:7519,0
DA:7521,0
DA:7522,0
DA:7523,0
DA:7525,0
DA:7526,0
DA:7527,0
DA:7528,0
DA:7530,0
DA:7532,0
DA:7535,0
DA:7536,0
DA:7539,0
DA:7540,0
DA:7542,0
DA:7543,0
DA:7545,0
DA:7546,0
DA:7549,0
DA:7550,0
DA:7551,0
DA:7552,0
DA:7554,0
DA:7555,0
DA:7556,0
DA:7557,0
DA:7558,0
DA:7560,0
DA:7562,0
DA:7563,0
DA:7566,0
DA:7567,0
DA:7568,0
DA:7569,0
DA:7570,0
DA:7571,0
DA:7573,0
DA:7574,0
DA:7575,0
DA:7576,0
DA:7577,0
DA:7579,0
DA:7581,0
DA:7582,0
DA:7585,0
DA:7586,0
DA:7587,0
DA:7588,0
DA:7589,0
DA:7590,0
DA:7591,0
DA:7593,0
DA:7594,0
DA:7595,0
DA:7596,0
DA:7597,0
DA:7599,0
DA:7601,0
DA:7602,0
DA:7605,0
DA:7607,0
DA:7608,0
DA:7610,0
DA:7611,0
DA:7612,0
DA:7616,0
DA:7617,0
DA:7619,0
DA:7620,0
DA:7621,0
DA:7624,0
DA:7625,0
DA:7627,0
DA:7628,0
DA:7631,0
DA:7632,0
DA:7633,0
DA:7635,0
DA:7636,0
DA:7637,0
DA:7639,0
DA:7640,0
DA:7641,0
DA:7643,0
DA:7644,0
DA:7645,0
DA:7646,0
DA:7647,0
DA:7648,0
DA:7649,0
DA:7651,0
DA:7652,0
DA:7654,0
DA:7655,0
DA:7656,0
DA:7657,0
DA:7660,0
DA:7661,0
DA:7662,0
DA:7663,0
DA:7665,0
DA:7666,0
DA:7667,0
DA:7668,0
DA:7669,0
DA:7671,0
DA:7672,0
DA:7673,0
DA:7674,0
DA:7675,0
DA:7676,0
DA:7677,0
DA:7678,0
DA:7679,0
DA:7680,0
DA:7682,0
DA:7683,0
DA:7684,0
DA:7686,0
DA:7688,0
DA:7702,0
DA:7705,0
DA:7707,0
DA:7708,0
DA:7711,0
DA:7712,0
DA:7713,0
DA:7714,0
DA:7715,0
DA:7717,0
DA:7718,0
DA:7720,0
DA:7721,0
DA:7722,0
DA:7724,0
DA:7725,0
DA:7726,0
DA:7727,0
DA:7729,0
DA:7731,0
DA:7734,0
DA:7735,0
DA:7738,0
DA:7739,0
DA:7741,0
DA:7742,0
DA:7744,0
DA:7745,0
DA:7748,0
DA:7749,0
DA:7750,0
DA:7751,0
DA:7753,0
DA:7754,0
DA:7755,0
DA:7756,0
DA:7757,0
DA:7759,0
DA:7761,0
DA:7762,0
DA:7765,0
DA:7766,0
DA:7767,0
DA:7768,0
DA:7769,0
DA:7771,0
DA:7772,0
DA:7773,0
DA:7774,0
DA:7775,0
DA:7777,0
DA:7779,0
DA:7780,0
DA:7783,0
DA:7784,0
DA:7785,0
DA:7786,0
DA:7787,0
DA:7788,0
DA:7789,0
DA:7791,0
DA:7792,0
DA:7793,0
DA:7794,0
DA:7795,0
DA:7797,0
DA:7799,0
DA:7800,0
DA:7803,0
DA:7804,0
DA:7805,0
DA:7806,0
DA:7807,0
DA:7808,0
DA:7809,0
DA:7810,0
DA:7812,0
DA:7813,0
DA:7814,0
DA:7815,0
DA:7816,0
DA:7818,0
DA:7820,0
DA:7821,0
DA:7824,0
DA:7826,0
DA:7827,0
DA:7829,0
DA:7830,0
DA:7831,0
DA:7835,0
DA:7836,0
DA:7838,0
DA:7839,0
DA:7840,0
DA:7843,0
DA:7844,0
DA:7846,0
DA:7847,0
DA:7850,0
DA:7851,0
DA:7852,0
DA:7854,0
DA:7855,0
DA:7856,0
DA:7857,0
DA:7859,0
DA:7860,0
DA:7861,0
DA:7863,0
DA:7864,0
DA:7865,0
DA:7866,0
DA:7867,0
DA:7868,0
DA:7869,0
DA:7871,0
DA:7872,0
DA:7875,0
DA:7876,0
DA:7877,0
DA:7878,0
DA:7880,0
DA:7881,0
DA:7884,0
DA:7885,0
DA:7886,0
DA:7887,0
DA:7889,0
DA:7890,0
DA:7891,0
DA:7892,0
DA:7893,0
DA:7895,0
DA:7896,0
DA:7897,0
DA:7898,0
DA:7899,0
DA:7900,0
DA:7901,0
DA:7903,0
DA:7904,0
DA:7905,0
DA:7907,0
DA:7909,0
DA:7910,0
DA:7912,0
DA:7913,0
DA:7914,0
DA:7916,0
DA:7918,0
DA:7920,0
DA:7921,0
DA:7935,0
DA:7938,0
DA:7940,0
DA:7941,0
DA:7944,0
DA:7945,0
DA:7946,0
DA:7947,0
DA:7948,0
DA:7950,0
DA:7951,0
DA:7953,0
DA:7954,0
DA:7955,0
DA:7957,0
DA:7958,0
DA:7959,0
DA:7960,0
DA:7962,0
DA:7964,0
DA:7967,0
DA:7968,0
DA:7971,0
DA:7972,0
DA:7974,0
DA:7975,0
DA:7977,0
DA:7978,0
DA:7981,0
DA:7982,0
DA:7983,0
DA:7984,0
DA:7986,0
DA:7987,0
DA:7988,0
DA:7989,0
DA:7990,0
DA:7992,0
DA:7994,0
DA:7995,0
DA:7998,0
DA:7999,0
DA:8000,0
DA:8001,0
DA:8002,0
DA:8004,0
DA:8005,0
DA:8006,0
DA:8007,0
DA:8008,0
DA:8010,0
DA:8012,0
DA:8013,0
DA:8016,0
DA:8017,0
DA:8018,0
DA:8019,0
DA:8020,0
DA:8021,0
DA:8022,0
DA:8024,0
DA:8025,0
DA:8026,0
DA:8027,0
DA:8028,0
DA:8030,0
DA:8032,0
DA:8033,0
DA:8036,0
DA:8037,0
DA:8038,0
DA:8039,0
DA:8040,0
DA:8041,0
DA:8042,0
DA:8043,0
DA:8045,0
DA:8046,0
DA:8047,0
DA:8048,0
DA:8049,0
DA:8051,0
DA:8053,0
DA:8054,0
DA:8057,0
DA:8059,0
DA:8060,0
DA:8062,0
DA:8063,0
DA:8064,0
DA:8068,0
DA:8069,0
DA:8071,0
DA:8072,0
DA:8073,0
DA:8076,0
DA:8077,0
DA:8079,0
DA:8080,0
DA:8083,0
DA:8084,0
DA:8085,0
DA:8087,0
DA:8088,0
DA:8089,0
DA:8090,0
DA:8092,0
DA:8093,0
DA:8094,0
DA:8096,0
DA:8097,0
DA:8098,0
DA:8099,0
DA:8100,0
DA:8101,0
DA:8102,0
DA:8104,0
DA:8105,0
DA:8108,0
DA:8109,0
DA:8110,0
DA:8111,0
DA:8113,0
DA:8114,0
DA:8117,0
DA:8118,0
DA:8119,0
DA:8120,0
DA:8122,0
DA:8123,0
DA:8124,0
DA:8125,0
DA:8126,0
DA:8128,0
DA:8129,0
DA:8130,0
DA:8131,0
DA:8132,0
DA:8133,0
DA:8134,0
DA:8136,0
DA:8137,0
DA:8138,0
DA:8140,0
DA:8142,0
DA:8143,0
DA:8145,0
DA:8146,0
DA:8147,0
DA:8149,0
DA:8151,0
DA:8153,0
DA:8154,0
DA:8168,0
DA:8171,0
DA:8173,0
DA:8174,0
DA:8177,0
DA:8178,0
DA:8179,0
DA:8180,0
DA:8181,0
DA:8183,0
DA:8184,0
DA:8186,0
DA:8187,0
DA:8188,0
DA:8190,0
DA:8191,0
DA:8192,0
DA:8193,0
DA:8195,0
DA:8197,0
DA:8200,0
DA:8201,0
DA:8204,0
DA:8205,0
DA:8207,0
DA:8208,0
DA:8210,0
DA:8211,0
DA:8214,0
DA:8215,0
DA:8216,0
DA:8217,0
DA:8218,0
DA:8220,0
DA:8221,0
DA:8222,0
DA:8223,0
DA:8224,0
DA:8226,0
DA:8228,0
DA:8229,0
