TN:
SF:/Users/jim/work/cppfort/include/ConstantFolder.h
FNL:0,152,179
FNA:0,5,_ZN7cppfort4sccp14ConstantFolder7foldMulERKNS0_12LatticeValueES4_
FNL:1,182,206
FNA:1,4,_ZN7cppfort4sccp14ConstantFolder7foldDivERKNS0_12LatticeValueES4_
FNL:2,209,230
FNA:2,9,_ZN7cppfort4sccp14ConstantFolder7foldAndERKNS0_12LatticeValueES4_
FNL:3,233,254
FNA:3,8,_ZN7cppfort4sccp14ConstantFolder6foldOrERKNS0_12LatticeValueES4_
FNL:4,25,93
FNA:4,16,_ZN7cppfort4sccp14ConstantFolder7foldAddERKNS0_12LatticeValueES4_
FNL:5,257,278
FNA:5,6,_ZN7cppfort4sccp14ConstantFolder7foldNotERKNS0_12LatticeValueE
FNL:6,281,328
FNA:6,14,_ZN7cppfort4sccp14ConstantFolder7foldCmpENS0_12LatticeValue12CmpPredicateERKS2_S5_
FNL:7,332,338
FNA:7,9,_ZN7cppfort4sccp14ConstantFolder16wouldOverflowAddExx
FNL:8,341,347
FNA:8,3,_ZN7cppfort4sccp14ConstantFolder16wouldOverflowSubExx
FNL:9,96,149
FNA:9,8,_ZN7cppfort4sccp14ConstantFolder7foldSubERKNS0_12LatticeValueES4_
FNF:10
FNH:10
DA:25,16
DA:27,16
DA:28,2
DA:32,14
DA:33,2
DA:37,12
DA:39,3
DA:40,1
DA:42,2
DA:43,1
DA:46,1
DA:47,0
DA:48,0
DA:51,9
DA:52,4
DA:53,4
DA:56,0
DA:60,5
DA:61,4
DA:62,4
DA:63,4
DA:65,4
DA:66,3
DA:67,1
DA:69,3
DA:71,0
DA:72,1
DA:73,0
DA:77,1
DA:78,1
DA:79,1
DA:80,1
DA:81,1
DA:83,1
DA:84,1
DA:85,0
DA:87,1
DA:89,0
DA:92,0
DA:93,16
DA:96,8
DA:98,8
DA:99,0
DA:103,8
DA:104,0
DA:108,8
DA:110,2
DA:111,1
DA:113,1
DA:114,0
DA:117,1
DA:118,0
DA:119,0
DA:122,6
DA:123,4
DA:125,4
DA:126,0
DA:128,4
DA:130,0
DA:134,2
DA:135,2
DA:136,2
DA:137,2
DA:139,2
DA:140,1
DA:141,1
DA:143,1
DA:145,0
DA:148,0
DA:149,8
DA:152,5
DA:154,5
DA:155,0
DA:159,5
DA:160,0
DA:164,5
DA:165,5
DA:166,5
DA:168,5
DA:169,5
DA:170,1
DA:172,4
DA:174,0
DA:178,0
DA:179,5
DA:182,4
DA:184,4
DA:185,0
DA:189,4
DA:190,0
DA:194,4
DA:195,4
DA:196,4
DA:197,1
DA:199,3
DA:201,0
DA:205,0
DA:206,4
DA:209,9
DA:211,9
DA:212,2
DA:216,7
DA:217,2
DA:221,5
DA:222,5
DA:223,4
DA:225,1
DA:229,0
DA:230,9
DA:233,8
DA:235,8
DA:236,2
DA:240,6
DA:241,2
DA:245,4
DA:246,4
DA:247,4
DA:249,0
DA:253,0
DA:254,8
DA:257,6
DA:259,6
DA:260,1
DA:264,5
DA:265,1
DA:269,4
DA:270,4
DA:271,4
DA:273,0
DA:277,0
DA:278,6
DA:281,14
DA:285,14
DA:286,1
DA:290,13
DA:291,1
DA:295,12
DA:296,12
DA:297,12
DA:298,12
DA:299,12
DA:301,12
DA:303,2
DA:304,2
DA:306,2
DA:307,2
DA:309,3
DA:310,3
DA:312,2
DA:313,2
DA:315,1
DA:316,1
DA:318,2
DA:319,2
DA:321,12
DA:323,0
DA:327,0
DA:328,14
DA:332,9
DA:333,9
DA:334,7
DA:336,2
DA:338,9
DA:341,3
DA:342,3
DA:343,3
DA:345,0
DA:347,3
LF:168
LH:135
end_of_record
TN:
SF:/Users/jim/work/cppfort/include/DataflowAnalysis.h
FNL:0,129,130
FNA:0,88,_ZN7cppfort4sccp16DataflowAnalysis11getWorklistEv
FNL:1,147,174
FNA:1,1,_ZN7cppfort4sccp16DataflowAnalysis14mergePhiInputsERKNSt3__16vectorINS0_12LatticeValueENS2_9allocatorIS4_EEEE
FNL:2,177,178
FNA:2,38,_ZNK7cppfort4sccp16DataflowAnalysis16isBlockReachableEPv
FNL:3,182,184
FNA:3,5,_ZN7cppfort4sccp16DataflowAnalysis18markBlockReachableEPv
FNL:4,26,39
FNA:4,5,_ZN7cppfort4sccp16DataflowAnalysisD1Ev
FNA:4,5,_ZN7cppfort4sccp16DataflowAnalysisD2Ev
FNL:5,39,39
FNA:5,5,_ZN7cppfort4sccp16DataflowAnalysisC1Ev
FNA:5,5,_ZN7cppfort4sccp16DataflowAnalysisC2Ev
FNL:6,43,49
FNA:6,23,_ZNK7cppfort4sccp16DataflowAnalysis15getLatticeValueEPv
FNL:7,58,126
FNA:7,17,_ZN7cppfort4sccp16DataflowAnalysis18updateLatticeValueEPvRKNS0_12LatticeValueE
FNF:8
FNH:8
DA:39,10
DA:43,23
DA:44,23
DA:45,23
DA:46,0
DA:48,23
DA:49,23
DA:58,17
DA:59,17
DA:60,17
DA:62,17
DA:63,17
DA:64,17
DA:66,0
DA:71,0
DA:74,0
DA:75,0
DA:76,0
DA:80,0
DA:83,0
DA:84,0
DA:85,0
DA:86,0
DA:87,0
DA:88,0
DA:91,0
DA:92,0
DA:93,0
DA:94,0
DA:95,0
DA:96,0
DA:99,0
DA:100,0
DA:101,0
DA:102,0
DA:103,0
DA:104,0
DA:107,0
DA:108,0
DA:109,0
DA:110,0
DA:111,0
DA:112,0
DA:114,0
DA:115,0
DA:116,0
DA:117,0
DA:118,0
DA:119,0
DA:121,0
DA:122,0
DA:123,0
DA:125,0
DA:126,17
DA:129,88
DA:130,88
DA:147,1
DA:148,1
DA:149,0
DA:153,3
DA:154,2
DA:155,0
DA:160,3
DA:161,2
DA:162,0
DA:167,1
DA:169,2
DA:170,1
DA:171,1
DA:173,1
DA:174,1
DA:177,38
DA:178,38
DA:182,5
DA:183,5
DA:184,5
LF:76
LH:32
end_of_record
TN:
SF:/Users/jim/work/cppfort/include/LatticeValue.h
FNL:0,107,108
FNA:0,14,_ZNK7cppfort4sccp12LatticeValue6getMinEv
FNL:1,112,113
FNA:1,14,_ZNK7cppfort4sccp12LatticeValue6getMaxEv
FNL:2,117,120
FNA:2,104,_ZN7cppfort4sccp12LatticeValue11getConstantEx
FNL:3,124,127
FNA:3,51,_ZN7cppfort4sccp12LatticeValue11getConstantEb
FNL:4,131,134
FNA:4,14,_ZN7cppfort4sccp12LatticeValue15getFloatSpecialENS1_17FloatSpecialValueE
FNL:5,138,139
FNA:5,21,_ZNK7cppfort4sccp12LatticeValue12getAsIntegerEv
FNL:6,143,144
FNA:6,25,_ZNK7cppfort4sccp12LatticeValue12getAsBooleanEv
FNL:7,148,149
FNA:7,4,_ZNK7cppfort4sccp12LatticeValue17getAsFloatSpecialEv
FNL:8,153,184
FNA:8,14,_ZNK7cppfort4sccp12LatticeValue8toStringEv
FNL:9,188,264
FNA:9,19,_ZN7cppfort4sccp12LatticeValue4meetERKS1_S3_
FNL:10,67,67
FNA:10,260,_ZN7cppfort4sccp12LatticeValueC1ENS1_4KindE
FNA:10,260,_ZN7cppfort4sccp12LatticeValueC2ENS1_4KindE
FNL:11,71,71
FNA:11,18,_ZNK7cppfort4sccp12LatticeValue7getKindEv
FNL:12,74,74
FNA:12,162,_ZNK7cppfort4sccp12LatticeValue10isConstantEv
FNL:13,77,77
FNA:13,199,_ZNK7cppfort4sccp12LatticeValue5isTopEv
FNL:14,80,80
FNA:14,175,_ZNK7cppfort4sccp12LatticeValue8isBottomEv
FNL:15,83,83
FNA:15,55,_ZNK7cppfort4sccp12LatticeValue14isFloatSpecialEv
FNL:16,86,86
FNA:16,17,_ZN7cppfort4sccp12LatticeValueC1Ev
FNA:16,17,_ZN7cppfort4sccp12LatticeValueC2Ev
FNL:17,89,90
FNA:17,28,_ZN7cppfort4sccp12LatticeValue6getTopEv
FNL:18,94,95
FNA:18,26,_ZN7cppfort4sccp12LatticeValue9getBottomEv
FNL:19,99,103
FNA:19,37,_ZN7cppfort4sccp12LatticeValue15getIntegerRangeExx
FNF:20
FNH:20
DA:67,520
DA:71,18
DA:74,162
DA:77,199
DA:80,175
DA:83,55
DA:86,34
DA:89,28
DA:90,28
DA:94,26
DA:95,26
DA:99,37
DA:100,37
DA:101,37
DA:102,37
DA:103,37
DA:107,14
DA:108,14
DA:112,14
DA:113,14
DA:117,104
DA:118,104
DA:119,104
DA:120,104
DA:124,51
DA:125,51
DA:126,51
DA:127,51
DA:131,14
DA:132,14
DA:133,14
DA:134,14
DA:138,21
DA:139,21
DA:143,25
DA:144,25
DA:148,4
DA:149,4
DA:153,14
DA:154,14
DA:156,2
DA:158,2
DA:160,4
DA:161,2
DA:163,2
DA:164,2
DA:166,0
DA:168,4
DA:169,4
DA:170,2
DA:171,4
DA:174,4
DA:175,4
DA:176,2
DA:177,1
DA:178,1
DA:180,0
DA:181,0
DA:183,0
DA:184,14
DA:188,19
DA:190,19
DA:191,2
DA:195,17
DA:196,16
DA:199,15
DA:200,6
DA:201,6
DA:203,6
DA:205,2
DA:207,4
DA:211,9
DA:212,10
DA:213,5
DA:214,5
DA:215,3
DA:217,2
DA:219,4
DA:220,0
DA:224,4
DA:226,3
DA:227,3
DA:228,2
DA:231,1
DA:234,0
DA:235,0
DA:236,0
DA:239,0
DA:242,0
DA:246,1
DA:247,0
DA:248,0
DA:249,0
DA:252,0
DA:254,0
DA:258,1
DA:259,1
DA:263,0
DA:264,19
LF:99
LH:83
end_of_record
